
coremark.rvexe:     file format elf32-littleriscv


Disassembly of section .text:

00010074 <main>:
   10074:	81010113          	addi	sp,sp,-2032
   10078:	00001737          	lui	a4,0x1
   1007c:	7e112623          	sw	ra,2028(sp)
   10080:	7e812423          	sw	s0,2024(sp)
   10084:	7e912223          	sw	s1,2020(sp)
   10088:	7f212023          	sw	s2,2016(sp)
   1008c:	7d312e23          	sw	s3,2012(sp)
   10090:	7d412c23          	sw	s4,2008(sp)
   10094:	7d512a23          	sw	s5,2004(sp)
   10098:	7d612823          	sw	s6,2000(sp)
   1009c:	7d712623          	sw	s7,1996(sp)
   100a0:	7d812423          	sw	s8,1992(sp)
   100a4:	7d912223          	sw	s9,1988(sp)
   100a8:	7da12023          	sw	s10,1984(sp)
   100ac:	7bb12e23          	sw	s11,1980(sp)
   100b0:	fffff7b7          	lui	a5,0xfffff
   100b4:	f8010113          	addi	sp,sp,-128
   100b8:	83070713          	addi	a4,a4,-2000 # 830 <main-0xf844>
   100bc:	7dc78793          	addi	a5,a5,2012 # fffff7dc <__global_pointer$+0xfffd956c>
   100c0:	00270733          	add	a4,a4,sp
   100c4:	00058613          	mv	a2,a1
   100c8:	00a12623          	sw	a0,12(sp)
   100cc:	00f705b3          	add	a1,a4,a5
   100d0:	05e10513          	addi	a0,sp,94
   100d4:	6fc020ef          	jal	ra,127d0 <portable_init>
   100d8:	00100513          	li	a0,1
   100dc:	52c020ef          	jal	ra,12608 <get_seed_32>
   100e0:	00a11e23          	sh	a0,28(sp)
   100e4:	00200513          	li	a0,2
   100e8:	520020ef          	jal	ra,12608 <get_seed_32>
   100ec:	00a11f23          	sh	a0,30(sp)
   100f0:	00300513          	li	a0,3
   100f4:	514020ef          	jal	ra,12608 <get_seed_32>
   100f8:	02a11023          	sh	a0,32(sp)
   100fc:	00400513          	li	a0,4
   10100:	508020ef          	jal	ra,12608 <get_seed_32>
   10104:	02a12c23          	sw	a0,56(sp)
   10108:	00500513          	li	a0,5
   1010c:	4fc020ef          	jal	ra,12608 <get_seed_32>
   10110:	7a050263          	beqz	a0,108b4 <main+0x840>
   10114:	02a12e23          	sw	a0,60(sp)
   10118:	00001737          	lui	a4,0x1
   1011c:	83070713          	addi	a4,a4,-2000 # 830 <main-0xf844>
   10120:	fffff7b7          	lui	a5,0xfffff
   10124:	00270733          	add	a4,a4,sp
   10128:	00f707b3          	add	a5,a4,a5
   1012c:	00f12423          	sw	a5,8(sp)
   10130:	7ec7a783          	lw	a5,2028(a5) # fffff7ec <__global_pointer$+0xfffd957c>
   10134:	00079ce3          	bnez	a5,1094c <main+0x8d8>
   10138:	00812783          	lw	a5,8(sp)
   1013c:	7f079783          	lh	a5,2032(a5)
   10140:	7e078e63          	beqz	a5,1093c <main+0x8c8>
   10144:	000016b7          	lui	a3,0x1
   10148:	83068693          	addi	a3,a3,-2000 # 830 <main-0xf844>
   1014c:	002686b3          	add	a3,a3,sp
   10150:	fffff7b7          	lui	a5,0xfffff
   10154:	00f687b3          	add	a5,a3,a5
   10158:	03c12403          	lw	s0,60(sp)
   1015c:	00f12423          	sw	a5,8(sp)
   10160:	00812683          	lw	a3,8(sp)
   10164:	06010793          	addi	a5,sp,96
   10168:	00247493          	andi	s1,s0,2
   1016c:	00147913          	andi	s2,s0,1
   10170:	00903733          	snez	a4,s1
   10174:	7ef6aa23          	sw	a5,2036(a3)
   10178:	04011e23          	sh	zero,92(sp)
   1017c:	00447793          	andi	a5,s0,4
   10180:	00e905b3          	add	a1,s2,a4
   10184:	00078863          	beqz	a5,10194 <main+0x120>
   10188:	00158593          	addi	a1,a1,1
   1018c:	01059593          	slli	a1,a1,0x10
   10190:	0105d593          	srli	a1,a1,0x10
   10194:	7d000513          	li	a0,2000
   10198:	11c030ef          	jal	ra,132b4 <__udivsi3>
   1019c:	00001637          	lui	a2,0x1
   101a0:	fffff7b7          	lui	a5,0xfffff
   101a4:	83060693          	addi	a3,a2,-2000 # 830 <main-0xf844>
   101a8:	002686b3          	add	a3,a3,sp
   101ac:	7ec78713          	addi	a4,a5,2028 # fffff7ec <__global_pointer$+0xfffd957c>
   101b0:	00050a93          	mv	s5,a0
   101b4:	02a12a23          	sw	a0,52(sp)
   101b8:	00000993          	li	s3,0
   101bc:	00000b93          	li	s7,0
   101c0:	00100c93          	li	s9,1
   101c4:	00e68b33          	add	s6,a3,a4
   101c8:	00f68a33          	add	s4,a3,a5
   101cc:	00300c13          	li	s8,3
   101d0:	013c97b3          	sll	a5,s9,s3
   101d4:	0087f7b3          	and	a5,a5,s0
   101d8:	6a079663          	bnez	a5,10884 <main+0x810>
   101dc:	00198993          	addi	s3,s3,1
   101e0:	ff8998e3          	bne	s3,s8,101d0 <main+0x15c>
   101e4:	2c091e63          	bnez	s2,104c0 <main+0x44c>
   101e8:	30049863          	bnez	s1,104f8 <main+0x484>
   101ec:	00447413          	andi	s0,s0,4
   101f0:	02040663          	beqz	s0,1021c <main+0x1a8>
   101f4:	00001737          	lui	a4,0x1
   101f8:	83070713          	addi	a4,a4,-2000 # 830 <main-0xf844>
   101fc:	fffff7b7          	lui	a5,0xfffff
   10200:	00270733          	add	a4,a4,sp
   10204:	00f707b3          	add	a5,a4,a5
   10208:	03012603          	lw	a2,48(sp)
   1020c:	7ec79583          	lh	a1,2028(a5) # fffff7ec <__global_pointer$+0xfffd957c>
   10210:	03412503          	lw	a0,52(sp)
   10214:	00f12423          	sw	a5,8(sp)
   10218:	5d5010ef          	jal	ra,11fec <core_init_state>
   1021c:	03812783          	lw	a5,56(sp)
   10220:	0a079263          	bnez	a5,102c4 <main+0x250>
   10224:	000267b7          	lui	a5,0x26
   10228:	a707a903          	lw	s2,-1424(a5) # 25a70 <__TMC_END__+0x4>
   1022c:	a747a983          	lw	s3,-1420(a5)
   10230:	00100793          	li	a5,1
   10234:	02f12c23          	sw	a5,56(sp)
   10238:	000017b7          	lui	a5,0x1
   1023c:	fffff437          	lui	s0,0xfffff
   10240:	83078793          	addi	a5,a5,-2000 # 830 <main-0xf844>
   10244:	7ec40413          	addi	s0,s0,2028 # fffff7ec <__global_pointer$+0xfffd957c>
   10248:	002787b3          	add	a5,a5,sp
   1024c:	00878433          	add	s0,a5,s0
   10250:	03812703          	lw	a4,56(sp)
   10254:	00271793          	slli	a5,a4,0x2
   10258:	00e787b3          	add	a5,a5,a4
   1025c:	00179793          	slli	a5,a5,0x1
   10260:	02f12c23          	sw	a5,56(sp)
   10264:	4fc020ef          	jal	ra,12760 <start_time>
   10268:	00040513          	mv	a0,s0
   1026c:	1dc010ef          	jal	ra,11448 <iterate>
   10270:	50c020ef          	jal	ra,1277c <stop_time>
   10274:	524020ef          	jal	ra,12798 <get_time>
   10278:	530020ef          	jal	ra,127a8 <time_in_secs>
   1027c:	00090613          	mv	a2,s2
   10280:	00098693          	mv	a3,s3
   10284:	00050a13          	mv	s4,a0
   10288:	00058a93          	mv	s5,a1
   1028c:	611020ef          	jal	ra,1309c <__ledf2>
   10290:	fc0540e3          	bltz	a0,10250 <main+0x1dc>
   10294:	000a8593          	mv	a1,s5
   10298:	000a0513          	mv	a0,s4
   1029c:	6e9020ef          	jal	ra,13184 <__fixunsdfsi>
   102a0:	00050593          	mv	a1,a0
   102a4:	00051463          	bnez	a0,102ac <main+0x238>
   102a8:	00100593          	li	a1,1
   102ac:	00a00513          	li	a0,10
   102b0:	004030ef          	jal	ra,132b4 <__udivsi3>
   102b4:	03812583          	lw	a1,56(sp)
   102b8:	00150513          	addi	a0,a0,1
   102bc:	7cd020ef          	jal	ra,13288 <__mulsi3>
   102c0:	02a12c23          	sw	a0,56(sp)
   102c4:	49c020ef          	jal	ra,12760 <start_time>
   102c8:	000014b7          	lui	s1,0x1
   102cc:	fffff437          	lui	s0,0xfffff
   102d0:	83048793          	addi	a5,s1,-2000 # 830 <main-0xf844>
   102d4:	002787b3          	add	a5,a5,sp
   102d8:	7ec40513          	addi	a0,s0,2028 # fffff7ec <__global_pointer$+0xfffd957c>
   102dc:	00a78533          	add	a0,a5,a0
   102e0:	168010ef          	jal	ra,11448 <iterate>
   102e4:	498020ef          	jal	ra,1277c <stop_time>
   102e8:	4b0020ef          	jal	ra,12798 <get_time>
   102ec:	83048793          	addi	a5,s1,-2000
   102f0:	002787b3          	add	a5,a5,sp
   102f4:	008787b3          	add	a5,a5,s0
   102f8:	00050a13          	mv	s4,a0
   102fc:	7ec79503          	lh	a0,2028(a5)
   10300:	00000593          	li	a1,0
   10304:	00f12423          	sw	a5,8(sp)
   10308:	444020ef          	jal	ra,1274c <crc16>
   1030c:	00812783          	lw	a5,8(sp)
   10310:	00050593          	mv	a1,a0
   10314:	7ee79503          	lh	a0,2030(a5)
   10318:	434020ef          	jal	ra,1274c <crc16>
   1031c:	00812783          	lw	a5,8(sp)
   10320:	00050593          	mv	a1,a0
   10324:	7f079503          	lh	a0,2032(a5)
   10328:	424020ef          	jal	ra,1274c <crc16>
   1032c:	00050593          	mv	a1,a0
   10330:	03411503          	lh	a0,52(sp)
   10334:	418020ef          	jal	ra,1274c <crc16>
   10338:	000087b7          	lui	a5,0x8
   1033c:	b0578793          	addi	a5,a5,-1275 # 7b05 <main-0x856f>
   10340:	00050493          	mv	s1,a0
   10344:	74f50063          	beq	a0,a5,10a84 <main+0xa10>
   10348:	1ea7fa63          	bleu	a0,a5,1053c <main+0x4c8>
   1034c:	000097b7          	lui	a5,0x9
   10350:	a0278793          	addi	a5,a5,-1534 # 8a02 <main-0x7672>
   10354:	74f50263          	beq	a0,a5,10a98 <main+0xa24>
   10358:	0000f7b7          	lui	a5,0xf
   1035c:	9f578793          	addi	a5,a5,-1547 # e9f5 <main-0x167f>
   10360:	22f51663          	bne	a0,a5,1058c <main+0x518>
   10364:	00024537          	lui	a0,0x24
   10368:	d1c50513          	addi	a0,a0,-740 # 23d1c <state_known_crc+0x94>
   1036c:	4b4030ef          	jal	ra,13820 <puts>
   10370:	00300a93          	li	s5,3
   10374:	8281a783          	lw	a5,-2008(gp) # 25a98 <default_num_contexts>
   10378:	00000c93          	li	s9,0
   1037c:	00000b93          	li	s7,0
   10380:	72078663          	beqz	a5,10aac <main+0xa38>
   10384:	000016b7          	lui	a3,0x1
   10388:	83068693          	addi	a3,a3,-2000 # 830 <main-0xf844>
   1038c:	000247b7          	lui	a5,0x24
   10390:	fffff737          	lui	a4,0xfffff
   10394:	002686b3          	add	a3,a3,sp
   10398:	001a9c13          	slli	s8,s5,0x1
   1039c:	00e68733          	add	a4,a3,a4
   103a0:	c7078793          	addi	a5,a5,-912 # 23c70 <list_known_crc>
   103a4:	00e12423          	sw	a4,8(sp)
   103a8:	01878c33          	add	s8,a5,s8
   103ac:	00024b37          	lui	s6,0x24
   103b0:	000249b7          	lui	s3,0x24
   103b4:	00024937          	lui	s2,0x24
   103b8:	0380006f          	j	103f0 <main+0x37c>
   103bc:	00001737          	lui	a4,0x1
   103c0:	00f707b3          	add	a5,a4,a5
   103c4:	82c7d403          	lhu	s0,-2004(a5)
   103c8:	01940433          	add	s0,s0,s9
   103cc:	001b8b93          	addi	s7,s7,1
   103d0:	01041413          	slli	s0,s0,0x10
   103d4:	8281a783          	lw	a5,-2008(gp) # 25a98 <default_num_contexts>
   103d8:	01045413          	srli	s0,s0,0x10
   103dc:	010b9b93          	slli	s7,s7,0x10
   103e0:	01041c93          	slli	s9,s0,0x10
   103e4:	010bdb93          	srli	s7,s7,0x10
   103e8:	410cdc93          	srai	s9,s9,0x10
   103ec:	1afbf663          	bleu	a5,s7,10598 <main+0x524>
   103f0:	00812783          	lw	a5,8(sp)
   103f4:	004b9d93          	slli	s11,s7,0x4
   103f8:	017d8733          	add	a4,s11,s7
   103fc:	00271713          	slli	a4,a4,0x2
   10400:	00e78733          	add	a4,a5,a4
   10404:	00001437          	lui	s0,0x1
   10408:	00e40433          	add	s0,s0,a4
   1040c:	80c42783          	lw	a5,-2036(s0) # 80c <main-0xf868>
   10410:	82041623          	sh	zero,-2004(s0)
   10414:	0017f793          	andi	a5,a5,1
   10418:	02078463          	beqz	a5,10440 <main+0x3cc>
   1041c:	82645603          	lhu	a2,-2010(s0)
   10420:	000c5683          	lhu	a3,0(s8)
   10424:	00d60e63          	beq	a2,a3,10440 <main+0x3cc>
   10428:	000b8593          	mv	a1,s7
   1042c:	d74b0513          	addi	a0,s6,-652 # 23d74 <state_known_crc+0xec>
   10430:	224030ef          	jal	ra,13654 <printf>
   10434:	82c45783          	lhu	a5,-2004(s0)
   10438:	00178793          	addi	a5,a5,1
   1043c:	82f41623          	sh	a5,-2004(s0)
   10440:	00812783          	lw	a5,8(sp)
   10444:	017d8733          	add	a4,s11,s7
   10448:	00271713          	slli	a4,a4,0x2
   1044c:	00e78733          	add	a4,a5,a4
   10450:	00001437          	lui	s0,0x1
   10454:	00e40433          	add	s0,s0,a4
   10458:	80c42583          	lw	a1,-2036(s0) # 80c <main-0xf868>
   1045c:	0025f793          	andi	a5,a1,2
   10460:	02078663          	beqz	a5,1048c <main+0x418>
   10464:	82845603          	lhu	a2,-2008(s0)
   10468:	00cc5683          	lhu	a3,12(s8)
   1046c:	02d60063          	beq	a2,a3,1048c <main+0x418>
   10470:	000b8593          	mv	a1,s7
   10474:	da498513          	addi	a0,s3,-604 # 23da4 <state_known_crc+0x11c>
   10478:	1dc030ef          	jal	ra,13654 <printf>
   1047c:	82c45783          	lhu	a5,-2004(s0)
   10480:	80c42583          	lw	a1,-2036(s0)
   10484:	00178793          	addi	a5,a5,1
   10488:	82f41623          	sh	a5,-2004(s0)
   1048c:	00812703          	lw	a4,8(sp)
   10490:	017d87b3          	add	a5,s11,s7
   10494:	00279793          	slli	a5,a5,0x2
   10498:	0045f593          	andi	a1,a1,4
   1049c:	00f707b3          	add	a5,a4,a5
   104a0:	f0058ee3          	beqz	a1,103bc <main+0x348>
   104a4:	00001db7          	lui	s11,0x1
   104a8:	00fd8db3          	add	s11,s11,a5
   104ac:	82add603          	lhu	a2,-2006(s11) # 82a <main-0xf84a>
   104b0:	018c5683          	lhu	a3,24(s8)
   104b4:	0ad61a63          	bne	a2,a3,10568 <main+0x4f4>
   104b8:	82cdd403          	lhu	s0,-2004(s11)
   104bc:	f0dff06f          	j	103c8 <main+0x354>
   104c0:	00001737          	lui	a4,0x1
   104c4:	83070713          	addi	a4,a4,-2000 # 830 <main-0xf844>
   104c8:	00270733          	add	a4,a4,sp
   104cc:	fffff7b7          	lui	a5,0xfffff
   104d0:	00f707b3          	add	a5,a4,a5
   104d4:	7ec79603          	lh	a2,2028(a5) # fffff7ec <__global_pointer$+0xfffd957c>
   104d8:	7f87a583          	lw	a1,2040(a5)
   104dc:	000a8513          	mv	a0,s5
   104e0:	00f12423          	sw	a5,8(sp)
   104e4:	5c5000ef          	jal	ra,112a8 <core_list_init>
   104e8:	03c12403          	lw	s0,60(sp)
   104ec:	04a12023          	sw	a0,64(sp)
   104f0:	00247493          	andi	s1,s0,2
   104f4:	ce048ce3          	beqz	s1,101ec <main+0x178>
   104f8:	00001737          	lui	a4,0x1
   104fc:	83070713          	addi	a4,a4,-2000 # 830 <main-0xf844>
   10500:	00270733          	add	a4,a4,sp
   10504:	fffff7b7          	lui	a5,0xfffff
   10508:	00f707b3          	add	a5,a4,a5
   1050c:	00f12423          	sw	a5,8(sp)
   10510:	00812703          	lw	a4,8(sp)
   10514:	7ee79783          	lh	a5,2030(a5) # fffff7ee <__global_pointer$+0xfffd957e>
   10518:	03412503          	lw	a0,52(sp)
   1051c:	7ec71603          	lh	a2,2028(a4)
   10520:	7fc72583          	lw	a1,2044(a4)
   10524:	01079793          	slli	a5,a5,0x10
   10528:	04410693          	addi	a3,sp,68
   1052c:	00c7e633          	or	a2,a5,a2
   10530:	7a1000ef          	jal	ra,114d0 <core_init_matrix>
   10534:	03c12403          	lw	s0,60(sp)
   10538:	cb5ff06f          	j	101ec <main+0x178>
   1053c:	000027b7          	lui	a5,0x2
   10540:	8f278793          	addi	a5,a5,-1806 # 18f2 <main-0xe782>
   10544:	52f50663          	beq	a0,a5,10a70 <main+0x9fc>
   10548:	000057b7          	lui	a5,0x5
   1054c:	eaf78793          	addi	a5,a5,-337 # 4eaf <main-0xb1c5>
   10550:	02f51e63          	bne	a0,a5,1058c <main+0x518>
   10554:	00024537          	lui	a0,0x24
   10558:	cec50513          	addi	a0,a0,-788 # 23cec <state_known_crc+0x64>
   1055c:	2c4030ef          	jal	ra,13820 <puts>
   10560:	00200a93          	li	s5,2
   10564:	e11ff06f          	j	10374 <main+0x300>
   10568:	000b8593          	mv	a1,s7
   1056c:	dd890513          	addi	a0,s2,-552 # 23dd8 <state_known_crc+0x150>
   10570:	0e4030ef          	jal	ra,13654 <printf>
   10574:	82cdd783          	lhu	a5,-2004(s11)
   10578:	00178793          	addi	a5,a5,1
   1057c:	01079413          	slli	s0,a5,0x10
   10580:	01045413          	srli	s0,s0,0x10
   10584:	828d9623          	sh	s0,-2004(s11)
   10588:	e41ff06f          	j	103c8 <main+0x354>
   1058c:	00010437          	lui	s0,0x10
   10590:	fff40413          	addi	s0,s0,-1 # ffff <main-0x75>
   10594:	fff00a93          	li	s5,-1
   10598:	1c0020ef          	jal	ra,12758 <check_data_types>
   1059c:	03412583          	lw	a1,52(sp)
   105a0:	00a40433          	add	s0,s0,a0
   105a4:	00024537          	lui	a0,0x24
   105a8:	e0850513          	addi	a0,a0,-504 # 23e08 <state_known_crc+0x180>
   105ac:	0a8030ef          	jal	ra,13654 <printf>
   105b0:	00024537          	lui	a0,0x24
   105b4:	000a0593          	mv	a1,s4
   105b8:	e2050513          	addi	a0,a0,-480 # 23e20 <state_known_crc+0x198>
   105bc:	098030ef          	jal	ra,13654 <printf>
   105c0:	000a0513          	mv	a0,s4
   105c4:	1e4020ef          	jal	ra,127a8 <time_in_secs>
   105c8:	00050613          	mv	a2,a0
   105cc:	00024537          	lui	a0,0x24
   105d0:	00058693          	mv	a3,a1
   105d4:	e3850513          	addi	a0,a0,-456 # 23e38 <state_known_crc+0x1b0>
   105d8:	07c030ef          	jal	ra,13654 <printf>
   105dc:	000a0513          	mv	a0,s4
   105e0:	1c8020ef          	jal	ra,127a8 <time_in_secs>
   105e4:	01041413          	slli	s0,s0,0x10
   105e8:	00000613          	li	a2,0
   105ec:	00000693          	li	a3,0
   105f0:	01045413          	srli	s0,s0,0x10
   105f4:	1c1020ef          	jal	ra,12fb4 <__gedf2>
   105f8:	04a05663          	blez	a0,10644 <main+0x5d0>
   105fc:	8281a583          	lw	a1,-2008(gp) # 25a98 <default_num_contexts>
   10600:	03812503          	lw	a0,56(sp)
   10604:	485020ef          	jal	ra,13288 <__mulsi3>
   10608:	3f9020ef          	jal	ra,13200 <__floatunsidf>
   1060c:	00050913          	mv	s2,a0
   10610:	000a0513          	mv	a0,s4
   10614:	00058993          	mv	s3,a1
   10618:	190020ef          	jal	ra,127a8 <time_in_secs>
   1061c:	00050613          	mv	a2,a0
   10620:	00058693          	mv	a3,a1
   10624:	00090513          	mv	a0,s2
   10628:	00098593          	mv	a1,s3
   1062c:	1b8020ef          	jal	ra,127e4 <__divdf3>
   10630:	00050613          	mv	a2,a0
   10634:	00024537          	lui	a0,0x24
   10638:	00058693          	mv	a3,a1
   1063c:	e5050513          	addi	a0,a0,-432 # 23e50 <state_known_crc+0x1c8>
   10640:	014030ef          	jal	ra,13654 <printf>
   10644:	000a0513          	mv	a0,s4
   10648:	160020ef          	jal	ra,127a8 <time_in_secs>
   1064c:	000267b7          	lui	a5,0x26
   10650:	a787a603          	lw	a2,-1416(a5) # 25a78 <__TMC_END__+0xc>
   10654:	a7c7a683          	lw	a3,-1412(a5)
   10658:	245020ef          	jal	ra,1309c <__ledf2>
   1065c:	3e054a63          	bltz	a0,10a50 <main+0x9dc>
   10660:	8281a583          	lw	a1,-2008(gp) # 25a98 <default_num_contexts>
   10664:	03812503          	lw	a0,56(sp)
   10668:	00024b37          	lui	s6,0x24
   1066c:	00024bb7          	lui	s7,0x24
   10670:	419020ef          	jal	ra,13288 <__mulsi3>
   10674:	00050593          	mv	a1,a0
   10678:	00024537          	lui	a0,0x24
   1067c:	ea850513          	addi	a0,a0,-344 # 23ea8 <state_known_crc+0x220>
   10680:	7d5020ef          	jal	ra,13654 <printf>
   10684:	00024537          	lui	a0,0x24
   10688:	ec0b0593          	addi	a1,s6,-320 # 23ec0 <state_known_crc+0x238>
   1068c:	ecc50513          	addi	a0,a0,-308 # 23ecc <state_known_crc+0x244>
   10690:	7c5020ef          	jal	ra,13654 <printf>
   10694:	00024537          	lui	a0,0x24
   10698:	ee4b8593          	addi	a1,s7,-284 # 23ee4 <state_known_crc+0x25c>
   1069c:	f0050513          	addi	a0,a0,-256 # 23f00 <state_known_crc+0x278>
   106a0:	7b5020ef          	jal	ra,13654 <printf>
   106a4:	00024c37          	lui	s8,0x24
   106a8:	00024537          	lui	a0,0x24
   106ac:	f18c0593          	addi	a1,s8,-232 # 23f18 <state_known_crc+0x290>
   106b0:	f2050513          	addi	a0,a0,-224 # 23f20 <state_known_crc+0x298>
   106b4:	7a1020ef          	jal	ra,13654 <printf>
   106b8:	00024537          	lui	a0,0x24
   106bc:	00048593          	mv	a1,s1
   106c0:	f3850513          	addi	a0,a0,-200 # 23f38 <state_known_crc+0x2b0>
   106c4:	791020ef          	jal	ra,13654 <printf>
   106c8:	03c12783          	lw	a5,60(sp)
   106cc:	01041413          	slli	s0,s0,0x10
   106d0:	41045413          	srai	s0,s0,0x10
   106d4:	0017f713          	andi	a4,a5,1
   106d8:	06070863          	beqz	a4,10748 <main+0x6d4>
   106dc:	8281a703          	lw	a4,-2008(gp) # 25a98 <default_num_contexts>
   106e0:	06070463          	beqz	a4,10748 <main+0x6d4>
   106e4:	00001737          	lui	a4,0x1
   106e8:	83070713          	addi	a4,a4,-2000 # 830 <main-0xf844>
   106ec:	fffff7b7          	lui	a5,0xfffff
   106f0:	00270733          	add	a4,a4,sp
   106f4:	00f707b3          	add	a5,a4,a5
   106f8:	00000993          	li	s3,0
   106fc:	00024937          	lui	s2,0x24
   10700:	00f12423          	sw	a5,8(sp)
   10704:	000014b7          	lui	s1,0x1
   10708:	00499793          	slli	a5,s3,0x4
   1070c:	00812703          	lw	a4,8(sp)
   10710:	013787b3          	add	a5,a5,s3
   10714:	00279793          	slli	a5,a5,0x2
   10718:	00f707b3          	add	a5,a4,a5
   1071c:	00f487b3          	add	a5,s1,a5
   10720:	8267d603          	lhu	a2,-2010(a5) # ffffe826 <__global_pointer$+0xfffd85b6>
   10724:	00098593          	mv	a1,s3
   10728:	f5490513          	addi	a0,s2,-172 # 23f54 <state_known_crc+0x2cc>
   1072c:	729020ef          	jal	ra,13654 <printf>
   10730:	00198993          	addi	s3,s3,1
   10734:	8281a783          	lw	a5,-2008(gp) # 25a98 <default_num_contexts>
   10738:	01099993          	slli	s3,s3,0x10
   1073c:	0109d993          	srli	s3,s3,0x10
   10740:	fcf9e4e3          	bltu	s3,a5,10708 <main+0x694>
   10744:	03c12783          	lw	a5,60(sp)
   10748:	0027f713          	andi	a4,a5,2
   1074c:	06070863          	beqz	a4,107bc <main+0x748>
   10750:	8281a703          	lw	a4,-2008(gp) # 25a98 <default_num_contexts>
   10754:	30070863          	beqz	a4,10a64 <main+0x9f0>
   10758:	00001737          	lui	a4,0x1
   1075c:	83070713          	addi	a4,a4,-2000 # 830 <main-0xf844>
   10760:	fffff7b7          	lui	a5,0xfffff
   10764:	00270733          	add	a4,a4,sp
   10768:	00f707b3          	add	a5,a4,a5
   1076c:	00000993          	li	s3,0
   10770:	00024937          	lui	s2,0x24
   10774:	00f12423          	sw	a5,8(sp)
   10778:	000014b7          	lui	s1,0x1
   1077c:	00499793          	slli	a5,s3,0x4
   10780:	00812703          	lw	a4,8(sp)
   10784:	013787b3          	add	a5,a5,s3
   10788:	00279793          	slli	a5,a5,0x2
   1078c:	00f707b3          	add	a5,a4,a5
   10790:	00f487b3          	add	a5,s1,a5
   10794:	8287d603          	lhu	a2,-2008(a5) # ffffe828 <__global_pointer$+0xfffd85b8>
   10798:	00098593          	mv	a1,s3
   1079c:	f7090513          	addi	a0,s2,-144 # 23f70 <state_known_crc+0x2e8>
   107a0:	6b5020ef          	jal	ra,13654 <printf>
   107a4:	00198993          	addi	s3,s3,1
   107a8:	8281a783          	lw	a5,-2008(gp) # 25a98 <default_num_contexts>
   107ac:	01099993          	slli	s3,s3,0x10
   107b0:	0109d993          	srli	s3,s3,0x10
   107b4:	fcf9e4e3          	bltu	s3,a5,1077c <main+0x708>
   107b8:	03c12783          	lw	a5,60(sp)
   107bc:	0047f793          	andi	a5,a5,4
   107c0:	10079063          	bnez	a5,108c0 <main+0x84c>
   107c4:	00001737          	lui	a4,0x1
   107c8:	8281a783          	lw	a5,-2008(gp) # 25a98 <default_num_contexts>
   107cc:	83070713          	addi	a4,a4,-2000 # 830 <main-0xf844>
   107d0:	fffff4b7          	lui	s1,0xfffff
   107d4:	00270733          	add	a4,a4,sp
   107d8:	00000c93          	li	s9,0
   107dc:	000249b7          	lui	s3,0x24
   107e0:	009704b3          	add	s1,a4,s1
   107e4:	00001937          	lui	s2,0x1
   107e8:	02078e63          	beqz	a5,10824 <main+0x7b0>
   107ec:	004c9793          	slli	a5,s9,0x4
   107f0:	019787b3          	add	a5,a5,s9
   107f4:	00279793          	slli	a5,a5,0x2
   107f8:	00f487b3          	add	a5,s1,a5
   107fc:	00f907b3          	add	a5,s2,a5
   10800:	8247d603          	lhu	a2,-2012(a5)
   10804:	000c8593          	mv	a1,s9
   10808:	fa898513          	addi	a0,s3,-88 # 23fa8 <state_known_crc+0x320>
   1080c:	649020ef          	jal	ra,13654 <printf>
   10810:	001c8c93          	addi	s9,s9,1
   10814:	8281a783          	lw	a5,-2008(gp) # 25a98 <default_num_contexts>
   10818:	010c9c93          	slli	s9,s9,0x10
   1081c:	010cdc93          	srli	s9,s9,0x10
   10820:	fcfce6e3          	bltu	s9,a5,107ec <main+0x778>
   10824:	14040c63          	beqz	s0,1097c <main+0x908>
   10828:	10805263          	blez	s0,1092c <main+0x8b8>
   1082c:	00024537          	lui	a0,0x24
   10830:	03850513          	addi	a0,a0,56 # 24038 <state_known_crc+0x3b0>
   10834:	7ed020ef          	jal	ra,13820 <puts>
   10838:	05e10513          	addi	a0,sp,94
   1083c:	7a1010ef          	jal	ra,127dc <portable_fini>
   10840:	08010113          	addi	sp,sp,128
   10844:	7ec12083          	lw	ra,2028(sp)
   10848:	00000513          	li	a0,0
   1084c:	7e812403          	lw	s0,2024(sp)
   10850:	7e412483          	lw	s1,2020(sp)
   10854:	7e012903          	lw	s2,2016(sp)
   10858:	7dc12983          	lw	s3,2012(sp)
   1085c:	7d812a03          	lw	s4,2008(sp)
   10860:	7d412a83          	lw	s5,2004(sp)
   10864:	7d012b03          	lw	s6,2000(sp)
   10868:	7cc12b83          	lw	s7,1996(sp)
   1086c:	7c812c03          	lw	s8,1992(sp)
   10870:	7c412c83          	lw	s9,1988(sp)
   10874:	7c012d03          	lw	s10,1984(sp)
   10878:	7bc12d83          	lw	s11,1980(sp)
   1087c:	7f010113          	addi	sp,sp,2032
   10880:	00008067          	ret
   10884:	000b8513          	mv	a0,s7
   10888:	000a8593          	mv	a1,s5
   1088c:	1fd020ef          	jal	ra,13288 <__mulsi3>
   10890:	7f4a2783          	lw	a5,2036(s4)
   10894:	00299d13          	slli	s10,s3,0x2
   10898:	001b8b93          	addi	s7,s7,1
   1089c:	01ab0d33          	add	s10,s6,s10
   108a0:	010b9b93          	slli	s7,s7,0x10
   108a4:	00a78533          	add	a0,a5,a0
   108a8:	010bdb93          	srli	s7,s7,0x10
   108ac:	00ad2623          	sw	a0,12(s10)
   108b0:	92dff06f          	j	101dc <main+0x168>
   108b4:	00700793          	li	a5,7
   108b8:	02f12e23          	sw	a5,60(sp)
   108bc:	85dff06f          	j	10118 <main+0xa4>
   108c0:	8281a783          	lw	a5,-2008(gp) # 25a98 <default_num_contexts>
   108c4:	f60780e3          	beqz	a5,10824 <main+0x7b0>
   108c8:	00001737          	lui	a4,0x1
   108cc:	83070713          	addi	a4,a4,-2000 # 830 <main-0xf844>
   108d0:	fffff7b7          	lui	a5,0xfffff
   108d4:	00270733          	add	a4,a4,sp
   108d8:	00f707b3          	add	a5,a4,a5
   108dc:	00000993          	li	s3,0
   108e0:	00024937          	lui	s2,0x24
   108e4:	00f12423          	sw	a5,8(sp)
   108e8:	000014b7          	lui	s1,0x1
   108ec:	00499793          	slli	a5,s3,0x4
   108f0:	00812703          	lw	a4,8(sp)
   108f4:	013787b3          	add	a5,a5,s3
   108f8:	00279793          	slli	a5,a5,0x2
   108fc:	00f707b3          	add	a5,a4,a5
   10900:	00f487b3          	add	a5,s1,a5
   10904:	82a7d603          	lhu	a2,-2006(a5) # ffffe82a <__global_pointer$+0xfffd85ba>
   10908:	00098593          	mv	a1,s3
   1090c:	f8c90513          	addi	a0,s2,-116 # 23f8c <state_known_crc+0x304>
   10910:	545020ef          	jal	ra,13654 <printf>
   10914:	00198993          	addi	s3,s3,1
   10918:	8281a783          	lw	a5,-2008(gp) # 25a98 <default_num_contexts>
   1091c:	01099993          	slli	s3,s3,0x10
   10920:	0109d993          	srli	s3,s3,0x10
   10924:	fcf9e4e3          	bltu	s3,a5,108ec <main+0x878>
   10928:	e9dff06f          	j	107c4 <main+0x750>
   1092c:	00024537          	lui	a0,0x24
   10930:	04850513          	addi	a0,a0,72 # 24048 <state_known_crc+0x3c0>
   10934:	6ed020ef          	jal	ra,13820 <puts>
   10938:	f01ff06f          	j	10838 <main+0x7c4>
   1093c:	00812703          	lw	a4,8(sp)
   10940:	06600793          	li	a5,102
   10944:	7ef71823          	sh	a5,2032(a4)
   10948:	ffcff06f          	j	10144 <main+0xd0>
   1094c:	00100713          	li	a4,1
   10950:	fee79a63          	bne	a5,a4,10144 <main+0xd0>
   10954:	00812783          	lw	a5,8(sp)
   10958:	7f079783          	lh	a5,2032(a5)
   1095c:	fe079463          	bnez	a5,10144 <main+0xd0>
   10960:	00812703          	lw	a4,8(sp)
   10964:	341537b7          	lui	a5,0x34153
   10968:	41578793          	addi	a5,a5,1045 # 34153415 <__global_pointer$+0x3412d1a5>
   1096c:	7ef72623          	sw	a5,2028(a4)
   10970:	06600793          	li	a5,102
   10974:	7ef71823          	sh	a5,2032(a4)
   10978:	fccff06f          	j	10144 <main+0xd0>
   1097c:	00024537          	lui	a0,0x24
   10980:	fc450513          	addi	a0,a0,-60 # 23fc4 <state_known_crc+0x33c>
   10984:	69d020ef          	jal	ra,13820 <puts>
   10988:	00300793          	li	a5,3
   1098c:	eafa96e3          	bne	s5,a5,10838 <main+0x7c4>
   10990:	00024437          	lui	s0,0x24
   10994:	00c40513          	addi	a0,s0,12 # 2400c <state_known_crc+0x384>
   10998:	4bd020ef          	jal	ra,13654 <printf>
   1099c:	00c40513          	addi	a0,s0,12
   109a0:	4b5020ef          	jal	ra,13654 <printf>
   109a4:	00c40513          	addi	a0,s0,12
   109a8:	4ad020ef          	jal	ra,13654 <printf>
   109ac:	00c40513          	addi	a0,s0,12
   109b0:	4a5020ef          	jal	ra,13654 <printf>
   109b4:	00c40513          	addi	a0,s0,12
   109b8:	49d020ef          	jal	ra,13654 <printf>
   109bc:	00c40513          	addi	a0,s0,12
   109c0:	495020ef          	jal	ra,13654 <printf>
   109c4:	00c40513          	addi	a0,s0,12
   109c8:	48d020ef          	jal	ra,13654 <printf>
   109cc:	00c40513          	addi	a0,s0,12
   109d0:	485020ef          	jal	ra,13654 <printf>
   109d4:	00c40513          	addi	a0,s0,12
   109d8:	47d020ef          	jal	ra,13654 <printf>
   109dc:	00c40513          	addi	a0,s0,12
   109e0:	475020ef          	jal	ra,13654 <printf>
   109e4:	8281a583          	lw	a1,-2008(gp) # 25a98 <default_num_contexts>
   109e8:	03812503          	lw	a0,56(sp)
   109ec:	09d020ef          	jal	ra,13288 <__mulsi3>
   109f0:	011020ef          	jal	ra,13200 <__floatunsidf>
   109f4:	00050413          	mv	s0,a0
   109f8:	000a0513          	mv	a0,s4
   109fc:	00058493          	mv	s1,a1
   10a00:	5a9010ef          	jal	ra,127a8 <time_in_secs>
   10a04:	00050613          	mv	a2,a0
   10a08:	00058693          	mv	a3,a1
   10a0c:	00040513          	mv	a0,s0
   10a10:	00048593          	mv	a1,s1
   10a14:	5d1010ef          	jal	ra,127e4 <__divdf3>
   10a18:	00050613          	mv	a2,a0
   10a1c:	00024537          	lui	a0,0x24
   10a20:	00058693          	mv	a3,a1
   10a24:	ee4b8793          	addi	a5,s7,-284
   10a28:	ec0b0713          	addi	a4,s6,-320
   10a2c:	01450513          	addi	a0,a0,20 # 24014 <state_known_crc+0x38c>
   10a30:	425020ef          	jal	ra,13654 <printf>
   10a34:	00024537          	lui	a0,0x24
   10a38:	f18c0593          	addi	a1,s8,-232
   10a3c:	03050513          	addi	a0,a0,48 # 24030 <state_known_crc+0x3a8>
   10a40:	415020ef          	jal	ra,13654 <printf>
   10a44:	00a00513          	li	a0,10
   10a48:	461020ef          	jal	ra,136a8 <putchar>
   10a4c:	dedff06f          	j	10838 <main+0x7c4>
   10a50:	00024537          	lui	a0,0x24
   10a54:	e6850513          	addi	a0,a0,-408 # 23e68 <state_known_crc+0x1e0>
   10a58:	5c9020ef          	jal	ra,13820 <puts>
   10a5c:	00140413          	addi	s0,s0,1
   10a60:	c01ff06f          	j	10660 <main+0x5ec>
   10a64:	0047f793          	andi	a5,a5,4
   10a68:	da079ee3          	bnez	a5,10824 <main+0x7b0>
   10a6c:	d59ff06f          	j	107c4 <main+0x750>
   10a70:	00024537          	lui	a0,0x24
   10a74:	d4850513          	addi	a0,a0,-696 # 23d48 <state_known_crc+0xc0>
   10a78:	5a9020ef          	jal	ra,13820 <puts>
   10a7c:	00400a93          	li	s5,4
   10a80:	8f5ff06f          	j	10374 <main+0x300>
   10a84:	00024537          	lui	a0,0x24
   10a88:	cc050513          	addi	a0,a0,-832 # 23cc0 <state_known_crc+0x38>
   10a8c:	595020ef          	jal	ra,13820 <puts>
   10a90:	00100a93          	li	s5,1
   10a94:	8e1ff06f          	j	10374 <main+0x300>
   10a98:	00024537          	lui	a0,0x24
   10a9c:	c9450513          	addi	a0,a0,-876 # 23c94 <state_known_crc+0xc>
   10aa0:	581020ef          	jal	ra,13820 <puts>
   10aa4:	00000a93          	li	s5,0
   10aa8:	8cdff06f          	j	10374 <main+0x300>
   10aac:	00000413          	li	s0,0
   10ab0:	ae9ff06f          	j	10598 <main+0x524>

00010ab4 <_start>:
   10ab4:	00015197          	auipc	gp,0x15
   10ab8:	7bc18193          	addi	gp,gp,1980 # 26270 <__global_pointer$>
   10abc:	83c18513          	addi	a0,gp,-1988 # 25aac <_edata>
   10ac0:	8c418613          	addi	a2,gp,-1852 # 25b34 <_end>
   10ac4:	40a60633          	sub	a2,a2,a0
   10ac8:	00000593          	li	a1,0
   10acc:	26d020ef          	jal	ra,13538 <memset>
   10ad0:	00003517          	auipc	a0,0x3
   10ad4:	96450513          	addi	a0,a0,-1692 # 13434 <__libc_fini_array>
   10ad8:	0d5020ef          	jal	ra,133ac <atexit>
   10adc:	1b5020ef          	jal	ra,13490 <__libc_init_array>
   10ae0:	00012503          	lw	a0,0(sp)
   10ae4:	00410593          	addi	a1,sp,4
   10ae8:	00000613          	li	a2,0
   10aec:	d88ff0ef          	jal	ra,10074 <main>
   10af0:	1150206f          	j	13404 <exit>

00010af4 <_fini>:
   10af4:	00008067          	ret

00010af8 <deregister_tm_clones>:
   10af8:	00026537          	lui	a0,0x26
   10afc:	000267b7          	lui	a5,0x26
   10b00:	a6c50713          	addi	a4,a0,-1428 # 25a6c <__TMC_END__>
   10b04:	a6c78793          	addi	a5,a5,-1428 # 25a6c <__TMC_END__>
   10b08:	00e78c63          	beq	a5,a4,10b20 <deregister_tm_clones+0x28>
   10b0c:	00000337          	lui	t1,0x0
   10b10:	00030313          	mv	t1,t1
   10b14:	00030663          	beqz	t1,10b20 <deregister_tm_clones+0x28>
   10b18:	a6c50513          	addi	a0,a0,-1428
   10b1c:	00030067          	jr	t1 # 0 <main-0x10074>
   10b20:	00008067          	ret

00010b24 <register_tm_clones>:
   10b24:	000267b7          	lui	a5,0x26
   10b28:	00026537          	lui	a0,0x26
   10b2c:	a6c78593          	addi	a1,a5,-1428 # 25a6c <__TMC_END__>
   10b30:	a6c50793          	addi	a5,a0,-1428 # 25a6c <__TMC_END__>
   10b34:	40f585b3          	sub	a1,a1,a5
   10b38:	4025d593          	srai	a1,a1,0x2
   10b3c:	01f5d793          	srli	a5,a1,0x1f
   10b40:	00b785b3          	add	a1,a5,a1
   10b44:	4015d593          	srai	a1,a1,0x1
   10b48:	00058c63          	beqz	a1,10b60 <register_tm_clones+0x3c>
   10b4c:	00000337          	lui	t1,0x0
   10b50:	00030313          	mv	t1,t1
   10b54:	00030663          	beqz	t1,10b60 <register_tm_clones+0x3c>
   10b58:	a6c50513          	addi	a0,a0,-1428
   10b5c:	00030067          	jr	t1 # 0 <main-0x10074>
   10b60:	00008067          	ret

00010b64 <__do_global_dtors_aux>:
   10b64:	8681c703          	lbu	a4,-1944(gp) # 25ad8 <completed.5430>
   10b68:	04071663          	bnez	a4,10bb4 <__do_global_dtors_aux+0x50>
   10b6c:	ff010113          	addi	sp,sp,-16
   10b70:	00812423          	sw	s0,8(sp)
   10b74:	00112623          	sw	ra,12(sp)
   10b78:	00078413          	mv	s0,a5
   10b7c:	f7dff0ef          	jal	ra,10af8 <deregister_tm_clones>
   10b80:	000007b7          	lui	a5,0x0
   10b84:	00078793          	mv	a5,a5
   10b88:	00078a63          	beqz	a5,10b9c <__do_global_dtors_aux+0x38>
   10b8c:	00025537          	lui	a0,0x25
   10b90:	00050513          	mv	a0,a0
   10b94:	00000097          	auipc	ra,0x0
   10b98:	000000e7          	jalr	zero # 0 <main-0x10074>
   10b9c:	00100793          	li	a5,1
   10ba0:	86f18423          	sb	a5,-1944(gp) # 25ad8 <completed.5430>
   10ba4:	00c12083          	lw	ra,12(sp)
   10ba8:	00812403          	lw	s0,8(sp)
   10bac:	01010113          	addi	sp,sp,16
   10bb0:	00008067          	ret
   10bb4:	00008067          	ret

00010bb8 <frame_dummy>:
   10bb8:	000007b7          	lui	a5,0x0
   10bbc:	00078793          	mv	a5,a5
   10bc0:	02078463          	beqz	a5,10be8 <frame_dummy+0x30>
   10bc4:	00025537          	lui	a0,0x25
   10bc8:	ff010113          	addi	sp,sp,-16
   10bcc:	86c18593          	addi	a1,gp,-1940 # 25adc <object.5435>
   10bd0:	00050513          	mv	a0,a0
   10bd4:	00112623          	sw	ra,12(sp)
   10bd8:	00000097          	auipc	ra,0x0
   10bdc:	000000e7          	jalr	zero # 0 <main-0x10074>
   10be0:	00c12083          	lw	ra,12(sp)
   10be4:	01010113          	addi	sp,sp,16
   10be8:	f3dff06f          	j	10b24 <register_tm_clones>

00010bec <cmp_idx>:
   10bec:	00060a63          	beqz	a2,10c00 <cmp_idx+0x14>
   10bf0:	00251503          	lh	a0,2(a0) # 25002 <__EH_FRAME_BEGIN__+0x2>
   10bf4:	00259783          	lh	a5,2(a1)
   10bf8:	40f50533          	sub	a0,a0,a5
   10bfc:	00008067          	ret
   10c00:	00051783          	lh	a5,0(a0)
   10c04:	01079713          	slli	a4,a5,0x10
   10c08:	01075713          	srli	a4,a4,0x10
   10c0c:	00875713          	srli	a4,a4,0x8
   10c10:	f007f793          	andi	a5,a5,-256
   10c14:	00e7e7b3          	or	a5,a5,a4
   10c18:	00f51023          	sh	a5,0(a0)
   10c1c:	00059783          	lh	a5,0(a1)
   10c20:	00251503          	lh	a0,2(a0)
   10c24:	01079713          	slli	a4,a5,0x10
   10c28:	01075713          	srli	a4,a4,0x10
   10c2c:	00875713          	srli	a4,a4,0x8
   10c30:	f007f793          	andi	a5,a5,-256
   10c34:	00e7e7b3          	or	a5,a5,a4
   10c38:	00f59023          	sh	a5,0(a1)
   10c3c:	00259783          	lh	a5,2(a1)
   10c40:	40f50533          	sub	a0,a0,a5
   10c44:	00008067          	ret

00010c48 <calc_func>:
   10c48:	fe010113          	addi	sp,sp,-32
   10c4c:	00812c23          	sw	s0,24(sp)
   10c50:	00051403          	lh	s0,0(a0)
   10c54:	01212823          	sw	s2,16(sp)
   10c58:	00112e23          	sw	ra,28(sp)
   10c5c:	40745793          	srai	a5,s0,0x7
   10c60:	00912a23          	sw	s1,20(sp)
   10c64:	01312623          	sw	s3,12(sp)
   10c68:	0017f793          	andi	a5,a5,1
   10c6c:	07f47913          	andi	s2,s0,127
   10c70:	04079e63          	bnez	a5,10ccc <calc_func+0x84>
   10c74:	00058493          	mv	s1,a1
   10c78:	40345593          	srai	a1,s0,0x3
   10c7c:	00f5f593          	andi	a1,a1,15
   10c80:	00459793          	slli	a5,a1,0x4
   10c84:	00747713          	andi	a4,s0,7
   10c88:	00b7e5b3          	or	a1,a5,a1
   10c8c:	00050993          	mv	s3,a0
   10c90:	0384d783          	lhu	a5,56(s1) # 1038 <main-0xf03c>
   10c94:	04070c63          	beqz	a4,10cec <calc_func+0xa4>
   10c98:	00100693          	li	a3,1
   10c9c:	08d70a63          	beq	a4,a3,10d30 <calc_func+0xe8>
   10ca0:	01041513          	slli	a0,s0,0x10
   10ca4:	01055513          	srli	a0,a0,0x10
   10ca8:	00040913          	mv	s2,s0
   10cac:	00078593          	mv	a1,a5
   10cb0:	07f97913          	andi	s2,s2,127
   10cb4:	f0047413          	andi	s0,s0,-256
   10cb8:	1e1010ef          	jal	ra,12698 <crcu16>
   10cbc:	00896433          	or	s0,s2,s0
   10cc0:	02a49c23          	sh	a0,56(s1)
   10cc4:	08046413          	ori	s0,s0,128
   10cc8:	00899023          	sh	s0,0(s3)
   10ccc:	01c12083          	lw	ra,28(sp)
   10cd0:	01812403          	lw	s0,24(sp)
   10cd4:	00090513          	mv	a0,s2
   10cd8:	01412483          	lw	s1,20(sp)
   10cdc:	01012903          	lw	s2,16(sp)
   10ce0:	00c12983          	lw	s3,12(sp)
   10ce4:	02010113          	addi	sp,sp,32
   10ce8:	00008067          	ret
   10cec:	02200693          	li	a3,34
   10cf0:	00058713          	mv	a4,a1
   10cf4:	00d5d463          	ble	a3,a1,10cfc <calc_func+0xb4>
   10cf8:	02200713          	li	a4,34
   10cfc:	00249683          	lh	a3,2(s1)
   10d00:	00049603          	lh	a2,0(s1)
   10d04:	0144a583          	lw	a1,20(s1)
   10d08:	0184a503          	lw	a0,24(s1)
   10d0c:	0ff77713          	andi	a4,a4,255
   10d10:	730010ef          	jal	ra,12440 <core_bench_state>
   10d14:	03e4d783          	lhu	a5,62(s1)
   10d18:	01051913          	slli	s2,a0,0x10
   10d1c:	41095913          	srai	s2,s2,0x10
   10d20:	00079463          	bnez	a5,10d28 <calc_func+0xe0>
   10d24:	02a49f23          	sh	a0,62(s1)
   10d28:	0384d783          	lhu	a5,56(s1)
   10d2c:	f81ff06f          	j	10cac <calc_func+0x64>
   10d30:	00078613          	mv	a2,a5
   10d34:	02848513          	addi	a0,s1,40
   10d38:	278010ef          	jal	ra,11fb0 <core_bench_matrix>
   10d3c:	03c4d783          	lhu	a5,60(s1)
   10d40:	01051913          	slli	s2,a0,0x10
   10d44:	41095913          	srai	s2,s2,0x10
   10d48:	fe0790e3          	bnez	a5,10d28 <calc_func+0xe0>
   10d4c:	0384d783          	lhu	a5,56(s1)
   10d50:	02a49e23          	sh	a0,60(s1)
   10d54:	f59ff06f          	j	10cac <calc_func+0x64>

00010d58 <cmp_complex>:
   10d58:	ff010113          	addi	sp,sp,-16
   10d5c:	01212023          	sw	s2,0(sp)
   10d60:	00058913          	mv	s2,a1
   10d64:	00060593          	mv	a1,a2
   10d68:	00112623          	sw	ra,12(sp)
   10d6c:	00812423          	sw	s0,8(sp)
   10d70:	00912223          	sw	s1,4(sp)
   10d74:	00060413          	mv	s0,a2
   10d78:	ed1ff0ef          	jal	ra,10c48 <calc_func>
   10d7c:	00050493          	mv	s1,a0
   10d80:	00040593          	mv	a1,s0
   10d84:	00090513          	mv	a0,s2
   10d88:	ec1ff0ef          	jal	ra,10c48 <calc_func>
   10d8c:	00c12083          	lw	ra,12(sp)
   10d90:	00812403          	lw	s0,8(sp)
   10d94:	40a48533          	sub	a0,s1,a0
   10d98:	00012903          	lw	s2,0(sp)
   10d9c:	00412483          	lw	s1,4(sp)
   10da0:	01010113          	addi	sp,sp,16
   10da4:	00008067          	ret

00010da8 <copy_info>:
   10da8:	00059703          	lh	a4,0(a1)
   10dac:	00259783          	lh	a5,2(a1)
   10db0:	00e51023          	sh	a4,0(a0)
   10db4:	00f51123          	sh	a5,2(a0)
   10db8:	00008067          	ret

00010dbc <core_list_insert_new>:
   10dbc:	00062803          	lw	a6,0(a2)
   10dc0:	00880893          	addi	a7,a6,8
   10dc4:	04e8f663          	bleu	a4,a7,10e10 <core_list_insert_new+0x54>
   10dc8:	0006a703          	lw	a4,0(a3)
   10dcc:	00470313          	addi	t1,a4,4
   10dd0:	04f37063          	bleu	a5,t1,10e10 <core_list_insert_new+0x54>
   10dd4:	01162023          	sw	a7,0(a2)
   10dd8:	00052783          	lw	a5,0(a0)
   10ddc:	00059883          	lh	a7,0(a1)
   10de0:	00259603          	lh	a2,2(a1)
   10de4:	00f82023          	sw	a5,0(a6)
   10de8:	01052023          	sw	a6,0(a0)
   10dec:	00e82223          	sw	a4,4(a6)
   10df0:	0006a783          	lw	a5,0(a3)
   10df4:	00080513          	mv	a0,a6
   10df8:	00478793          	addi	a5,a5,4 # 4 <main-0x10070>
   10dfc:	00f6a023          	sw	a5,0(a3)
   10e00:	00482783          	lw	a5,4(a6)
   10e04:	01179023          	sh	a7,0(a5)
   10e08:	00c79123          	sh	a2,2(a5)
   10e0c:	00008067          	ret
   10e10:	00000813          	li	a6,0
   10e14:	00080513          	mv	a0,a6
   10e18:	00008067          	ret

00010e1c <core_list_remove>:
   10e1c:	00052783          	lw	a5,0(a0)
   10e20:	00452603          	lw	a2,4(a0)
   10e24:	00050713          	mv	a4,a0
   10e28:	0047a583          	lw	a1,4(a5)
   10e2c:	0007a683          	lw	a3,0(a5)
   10e30:	00078513          	mv	a0,a5
   10e34:	00b72223          	sw	a1,4(a4)
   10e38:	00c7a223          	sw	a2,4(a5)
   10e3c:	00d72023          	sw	a3,0(a4)
   10e40:	0007a023          	sw	zero,0(a5)
   10e44:	00008067          	ret

00010e48 <core_list_undo_remove>:
   10e48:	0045a603          	lw	a2,4(a1)
   10e4c:	00452683          	lw	a3,4(a0)
   10e50:	0005a703          	lw	a4,0(a1)
   10e54:	00c52223          	sw	a2,4(a0)
   10e58:	00d5a223          	sw	a3,4(a1)
   10e5c:	00e52023          	sw	a4,0(a0)
   10e60:	00a5a023          	sw	a0,0(a1)
   10e64:	00008067          	ret

00010e68 <core_list_find>:
   10e68:	00259703          	lh	a4,2(a1)
   10e6c:	02074863          	bltz	a4,10e9c <core_list_find+0x34>
   10e70:	02050463          	beqz	a0,10e98 <core_list_find+0x30>
   10e74:	00452783          	lw	a5,4(a0)
   10e78:	00279783          	lh	a5,2(a5)
   10e7c:	00e79a63          	bne	a5,a4,10e90 <core_list_find+0x28>
   10e80:	0500006f          	j	10ed0 <core_list_find+0x68>
   10e84:	00452783          	lw	a5,4(a0)
   10e88:	00279783          	lh	a5,2(a5)
   10e8c:	00e78663          	beq	a5,a4,10e98 <core_list_find+0x30>
   10e90:	00052503          	lw	a0,0(a0)
   10e94:	fe0518e3          	bnez	a0,10e84 <core_list_find+0x1c>
   10e98:	00008067          	ret
   10e9c:	fe050ee3          	beqz	a0,10e98 <core_list_find+0x30>
   10ea0:	00452783          	lw	a5,4(a0)
   10ea4:	00059703          	lh	a4,0(a1)
   10ea8:	0007c783          	lbu	a5,0(a5)
   10eac:	00e79a63          	bne	a5,a4,10ec0 <core_list_find+0x58>
   10eb0:	0240006f          	j	10ed4 <core_list_find+0x6c>
   10eb4:	00452783          	lw	a5,4(a0)
   10eb8:	0007c783          	lbu	a5,0(a5)
   10ebc:	00e78863          	beq	a5,a4,10ecc <core_list_find+0x64>
   10ec0:	00052503          	lw	a0,0(a0)
   10ec4:	fe0518e3          	bnez	a0,10eb4 <core_list_find+0x4c>
   10ec8:	fd1ff06f          	j	10e98 <core_list_find+0x30>
   10ecc:	00008067          	ret
   10ed0:	00008067          	ret
   10ed4:	00008067          	ret

00010ed8 <core_list_reverse>:
   10ed8:	02050063          	beqz	a0,10ef8 <core_list_reverse+0x20>
   10edc:	00000713          	li	a4,0
   10ee0:	0080006f          	j	10ee8 <core_list_reverse+0x10>
   10ee4:	00078513          	mv	a0,a5
   10ee8:	00052783          	lw	a5,0(a0)
   10eec:	00e52023          	sw	a4,0(a0)
   10ef0:	00050713          	mv	a4,a0
   10ef4:	fe0798e3          	bnez	a5,10ee4 <core_list_reverse+0xc>
   10ef8:	00008067          	ret

00010efc <core_list_mergesort>:
   10efc:	fd010113          	addi	sp,sp,-48
   10f00:	01412c23          	sw	s4,24(sp)
   10f04:	01512a23          	sw	s5,20(sp)
   10f08:	01712623          	sw	s7,12(sp)
   10f0c:	01812423          	sw	s8,8(sp)
   10f10:	01a12023          	sw	s10,0(sp)
   10f14:	02112623          	sw	ra,44(sp)
   10f18:	02812423          	sw	s0,40(sp)
   10f1c:	02912223          	sw	s1,36(sp)
   10f20:	03212023          	sw	s2,32(sp)
   10f24:	01312e23          	sw	s3,28(sp)
   10f28:	01612823          	sw	s6,16(sp)
   10f2c:	01912223          	sw	s9,4(sp)
   10f30:	00050a13          	mv	s4,a0
   10f34:	00058c13          	mv	s8,a1
   10f38:	00060b93          	mv	s7,a2
   10f3c:	00100a93          	li	s5,1
   10f40:	00100d13          	li	s10,1
   10f44:	0a0a0e63          	beqz	s4,11000 <core_list_mergesort+0x104>
   10f48:	00000c93          	li	s9,0
   10f4c:	00000913          	li	s2,0
   10f50:	00000b13          	li	s6,0
   10f54:	001c8c93          	addi	s9,s9,1
   10f58:	000a0413          	mv	s0,s4
   10f5c:	00000493          	li	s1,0
   10f60:	00042403          	lw	s0,0(s0)
   10f64:	00148493          	addi	s1,s1,1
   10f68:	00040463          	beqz	s0,10f70 <core_list_mergesort+0x74>
   10f6c:	fe9a9ae3          	bne	s5,s1,10f60 <core_list_mergesort+0x64>
   10f70:	000a8993          	mv	s3,s5
   10f74:	02048e63          	beqz	s1,10fb0 <core_list_mergesort+0xb4>
   10f78:	04098e63          	beqz	s3,10fd4 <core_list_mergesort+0xd8>
   10f7c:	04040c63          	beqz	s0,10fd4 <core_list_mergesort+0xd8>
   10f80:	00442583          	lw	a1,4(s0)
   10f84:	004a2503          	lw	a0,4(s4)
   10f88:	000b8613          	mv	a2,s7
   10f8c:	000c00e7          	jalr	s8
   10f90:	04a05263          	blez	a0,10fd4 <core_list_mergesort+0xd8>
   10f94:	00040793          	mv	a5,s0
   10f98:	00042403          	lw	s0,0(s0)
   10f9c:	fff98993          	addi	s3,s3,-1
   10fa0:	02090463          	beqz	s2,10fc8 <core_list_mergesort+0xcc>
   10fa4:	00f92023          	sw	a5,0(s2)
   10fa8:	00078913          	mv	s2,a5
   10fac:	fc0496e3          	bnez	s1,10f78 <core_list_mergesort+0x7c>
   10fb0:	02098a63          	beqz	s3,10fe4 <core_list_mergesort+0xe8>
   10fb4:	02040c63          	beqz	s0,10fec <core_list_mergesort+0xf0>
   10fb8:	00040793          	mv	a5,s0
   10fbc:	fff98993          	addi	s3,s3,-1
   10fc0:	00042403          	lw	s0,0(s0)
   10fc4:	fe0910e3          	bnez	s2,10fa4 <core_list_mergesort+0xa8>
   10fc8:	00078b13          	mv	s6,a5
   10fcc:	00078913          	mv	s2,a5
   10fd0:	fddff06f          	j	10fac <core_list_mergesort+0xb0>
   10fd4:	000a0793          	mv	a5,s4
   10fd8:	fff48493          	addi	s1,s1,-1
   10fdc:	000a2a03          	lw	s4,0(s4)
   10fe0:	fc1ff06f          	j	10fa0 <core_list_mergesort+0xa4>
   10fe4:	00040a13          	mv	s4,s0
   10fe8:	f60416e3          	bnez	s0,10f54 <core_list_mergesort+0x58>
   10fec:	00092023          	sw	zero,0(s2)
   10ff0:	01ac8c63          	beq	s9,s10,11008 <core_list_mergesort+0x10c>
   10ff4:	001a9a93          	slli	s5,s5,0x1
   10ff8:	000b0a13          	mv	s4,s6
   10ffc:	f49ff06f          	j	10f44 <core_list_mergesort+0x48>
   11000:	00002023          	sw	zero,0(zero) # 0 <main-0x10074>
   11004:	00100073          	ebreak
   11008:	02c12083          	lw	ra,44(sp)
   1100c:	02812403          	lw	s0,40(sp)
   11010:	000b0513          	mv	a0,s6
   11014:	02412483          	lw	s1,36(sp)
   11018:	02012903          	lw	s2,32(sp)
   1101c:	01c12983          	lw	s3,28(sp)
   11020:	01812a03          	lw	s4,24(sp)
   11024:	01412a83          	lw	s5,20(sp)
   11028:	01012b03          	lw	s6,16(sp)
   1102c:	00c12b83          	lw	s7,12(sp)
   11030:	00812c03          	lw	s8,8(sp)
   11034:	00412c83          	lw	s9,4(sp)
   11038:	00012d03          	lw	s10,0(sp)
   1103c:	03010113          	addi	sp,sp,48
   11040:	00008067          	ret

00011044 <core_bench_list>:
   11044:	fc010113          	addi	sp,sp,-64
   11048:	01812c23          	sw	s8,24(sp)
   1104c:	00451c03          	lh	s8,4(a0)
   11050:	02812c23          	sw	s0,56(sp)
   11054:	03512223          	sw	s5,36(sp)
   11058:	03612023          	sw	s6,32(sp)
   1105c:	02112e23          	sw	ra,60(sp)
   11060:	02912a23          	sw	s1,52(sp)
   11064:	03212823          	sw	s2,48(sp)
   11068:	03312623          	sw	s3,44(sp)
   1106c:	03412423          	sw	s4,40(sp)
   11070:	01712e23          	sw	s7,28(sp)
   11074:	01912a23          	sw	s9,20(sp)
   11078:	00b11723          	sh	a1,14(sp)
   1107c:	00050b13          	mv	s6,a0
   11080:	00058a93          	mv	s5,a1
   11084:	02452403          	lw	s0,36(a0)
   11088:	21805a63          	blez	s8,1129c <core_bench_list+0x258>
   1108c:	00058c93          	mv	s9,a1
   11090:	00000493          	li	s1,0
   11094:	00000b93          	li	s7,0
   11098:	00000993          	li	s3,0
   1109c:	00000913          	li	s2,0
   110a0:	00c10a13          	addi	s4,sp,12
   110a4:	0ff4f793          	andi	a5,s1,255
   110a8:	000a0593          	mv	a1,s4
   110ac:	00040513          	mv	a0,s0
   110b0:	00f11623          	sh	a5,12(sp)
   110b4:	db5ff0ef          	jal	ra,10e68 <core_list_find>
   110b8:	02040063          	beqz	s0,110d8 <core_bench_list+0x94>
   110bc:	00000713          	li	a4,0
   110c0:	0080006f          	j	110c8 <core_bench_list+0x84>
   110c4:	00078413          	mv	s0,a5
   110c8:	00042783          	lw	a5,0(s0)
   110cc:	00e42023          	sw	a4,0(s0)
   110d0:	00040713          	mv	a4,s0
   110d4:	fe0798e3          	bnez	a5,110c4 <core_bench_list+0x80>
   110d8:	06050a63          	beqz	a0,1114c <core_bench_list+0x108>
   110dc:	00452783          	lw	a5,4(a0)
   110e0:	00198993          	addi	s3,s3,1
   110e4:	01099993          	slli	s3,s3,0x10
   110e8:	00079783          	lh	a5,0(a5)
   110ec:	0109d993          	srli	s3,s3,0x10
   110f0:	0017f713          	andi	a4,a5,1
   110f4:	00070c63          	beqz	a4,1110c <core_bench_list+0xc8>
   110f8:	4097d793          	srai	a5,a5,0x9
   110fc:	0017f793          	andi	a5,a5,1
   11100:	00f90933          	add	s2,s2,a5
   11104:	01091913          	slli	s2,s2,0x10
   11108:	01095913          	srli	s2,s2,0x10
   1110c:	00052783          	lw	a5,0(a0)
   11110:	00078c63          	beqz	a5,11128 <core_bench_list+0xe4>
   11114:	0007a703          	lw	a4,0(a5)
   11118:	00e52023          	sw	a4,0(a0)
   1111c:	00042703          	lw	a4,0(s0)
   11120:	00e7a023          	sw	a4,0(a5)
   11124:	00f42023          	sw	a5,0(s0)
   11128:	000cc663          	bltz	s9,11134 <core_bench_list+0xf0>
   1112c:	001c8c93          	addi	s9,s9,1
   11130:	01911723          	sh	s9,14(sp)
   11134:	00148493          	addi	s1,s1,1
   11138:	01049493          	slli	s1,s1,0x10
   1113c:	4104d493          	srai	s1,s1,0x10
   11140:	029c0c63          	beq	s8,s1,11178 <core_bench_list+0x134>
   11144:	00e11c83          	lh	s9,14(sp)
   11148:	f5dff06f          	j	110a4 <core_bench_list+0x60>
   1114c:	00042783          	lw	a5,0(s0)
   11150:	001b8b93          	addi	s7,s7,1
   11154:	010b9b93          	slli	s7,s7,0x10
   11158:	0047a783          	lw	a5,4(a5)
   1115c:	010bdb93          	srli	s7,s7,0x10
   11160:	00178783          	lb	a5,1(a5)
   11164:	0017f793          	andi	a5,a5,1
   11168:	00f90933          	add	s2,s2,a5
   1116c:	01091913          	slli	s2,s2,0x10
   11170:	01095913          	srli	s2,s2,0x10
   11174:	fb5ff06f          	j	11128 <core_bench_list+0xe4>
   11178:	00299493          	slli	s1,s3,0x2
   1117c:	417484b3          	sub	s1,s1,s7
   11180:	009904b3          	add	s1,s2,s1
   11184:	01049493          	slli	s1,s1,0x10
   11188:	0104d493          	srli	s1,s1,0x10
   1118c:	01505e63          	blez	s5,111a8 <core_bench_list+0x164>
   11190:	000115b7          	lui	a1,0x11
   11194:	00040513          	mv	a0,s0
   11198:	000b0613          	mv	a2,s6
   1119c:	d5858593          	addi	a1,a1,-680 # 10d58 <cmp_complex>
   111a0:	d5dff0ef          	jal	ra,10efc <core_list_mergesort>
   111a4:	00050413          	mv	s0,a0
   111a8:	00042783          	lw	a5,0(s0)
   111ac:	000a0593          	mv	a1,s4
   111b0:	00040513          	mv	a0,s0
   111b4:	0007a983          	lw	s3,0(a5)
   111b8:	0047aa03          	lw	s4,4(a5)
   111bc:	0049a683          	lw	a3,4(s3)
   111c0:	0009a703          	lw	a4,0(s3)
   111c4:	00d7a223          	sw	a3,4(a5)
   111c8:	0149a223          	sw	s4,4(s3)
   111cc:	00e7a023          	sw	a4,0(a5)
   111d0:	0009a023          	sw	zero,0(s3)
   111d4:	c95ff0ef          	jal	ra,10e68 <core_list_find>
   111d8:	00050913          	mv	s2,a0
   111dc:	0a050a63          	beqz	a0,11290 <core_bench_list+0x24c>
   111e0:	00442783          	lw	a5,4(s0)
   111e4:	00048593          	mv	a1,s1
   111e8:	00079503          	lh	a0,0(a5)
   111ec:	560010ef          	jal	ra,1274c <crc16>
   111f0:	00092903          	lw	s2,0(s2)
   111f4:	00050493          	mv	s1,a0
   111f8:	fe0914e3          	bnez	s2,111e0 <core_bench_list+0x19c>
   111fc:	00042903          	lw	s2,0(s0)
   11200:	0049aa03          	lw	s4,4(s3)
   11204:	00492703          	lw	a4,4(s2)
   11208:	00092783          	lw	a5,0(s2)
   1120c:	000115b7          	lui	a1,0x11
   11210:	00e9a223          	sw	a4,4(s3)
   11214:	01492223          	sw	s4,4(s2)
   11218:	00f9a023          	sw	a5,0(s3)
   1121c:	01392023          	sw	s3,0(s2)
   11220:	00040513          	mv	a0,s0
   11224:	00000613          	li	a2,0
   11228:	bec58593          	addi	a1,a1,-1044 # 10bec <cmp_idx>
   1122c:	cd1ff0ef          	jal	ra,10efc <core_list_mergesort>
   11230:	00052403          	lw	s0,0(a0)
   11234:	00050913          	mv	s2,a0
   11238:	02040063          	beqz	s0,11258 <core_bench_list+0x214>
   1123c:	00492783          	lw	a5,4(s2)
   11240:	00048593          	mv	a1,s1
   11244:	00079503          	lh	a0,0(a5)
   11248:	504010ef          	jal	ra,1274c <crc16>
   1124c:	00042403          	lw	s0,0(s0)
   11250:	00050493          	mv	s1,a0
   11254:	fe0414e3          	bnez	s0,1123c <core_bench_list+0x1f8>
   11258:	03c12083          	lw	ra,60(sp)
   1125c:	03812403          	lw	s0,56(sp)
   11260:	00048513          	mv	a0,s1
   11264:	03012903          	lw	s2,48(sp)
   11268:	03412483          	lw	s1,52(sp)
   1126c:	02c12983          	lw	s3,44(sp)
   11270:	02812a03          	lw	s4,40(sp)
   11274:	02412a83          	lw	s5,36(sp)
   11278:	02012b03          	lw	s6,32(sp)
   1127c:	01c12b83          	lw	s7,28(sp)
   11280:	01812c03          	lw	s8,24(sp)
   11284:	01412c83          	lw	s9,20(sp)
   11288:	04010113          	addi	sp,sp,64
   1128c:	00008067          	ret
   11290:	00042903          	lw	s2,0(s0)
   11294:	f40916e3          	bnez	s2,111e0 <core_bench_list+0x19c>
   11298:	f6dff06f          	j	11204 <core_bench_list+0x1c0>
   1129c:	00000493          	li	s1,0
   112a0:	00c10a13          	addi	s4,sp,12
   112a4:	ee9ff06f          	j	1118c <core_bench_list+0x148>

000112a8 <core_list_init>:
   112a8:	ff010113          	addi	sp,sp,-16
   112ac:	00912223          	sw	s1,4(sp)
   112b0:	00058493          	mv	s1,a1
   112b4:	01400593          	li	a1,20
   112b8:	00812423          	sw	s0,8(sp)
   112bc:	01212023          	sw	s2,0(sp)
   112c0:	00112623          	sw	ra,12(sp)
   112c4:	00060913          	mv	s2,a2
   112c8:	7ed010ef          	jal	ra,132b4 <__udivsi3>
   112cc:	ffe50513          	addi	a0,a0,-2
   112d0:	00351e13          	slli	t3,a0,0x3
   112d4:	01c48e33          	add	t3,s1,t3
   112d8:	ffff87b7          	lui	a5,0xffff8
   112dc:	0004a023          	sw	zero,0(s1)
   112e0:	01c4a223          	sw	t3,4(s1)
   112e4:	08078713          	addi	a4,a5,128 # ffff8080 <__global_pointer$+0xfffd1e10>
   112e8:	00251613          	slli	a2,a0,0x2
   112ec:	00ee1023          	sh	a4,0(t3)
   112f0:	000e1123          	sh	zero,2(t3)
   112f4:	01048693          	addi	a3,s1,16
   112f8:	00ce0633          	add	a2,t3,a2
   112fc:	00848413          	addi	s0,s1,8
   11300:	004e0713          	addi	a4,t3,4
   11304:	13c6fa63          	bleu	t3,a3,11438 <core_list_init+0x190>
   11308:	008e0813          	addi	a6,t3,8
   1130c:	12c87663          	bleu	a2,a6,11438 <core_list_init+0x190>
   11310:	00e4a623          	sw	a4,12(s1)
   11314:	0004a423          	sw	zero,8(s1)
   11318:	0084a023          	sw	s0,0(s1)
   1131c:	fff7c793          	not	a5,a5
   11320:	fff00713          	li	a4,-1
   11324:	00ee1223          	sh	a4,4(t3)
   11328:	00fe1323          	sh	a5,6(t3)
   1132c:	06050a63          	beqz	a0,113a0 <core_list_init+0xf8>
   11330:	01091e93          	slli	t4,s2,0x10
   11334:	ffff8f37          	lui	t5,0xffff8
   11338:	010ede93          	srli	t4,t4,0x10
   1133c:	00000593          	li	a1,0
   11340:	ffff4f13          	not	t5,t5
   11344:	01059713          	slli	a4,a1,0x10
   11348:	01075713          	srli	a4,a4,0x10
   1134c:	01d747b3          	xor	a5,a4,t4
   11350:	00379793          	slli	a5,a5,0x3
   11354:	00777713          	andi	a4,a4,7
   11358:	0787f793          	andi	a5,a5,120
   1135c:	00e7e7b3          	or	a5,a5,a4
   11360:	00879713          	slli	a4,a5,0x8
   11364:	00868893          	addi	a7,a3,8
   11368:	00158593          	addi	a1,a1,1
   1136c:	00480313          	addi	t1,a6,4
   11370:	00f767b3          	or	a5,a4,a5
   11374:	03c8f463          	bleu	t3,a7,1139c <core_list_init+0xf4>
   11378:	02c37263          	bleu	a2,t1,1139c <core_list_init+0xf4>
   1137c:	0086a023          	sw	s0,0(a3)
   11380:	00d4a023          	sw	a3,0(s1)
   11384:	0106a223          	sw	a6,4(a3)
   11388:	00f81023          	sh	a5,0(a6)
   1138c:	01e81123          	sh	t5,2(a6)
   11390:	00068413          	mv	s0,a3
   11394:	00030813          	mv	a6,t1
   11398:	00088693          	mv	a3,a7
   1139c:	fab514e3          	bne	a0,a1,11344 <core_list_init+0x9c>
   113a0:	00042783          	lw	a5,0(s0)
   113a4:	06078663          	beqz	a5,11410 <core_list_init+0x168>
   113a8:	00500593          	li	a1,5
   113ac:	709010ef          	jal	ra,132b4 <__udivsi3>
   113b0:	00004637          	lui	a2,0x4
   113b4:	00100693          	li	a3,1
   113b8:	fff60613          	addi	a2,a2,-1 # 3fff <main-0xc075>
   113bc:	0180006f          	j	113d4 <core_list_init+0x12c>
   113c0:	00042403          	lw	s0,0(s0)
   113c4:	00d71123          	sh	a3,2(a4)
   113c8:	00168693          	addi	a3,a3,1
   113cc:	00042783          	lw	a5,0(s0)
   113d0:	04078063          	beqz	a5,11410 <core_list_init+0x168>
   113d4:	01069713          	slli	a4,a3,0x10
   113d8:	01075713          	srli	a4,a4,0x10
   113dc:	00170793          	addi	a5,a4,1
   113e0:	00879793          	slli	a5,a5,0x8
   113e4:	01274733          	xor	a4,a4,s2
   113e8:	7007f793          	andi	a5,a5,1792
   113ec:	00e7e7b3          	or	a5,a5,a4
   113f0:	00c7f7b3          	and	a5,a5,a2
   113f4:	00442703          	lw	a4,4(s0)
   113f8:	fca6e4e3          	bltu	a3,a0,113c0 <core_list_init+0x118>
   113fc:	00042403          	lw	s0,0(s0)
   11400:	00f71123          	sh	a5,2(a4)
   11404:	00168693          	addi	a3,a3,1
   11408:	00042783          	lw	a5,0(s0)
   1140c:	fc0794e3          	bnez	a5,113d4 <core_list_init+0x12c>
   11410:	00812403          	lw	s0,8(sp)
   11414:	00c12083          	lw	ra,12(sp)
   11418:	00012903          	lw	s2,0(sp)
   1141c:	00048513          	mv	a0,s1
   11420:	00412483          	lw	s1,4(sp)
   11424:	000115b7          	lui	a1,0x11
   11428:	00000613          	li	a2,0
   1142c:	bec58593          	addi	a1,a1,-1044 # 10bec <cmp_idx>
   11430:	01010113          	addi	sp,sp,16
   11434:	ac9ff06f          	j	10efc <core_list_mergesort>
   11438:	00040693          	mv	a3,s0
   1143c:	00070813          	mv	a6,a4
   11440:	00000413          	li	s0,0
   11444:	ee9ff06f          	j	1132c <core_list_init+0x84>

00011448 <iterate>:
   11448:	ff010113          	addi	sp,sp,-16
   1144c:	01212023          	sw	s2,0(sp)
   11450:	01c52903          	lw	s2,28(a0)
   11454:	00112623          	sw	ra,12(sp)
   11458:	00812423          	sw	s0,8(sp)
   1145c:	00912223          	sw	s1,4(sp)
   11460:	02052c23          	sw	zero,56(a0)
   11464:	02052e23          	sw	zero,60(a0)
   11468:	04090663          	beqz	s2,114b4 <iterate+0x6c>
   1146c:	00050413          	mv	s0,a0
   11470:	00000493          	li	s1,0
   11474:	00100593          	li	a1,1
   11478:	00040513          	mv	a0,s0
   1147c:	bc9ff0ef          	jal	ra,11044 <core_bench_list>
   11480:	03845583          	lhu	a1,56(s0)
   11484:	214010ef          	jal	ra,12698 <crcu16>
   11488:	02a41c23          	sh	a0,56(s0)
   1148c:	fff00593          	li	a1,-1
   11490:	00040513          	mv	a0,s0
   11494:	bb1ff0ef          	jal	ra,11044 <core_bench_list>
   11498:	03845583          	lhu	a1,56(s0)
   1149c:	1fc010ef          	jal	ra,12698 <crcu16>
   114a0:	02a41c23          	sh	a0,56(s0)
   114a4:	00049463          	bnez	s1,114ac <iterate+0x64>
   114a8:	02a41d23          	sh	a0,58(s0)
   114ac:	00148493          	addi	s1,s1,1
   114b0:	fc9912e3          	bne	s2,s1,11474 <iterate+0x2c>
   114b4:	00c12083          	lw	ra,12(sp)
   114b8:	00812403          	lw	s0,8(sp)
   114bc:	00412483          	lw	s1,4(sp)
   114c0:	00012903          	lw	s2,0(sp)
   114c4:	00000513          	li	a0,0
   114c8:	01010113          	addi	sp,sp,16
   114cc:	00008067          	ret

000114d0 <core_init_matrix>:
   114d0:	fb010113          	addi	sp,sp,-80
   114d4:	04812423          	sw	s0,72(sp)
   114d8:	03312e23          	sw	s3,60(sp)
   114dc:	03912223          	sw	s9,36(sp)
   114e0:	04112623          	sw	ra,76(sp)
   114e4:	04912223          	sw	s1,68(sp)
   114e8:	05212023          	sw	s2,64(sp)
   114ec:	03412c23          	sw	s4,56(sp)
   114f0:	03512a23          	sw	s5,52(sp)
   114f4:	03612823          	sw	s6,48(sp)
   114f8:	03712623          	sw	s7,44(sp)
   114fc:	03812423          	sw	s8,40(sp)
   11500:	03a12023          	sw	s10,32(sp)
   11504:	01b12e23          	sw	s11,28(sp)
   11508:	00050993          	mv	s3,a0
   1150c:	00068c93          	mv	s9,a3
   11510:	00100413          	li	s0,1
   11514:	00060463          	beqz	a2,1151c <core_init_matrix+0x4c>
   11518:	00060413          	mv	s0,a2
   1151c:	fff58b93          	addi	s7,a1,-1
   11520:	ffcbfb93          	andi	s7,s7,-4
   11524:	004b8793          	addi	a5,s7,4
   11528:	00f12223          	sw	a5,4(sp)
   1152c:	00000493          	li	s1,0
   11530:	00099663          	bnez	s3,1153c <core_init_matrix+0x6c>
   11534:	13c0006f          	j	11670 <core_init_matrix+0x1a0>
   11538:	00090493          	mv	s1,s2
   1153c:	00148913          	addi	s2,s1,1
   11540:	00090593          	mv	a1,s2
   11544:	00090513          	mv	a0,s2
   11548:	541010ef          	jal	ra,13288 <__mulsi3>
   1154c:	00351513          	slli	a0,a0,0x3
   11550:	ff3564e3          	bltu	a0,s3,11538 <core_init_matrix+0x68>
   11554:	00048593          	mv	a1,s1
   11558:	00048513          	mv	a0,s1
   1155c:	52d010ef          	jal	ra,13288 <__mulsi3>
   11560:	00412703          	lw	a4,4(sp)
   11564:	00151793          	slli	a5,a0,0x1
   11568:	00f12623          	sw	a5,12(sp)
   1156c:	00912423          	sw	s1,8(sp)
   11570:	00f70bb3          	add	s7,a4,a5
   11574:	08048863          	beqz	s1,11604 <core_init_matrix+0x134>
   11578:	00412783          	lw	a5,4(sp)
   1157c:	00010937          	lui	s2,0x10
   11580:	00149c13          	slli	s8,s1,0x1
   11584:	000b8a93          	mv	s5,s7
   11588:	00000a13          	li	s4,0
   1158c:	00100d93          	li	s11,1
   11590:	417789b3          	sub	s3,a5,s7
   11594:	fff90913          	addi	s2,s2,-1 # ffff <main-0x75>
   11598:	000a8d13          	mv	s10,s5
   1159c:	00000b13          	li	s6,0
   115a0:	000d8593          	mv	a1,s11
   115a4:	00040513          	mv	a0,s0
   115a8:	4e1010ef          	jal	ra,13288 <__mulsi3>
   115ac:	41f55613          	srai	a2,a0,0x1f
   115b0:	01065613          	srli	a2,a2,0x10
   115b4:	00c50433          	add	s0,a0,a2
   115b8:	010d9793          	slli	a5,s11,0x10
   115bc:	01247433          	and	s0,s0,s2
   115c0:	0107d793          	srli	a5,a5,0x10
   115c4:	40c40433          	sub	s0,s0,a2
   115c8:	00878733          	add	a4,a5,s0
   115cc:	01071713          	slli	a4,a4,0x10
   115d0:	01075713          	srli	a4,a4,0x10
   115d4:	00f707b3          	add	a5,a4,a5
   115d8:	00ed1023          	sh	a4,0(s10)
   115dc:	0ff7f793          	andi	a5,a5,255
   115e0:	01a98733          	add	a4,s3,s10
   115e4:	00f71023          	sh	a5,0(a4)
   115e8:	001b0b13          	addi	s6,s6,1
   115ec:	001d8d93          	addi	s11,s11,1
   115f0:	002d0d13          	addi	s10,s10,2
   115f4:	fa9b66e3          	bltu	s6,s1,115a0 <core_init_matrix+0xd0>
   115f8:	001a0a13          	addi	s4,s4,1
   115fc:	018a8ab3          	add	s5,s5,s8
   11600:	f89a6ce3          	bltu	s4,s1,11598 <core_init_matrix+0xc8>
   11604:	00c12783          	lw	a5,12(sp)
   11608:	00412703          	lw	a4,4(sp)
   1160c:	04c12083          	lw	ra,76(sp)
   11610:	00fb87b3          	add	a5,s7,a5
   11614:	fff78793          	addi	a5,a5,-1
   11618:	ffc7f793          	andi	a5,a5,-4
   1161c:	00478793          	addi	a5,a5,4
   11620:	00fca623          	sw	a5,12(s9)
   11624:	00812783          	lw	a5,8(sp)
   11628:	04812403          	lw	s0,72(sp)
   1162c:	017ca423          	sw	s7,8(s9)
   11630:	00eca223          	sw	a4,4(s9)
   11634:	00fca023          	sw	a5,0(s9)
   11638:	00048513          	mv	a0,s1
   1163c:	04012903          	lw	s2,64(sp)
   11640:	04412483          	lw	s1,68(sp)
   11644:	03c12983          	lw	s3,60(sp)
   11648:	03812a03          	lw	s4,56(sp)
   1164c:	03412a83          	lw	s5,52(sp)
   11650:	03012b03          	lw	s6,48(sp)
   11654:	02c12b83          	lw	s7,44(sp)
   11658:	02812c03          	lw	s8,40(sp)
   1165c:	02412c83          	lw	s9,36(sp)
   11660:	02012d03          	lw	s10,32(sp)
   11664:	01c12d83          	lw	s11,28(sp)
   11668:	05010113          	addi	sp,sp,80
   1166c:	00008067          	ret
   11670:	fff00793          	li	a5,-1
   11674:	00f12423          	sw	a5,8(sp)
   11678:	00200793          	li	a5,2
   1167c:	006b8b93          	addi	s7,s7,6
   11680:	fff00493          	li	s1,-1
   11684:	00f12623          	sw	a5,12(sp)
   11688:	ef1ff06f          	j	11578 <core_init_matrix+0xa8>

0001168c <matrix_sum>:
   1168c:	00050f13          	mv	t5,a0
   11690:	08050863          	beqz	a0,11720 <matrix_sum+0x94>
   11694:	40a00eb3          	neg	t4,a0
   11698:	00251893          	slli	a7,a0,0x2
   1169c:	011588b3          	add	a7,a1,a7
   116a0:	002e9f93          	slli	t6,t4,0x2
   116a4:	00000313          	li	t1,0
   116a8:	00000513          	li	a0,0
   116ac:	00000713          	li	a4,0
   116b0:	00000593          	li	a1,0
   116b4:	003e9e93          	slli	t4,t4,0x3
   116b8:	011f8e33          	add	t3,t6,a7
   116bc:	000e0793          	mv	a5,t3
   116c0:	01c0006f          	j	116dc <matrix_sum+0x50>
   116c4:	01081513          	slli	a0,a6,0x10
   116c8:	00478793          	addi	a5,a5,4
   116cc:	41055513          	srai	a0,a0,0x10
   116d0:	00000593          	li	a1,0
   116d4:	00068713          	mv	a4,a3
   116d8:	02f88c63          	beq	a7,a5,11710 <matrix_sum+0x84>
   116dc:	0007a683          	lw	a3,0(a5)
   116e0:	01051513          	slli	a0,a0,0x10
   116e4:	01055513          	srli	a0,a0,0x10
   116e8:	00d72733          	slt	a4,a4,a3
   116ec:	00d585b3          	add	a1,a1,a3
   116f0:	00a50813          	addi	a6,a0,10
   116f4:	00e50533          	add	a0,a0,a4
   116f8:	fcb646e3          	blt	a2,a1,116c4 <matrix_sum+0x38>
   116fc:	01051513          	slli	a0,a0,0x10
   11700:	00478793          	addi	a5,a5,4
   11704:	41055513          	srai	a0,a0,0x10
   11708:	00068713          	mv	a4,a3
   1170c:	fcf898e3          	bne	a7,a5,116dc <matrix_sum+0x50>
   11710:	00130313          	addi	t1,t1,1
   11714:	41de08b3          	sub	a7,t3,t4
   11718:	fa6f10e3          	bne	t5,t1,116b8 <matrix_sum+0x2c>
   1171c:	00008067          	ret
   11720:	00000513          	li	a0,0
   11724:	00008067          	ret

00011728 <matrix_mul_const>:
   11728:	0c050863          	beqz	a0,117f8 <matrix_mul_const+0xd0>
   1172c:	fd010113          	addi	sp,sp,-48
   11730:	03212023          	sw	s2,32(sp)
   11734:	01812423          	sw	s8,8(sp)
   11738:	00151913          	slli	s2,a0,0x1
   1173c:	40a00c33          	neg	s8,a0
   11740:	01312e23          	sw	s3,28(sp)
   11744:	01412c23          	sw	s4,24(sp)
   11748:	01512a23          	sw	s5,20(sp)
   1174c:	01712623          	sw	s7,12(sp)
   11750:	01912223          	sw	s9,4(sp)
   11754:	01a12023          	sw	s10,0(sp)
   11758:	02112623          	sw	ra,44(sp)
   1175c:	001c1d13          	slli	s10,s8,0x1
   11760:	02812423          	sw	s0,40(sp)
   11764:	02912223          	sw	s1,36(sp)
   11768:	01612823          	sw	s6,16(sp)
   1176c:	00068993          	mv	s3,a3
   11770:	00050b93          	mv	s7,a0
   11774:	00251c93          	slli	s9,a0,0x2
   11778:	00058a13          	mv	s4,a1
   1177c:	01260933          	add	s2,a2,s2
   11780:	00000a93          	li	s5,0
   11784:	002c1c13          	slli	s8,s8,0x2
   11788:	012d0b33          	add	s6,s10,s2
   1178c:	000a0493          	mv	s1,s4
   11790:	000b0413          	mv	s0,s6
   11794:	00041503          	lh	a0,0(s0)
   11798:	00098593          	mv	a1,s3
   1179c:	00240413          	addi	s0,s0,2
   117a0:	2e9010ef          	jal	ra,13288 <__mulsi3>
   117a4:	00a4a023          	sw	a0,0(s1)
   117a8:	00448493          	addi	s1,s1,4
   117ac:	ff2414e3          	bne	s0,s2,11794 <matrix_mul_const+0x6c>
   117b0:	001a8a93          	addi	s5,s5,1
   117b4:	019a0a33          	add	s4,s4,s9
   117b8:	418b0933          	sub	s2,s6,s8
   117bc:	fd5b96e3          	bne	s7,s5,11788 <matrix_mul_const+0x60>
   117c0:	02c12083          	lw	ra,44(sp)
   117c4:	02812403          	lw	s0,40(sp)
   117c8:	02412483          	lw	s1,36(sp)
   117cc:	02012903          	lw	s2,32(sp)
   117d0:	01c12983          	lw	s3,28(sp)
   117d4:	01812a03          	lw	s4,24(sp)
   117d8:	01412a83          	lw	s5,20(sp)
   117dc:	01012b03          	lw	s6,16(sp)
   117e0:	00c12b83          	lw	s7,12(sp)
   117e4:	00812c03          	lw	s8,8(sp)
   117e8:	00412c83          	lw	s9,4(sp)
   117ec:	00012d03          	lw	s10,0(sp)
   117f0:	03010113          	addi	sp,sp,48
   117f4:	00008067          	ret
   117f8:	00008067          	ret

000117fc <matrix_add_const>:
   117fc:	04050663          	beqz	a0,11848 <matrix_add_const+0x4c>
   11800:	40a008b3          	neg	a7,a0
   11804:	00151693          	slli	a3,a0,0x1
   11808:	01061613          	slli	a2,a2,0x10
   1180c:	00d586b3          	add	a3,a1,a3
   11810:	00189313          	slli	t1,a7,0x1
   11814:	01065613          	srli	a2,a2,0x10
   11818:	00000593          	li	a1,0
   1181c:	00289893          	slli	a7,a7,0x2
   11820:	00d30833          	add	a6,t1,a3
   11824:	00080793          	mv	a5,a6
   11828:	0007d703          	lhu	a4,0(a5)
   1182c:	00278793          	addi	a5,a5,2
   11830:	00e60733          	add	a4,a2,a4
   11834:	fee79f23          	sh	a4,-2(a5)
   11838:	fef698e3          	bne	a3,a5,11828 <matrix_add_const+0x2c>
   1183c:	00158593          	addi	a1,a1,1
   11840:	411806b3          	sub	a3,a6,a7
   11844:	fcb51ee3          	bne	a0,a1,11820 <matrix_add_const+0x24>
   11848:	00008067          	ret

0001184c <matrix_mul_vect>:
   1184c:	0a050a63          	beqz	a0,11900 <matrix_mul_vect+0xb4>
   11850:	fd010113          	addi	sp,sp,-48
   11854:	01812423          	sw	s8,8(sp)
   11858:	00151c13          	slli	s8,a0,0x1
   1185c:	00251513          	slli	a0,a0,0x2
   11860:	01312e23          	sw	s3,28(sp)
   11864:	01412c23          	sw	s4,24(sp)
   11868:	01512a23          	sw	s5,20(sp)
   1186c:	01612823          	sw	s6,16(sp)
   11870:	01712623          	sw	s7,12(sp)
   11874:	02112623          	sw	ra,44(sp)
   11878:	02812423          	sw	s0,40(sp)
   1187c:	02912223          	sw	s1,36(sp)
   11880:	03212023          	sw	s2,32(sp)
   11884:	00068b93          	mv	s7,a3
   11888:	00058a13          	mv	s4,a1
   1188c:	00060a93          	mv	s5,a2
   11890:	00a58b33          	add	s6,a1,a0
   11894:	018689b3          	add	s3,a3,s8
   11898:	000b8413          	mv	s0,s7
   1189c:	000a8493          	mv	s1,s5
   118a0:	00000913          	li	s2,0
   118a4:	00041583          	lh	a1,0(s0)
   118a8:	00049503          	lh	a0,0(s1)
   118ac:	00240413          	addi	s0,s0,2
   118b0:	00248493          	addi	s1,s1,2
   118b4:	1d5010ef          	jal	ra,13288 <__mulsi3>
   118b8:	00a90933          	add	s2,s2,a0
   118bc:	fe8994e3          	bne	s3,s0,118a4 <matrix_mul_vect+0x58>
   118c0:	012a2023          	sw	s2,0(s4)
   118c4:	004a0a13          	addi	s4,s4,4
   118c8:	018a8ab3          	add	s5,s5,s8
   118cc:	fd4b16e3          	bne	s6,s4,11898 <matrix_mul_vect+0x4c>
   118d0:	02c12083          	lw	ra,44(sp)
   118d4:	02812403          	lw	s0,40(sp)
   118d8:	02412483          	lw	s1,36(sp)
   118dc:	02012903          	lw	s2,32(sp)
   118e0:	01c12983          	lw	s3,28(sp)
   118e4:	01812a03          	lw	s4,24(sp)
   118e8:	01412a83          	lw	s5,20(sp)
   118ec:	01012b03          	lw	s6,16(sp)
   118f0:	00c12b83          	lw	s7,12(sp)
   118f4:	00812c03          	lw	s8,8(sp)
   118f8:	03010113          	addi	sp,sp,48
   118fc:	00008067          	ret
   11900:	00008067          	ret

00011904 <matrix_mul_matrix>:
   11904:	0e050c63          	beqz	a0,119fc <matrix_mul_matrix+0xf8>
   11908:	fb010113          	addi	sp,sp,-80
   1190c:	04912223          	sw	s1,68(sp)
   11910:	00251793          	slli	a5,a0,0x2
   11914:	00151493          	slli	s1,a0,0x1
   11918:	05212023          	sw	s2,64(sp)
   1191c:	03512a23          	sw	s5,52(sp)
   11920:	03612823          	sw	s6,48(sp)
   11924:	03712623          	sw	s7,44(sp)
   11928:	03812423          	sw	s8,40(sp)
   1192c:	03912223          	sw	s9,36(sp)
   11930:	04112623          	sw	ra,76(sp)
   11934:	04812423          	sw	s0,72(sp)
   11938:	03312e23          	sw	s3,60(sp)
   1193c:	03412c23          	sw	s4,56(sp)
   11940:	03a12023          	sw	s10,32(sp)
   11944:	01b12e23          	sw	s11,28(sp)
   11948:	00d12623          	sw	a3,12(sp)
   1194c:	00050c93          	mv	s9,a0
   11950:	00060a93          	mv	s5,a2
   11954:	00960933          	add	s2,a2,s1
   11958:	00f12423          	sw	a5,8(sp)
   1195c:	00058b93          	mv	s7,a1
   11960:	00968b33          	add	s6,a3,s1
   11964:	00000c13          	li	s8,0
   11968:	00c12983          	lw	s3,12(sp)
   1196c:	000b8a13          	mv	s4,s7
   11970:	00098d13          	mv	s10,s3
   11974:	000a8413          	mv	s0,s5
   11978:	00000d93          	li	s11,0
   1197c:	000d1583          	lh	a1,0(s10)
   11980:	00041503          	lh	a0,0(s0)
   11984:	00240413          	addi	s0,s0,2
   11988:	009d0d33          	add	s10,s10,s1
   1198c:	0fd010ef          	jal	ra,13288 <__mulsi3>
   11990:	00ad8db3          	add	s11,s11,a0
   11994:	fe8914e3          	bne	s2,s0,1197c <matrix_mul_matrix+0x78>
   11998:	01ba2023          	sw	s11,0(s4)
   1199c:	00298993          	addi	s3,s3,2
   119a0:	004a0a13          	addi	s4,s4,4
   119a4:	fd3b16e3          	bne	s6,s3,11970 <matrix_mul_matrix+0x6c>
   119a8:	00812783          	lw	a5,8(sp)
   119ac:	001c0c13          	addi	s8,s8,1
   119b0:	009a8ab3          	add	s5,s5,s1
   119b4:	00990933          	add	s2,s2,s1
   119b8:	00fb8bb3          	add	s7,s7,a5
   119bc:	fb8c96e3          	bne	s9,s8,11968 <matrix_mul_matrix+0x64>
   119c0:	04c12083          	lw	ra,76(sp)
   119c4:	04812403          	lw	s0,72(sp)
   119c8:	04412483          	lw	s1,68(sp)
   119cc:	04012903          	lw	s2,64(sp)
   119d0:	03c12983          	lw	s3,60(sp)
   119d4:	03812a03          	lw	s4,56(sp)
   119d8:	03412a83          	lw	s5,52(sp)
   119dc:	03012b03          	lw	s6,48(sp)
   119e0:	02c12b83          	lw	s7,44(sp)
   119e4:	02812c03          	lw	s8,40(sp)
   119e8:	02412c83          	lw	s9,36(sp)
   119ec:	02012d03          	lw	s10,32(sp)
   119f0:	01c12d83          	lw	s11,28(sp)
   119f4:	05010113          	addi	sp,sp,80
   119f8:	00008067          	ret
   119fc:	00008067          	ret

00011a00 <matrix_mul_matrix_bitextract>:
   11a00:	10050663          	beqz	a0,11b0c <matrix_mul_matrix_bitextract+0x10c>
   11a04:	fb010113          	addi	sp,sp,-80
   11a08:	04812423          	sw	s0,72(sp)
   11a0c:	00251793          	slli	a5,a0,0x2
   11a10:	00151413          	slli	s0,a0,0x1
   11a14:	04912223          	sw	s1,68(sp)
   11a18:	03412c23          	sw	s4,56(sp)
   11a1c:	03512a23          	sw	s5,52(sp)
   11a20:	03612823          	sw	s6,48(sp)
   11a24:	03712623          	sw	s7,44(sp)
   11a28:	03812423          	sw	s8,40(sp)
   11a2c:	04112623          	sw	ra,76(sp)
   11a30:	05212023          	sw	s2,64(sp)
   11a34:	03312e23          	sw	s3,60(sp)
   11a38:	03912223          	sw	s9,36(sp)
   11a3c:	03a12023          	sw	s10,32(sp)
   11a40:	01b12e23          	sw	s11,28(sp)
   11a44:	00d12623          	sw	a3,12(sp)
   11a48:	00050c13          	mv	s8,a0
   11a4c:	00060a13          	mv	s4,a2
   11a50:	008604b3          	add	s1,a2,s0
   11a54:	00f12423          	sw	a5,8(sp)
   11a58:	00058b13          	mv	s6,a1
   11a5c:	00868ab3          	add	s5,a3,s0
   11a60:	00000b93          	li	s7,0
   11a64:	00c12903          	lw	s2,12(sp)
   11a68:	000b0993          	mv	s3,s6
   11a6c:	00090c93          	mv	s9,s2
   11a70:	000a0d93          	mv	s11,s4
   11a74:	00000d13          	li	s10,0
   11a78:	000c9583          	lh	a1,0(s9)
   11a7c:	000d9503          	lh	a0,0(s11)
   11a80:	002d8d93          	addi	s11,s11,2
   11a84:	008c8cb3          	add	s9,s9,s0
   11a88:	001010ef          	jal	ra,13288 <__mulsi3>
   11a8c:	40255693          	srai	a3,a0,0x2
   11a90:	40555593          	srai	a1,a0,0x5
   11a94:	07f5f593          	andi	a1,a1,127
   11a98:	00f6f513          	andi	a0,a3,15
   11a9c:	7ec010ef          	jal	ra,13288 <__mulsi3>
   11aa0:	00ad0d33          	add	s10,s10,a0
   11aa4:	fdb49ae3          	bne	s1,s11,11a78 <matrix_mul_matrix_bitextract+0x78>
   11aa8:	01a9a023          	sw	s10,0(s3)
   11aac:	00290913          	addi	s2,s2,2
   11ab0:	00498993          	addi	s3,s3,4
   11ab4:	fb2a9ce3          	bne	s5,s2,11a6c <matrix_mul_matrix_bitextract+0x6c>
   11ab8:	00812783          	lw	a5,8(sp)
   11abc:	001b8b93          	addi	s7,s7,1
   11ac0:	008a0a33          	add	s4,s4,s0
   11ac4:	008484b3          	add	s1,s1,s0
   11ac8:	00fb0b33          	add	s6,s6,a5
   11acc:	f97c1ce3          	bne	s8,s7,11a64 <matrix_mul_matrix_bitextract+0x64>
   11ad0:	04c12083          	lw	ra,76(sp)
   11ad4:	04812403          	lw	s0,72(sp)
   11ad8:	04412483          	lw	s1,68(sp)
   11adc:	04012903          	lw	s2,64(sp)
   11ae0:	03c12983          	lw	s3,60(sp)
   11ae4:	03812a03          	lw	s4,56(sp)
   11ae8:	03412a83          	lw	s5,52(sp)
   11aec:	03012b03          	lw	s6,48(sp)
   11af0:	02c12b83          	lw	s7,44(sp)
   11af4:	02812c03          	lw	s8,40(sp)
   11af8:	02412c83          	lw	s9,36(sp)
   11afc:	02012d03          	lw	s10,32(sp)
   11b00:	01c12d83          	lw	s11,28(sp)
   11b04:	05010113          	addi	sp,sp,80
   11b08:	00008067          	ret
   11b0c:	00008067          	ret

00011b10 <matrix_test>:
   11b10:	f9010113          	addi	sp,sp,-112
   11b14:	05a12023          	sw	s10,64(sp)
   11b18:	fffff7b7          	lui	a5,0xfffff
   11b1c:	06112623          	sw	ra,108(sp)
   11b20:	06812423          	sw	s0,104(sp)
   11b24:	06912223          	sw	s1,100(sp)
   11b28:	07212023          	sw	s2,96(sp)
   11b2c:	05312e23          	sw	s3,92(sp)
   11b30:	05412c23          	sw	s4,88(sp)
   11b34:	05512a23          	sw	s5,84(sp)
   11b38:	05612823          	sw	s6,80(sp)
   11b3c:	05712623          	sw	s7,76(sp)
   11b40:	05812423          	sw	s8,72(sp)
   11b44:	05912223          	sw	s9,68(sp)
   11b48:	03b12e23          	sw	s11,60(sp)
   11b4c:	02b12023          	sw	a1,32(sp)
   11b50:	02c12223          	sw	a2,36(sp)
   11b54:	02d12423          	sw	a3,40(sp)
   11b58:	00f76d33          	or	s10,a4,a5
   11b5c:	3c050863          	beqz	a0,11f2c <matrix_test+0x41c>
   11b60:	00151793          	slli	a5,a0,0x1
   11b64:	00050813          	mv	a6,a0
   11b68:	40a00533          	neg	a0,a0
   11b6c:	00f604b3          	add	s1,a2,a5
   11b70:	00f12e23          	sw	a5,28(sp)
   11b74:	01071413          	slli	s0,a4,0x10
   11b78:	00151793          	slli	a5,a0,0x1
   11b7c:	00060b13          	mv	s6,a2
   11b80:	00070913          	mv	s2,a4
   11b84:	01045413          	srli	s0,s0,0x10
   11b88:	00f12823          	sw	a5,16(sp)
   11b8c:	00048613          	mv	a2,s1
   11b90:	00000993          	li	s3,0
   11b94:	00251513          	slli	a0,a0,0x2
   11b98:	01012783          	lw	a5,16(sp)
   11b9c:	00c785b3          	add	a1,a5,a2
   11ba0:	00058713          	mv	a4,a1
   11ba4:	00075683          	lhu	a3,0(a4)
   11ba8:	00270713          	addi	a4,a4,2
   11bac:	00d406b3          	add	a3,s0,a3
   11bb0:	fed71f23          	sh	a3,-2(a4)
   11bb4:	fee618e3          	bne	a2,a4,11ba4 <matrix_test+0x94>
   11bb8:	00198d93          	addi	s11,s3,1
   11bbc:	40a58633          	sub	a2,a1,a0
   11bc0:	01b80663          	beq	a6,s11,11bcc <matrix_test+0xbc>
   11bc4:	000d8993          	mv	s3,s11
   11bc8:	fd1ff06f          	j	11b98 <matrix_test+0x88>
   11bcc:	02012c03          	lw	s8,32(sp)
   11bd0:	41b007b3          	neg	a5,s11
   11bd4:	02f12623          	sw	a5,44(sp)
   11bd8:	002d9a13          	slli	s4,s11,0x2
   11bdc:	01812623          	sw	s8,12(sp)
   11be0:	00012c23          	sw	zero,24(sp)
   11be4:	00279b93          	slli	s7,a5,0x2
   11be8:	01012783          	lw	a5,16(sp)
   11bec:	000c0a93          	mv	s5,s8
   11bf0:	00f487b3          	add	a5,s1,a5
   11bf4:	00f12a23          	sw	a5,20(sp)
   11bf8:	00078c93          	mv	s9,a5
   11bfc:	000c9503          	lh	a0,0(s9)
   11c00:	00090593          	mv	a1,s2
   11c04:	002c8c93          	addi	s9,s9,2
   11c08:	680010ef          	jal	ra,13288 <__mulsi3>
   11c0c:	00aaa023          	sw	a0,0(s5)
   11c10:	004a8a93          	addi	s5,s5,4
   11c14:	ff9494e3          	bne	s1,s9,11bfc <matrix_test+0xec>
   11c18:	01812783          	lw	a5,24(sp)
   11c1c:	01412703          	lw	a4,20(sp)
   11c20:	014c0c33          	add	s8,s8,s4
   11c24:	00178693          	addi	a3,a5,1 # fffff001 <__global_pointer$+0xfffd8d91>
   11c28:	417704b3          	sub	s1,a4,s7
   11c2c:	01378663          	beq	a5,s3,11c38 <matrix_test+0x128>
   11c30:	00d12c23          	sw	a3,24(sp)
   11c34:	fb5ff06f          	j	11be8 <matrix_test+0xd8>
   11c38:	02012783          	lw	a5,32(sp)
   11c3c:	00000513          	li	a0,0
   11c40:	00000613          	li	a2,0
   11c44:	014784b3          	add	s1,a5,s4
   11c48:	02c12783          	lw	a5,44(sp)
   11c4c:	00048313          	mv	t1,s1
   11c50:	00000813          	li	a6,0
   11c54:	00000e93          	li	t4,0
   11c58:	00379913          	slli	s2,a5,0x3
   11c5c:	01730e33          	add	t3,t1,s7
   11c60:	000e0693          	mv	a3,t3
   11c64:	01c0006f          	j	11c80 <matrix_test+0x170>
   11c68:	01089513          	slli	a0,a7,0x10
   11c6c:	00468693          	addi	a3,a3,4
   11c70:	41055513          	srai	a0,a0,0x10
   11c74:	00000813          	li	a6,0
   11c78:	00058613          	mv	a2,a1
   11c7c:	02d30c63          	beq	t1,a3,11cb4 <matrix_test+0x1a4>
   11c80:	0006a583          	lw	a1,0(a3)
   11c84:	01051513          	slli	a0,a0,0x10
   11c88:	01055513          	srli	a0,a0,0x10
   11c8c:	00b62633          	slt	a2,a2,a1
   11c90:	00b80833          	add	a6,a6,a1
   11c94:	00a50893          	addi	a7,a0,10
   11c98:	00c50533          	add	a0,a0,a2
   11c9c:	fd0d46e3          	blt	s10,a6,11c68 <matrix_test+0x158>
   11ca0:	01051513          	slli	a0,a0,0x10
   11ca4:	00468693          	addi	a3,a3,4
   11ca8:	41055513          	srai	a0,a0,0x10
   11cac:	00058613          	mv	a2,a1
   11cb0:	fcd318e3          	bne	t1,a3,11c80 <matrix_test+0x170>
   11cb4:	001e8693          	addi	a3,t4,1
   11cb8:	412e0333          	sub	t1,t3,s2
   11cbc:	013e8663          	beq	t4,s3,11cc8 <matrix_test+0x1b8>
   11cc0:	00068e93          	mv	t4,a3
   11cc4:	f99ff06f          	j	11c5c <matrix_test+0x14c>
   11cc8:	00000593          	li	a1,0
   11ccc:	281000ef          	jal	ra,1274c <crc16>
   11cd0:	02412603          	lw	a2,36(sp)
   11cd4:	02812683          	lw	a3,40(sp)
   11cd8:	02012583          	lw	a1,32(sp)
   11cdc:	00050c13          	mv	s8,a0
   11ce0:	000d8513          	mv	a0,s11
   11ce4:	b69ff0ef          	jal	ra,1184c <matrix_mul_vect>
   11ce8:	00000513          	li	a0,0
   11cec:	00000613          	li	a2,0
   11cf0:	00000813          	li	a6,0
   11cf4:	00000e13          	li	t3,0
   11cf8:	01748333          	add	t1,s1,s7
   11cfc:	00030693          	mv	a3,t1
   11d00:	01c0006f          	j	11d1c <matrix_test+0x20c>
   11d04:	01089513          	slli	a0,a7,0x10
   11d08:	00468693          	addi	a3,a3,4
   11d0c:	41055513          	srai	a0,a0,0x10
   11d10:	00000813          	li	a6,0
   11d14:	00058613          	mv	a2,a1
   11d18:	02d48c63          	beq	s1,a3,11d50 <matrix_test+0x240>
   11d1c:	0006a583          	lw	a1,0(a3)
   11d20:	01051513          	slli	a0,a0,0x10
   11d24:	01055513          	srli	a0,a0,0x10
   11d28:	00b62633          	slt	a2,a2,a1
   11d2c:	00b80833          	add	a6,a6,a1
   11d30:	00a50893          	addi	a7,a0,10
   11d34:	00c50533          	add	a0,a0,a2
   11d38:	fd0d46e3          	blt	s10,a6,11d04 <matrix_test+0x1f4>
   11d3c:	01051513          	slli	a0,a0,0x10
   11d40:	00468693          	addi	a3,a3,4
   11d44:	41055513          	srai	a0,a0,0x10
   11d48:	00058613          	mv	a2,a1
   11d4c:	fcd498e3          	bne	s1,a3,11d1c <matrix_test+0x20c>
   11d50:	001e0693          	addi	a3,t3,1
   11d54:	412304b3          	sub	s1,t1,s2
   11d58:	013e0663          	beq	t3,s3,11d64 <matrix_test+0x254>
   11d5c:	00068e13          	mv	t3,a3
   11d60:	f99ff06f          	j	11cf8 <matrix_test+0x1e8>
   11d64:	000c0593          	mv	a1,s8
   11d68:	1e5000ef          	jal	ra,1274c <crc16>
   11d6c:	02012903          	lw	s2,32(sp)
   11d70:	02812683          	lw	a3,40(sp)
   11d74:	02412603          	lw	a2,36(sp)
   11d78:	00090593          	mv	a1,s2
   11d7c:	00050493          	mv	s1,a0
   11d80:	000d8513          	mv	a0,s11
   11d84:	b81ff0ef          	jal	ra,11904 <matrix_mul_matrix>
   11d88:	00090e93          	mv	t4,s2
   11d8c:	00000513          	li	a0,0
   11d90:	00000693          	li	a3,0
   11d94:	00000593          	li	a1,0
   11d98:	00000e13          	li	t3,0
   11d9c:	000e8893          	mv	a7,t4
   11da0:	00000813          	li	a6,0
   11da4:	0200006f          	j	11dc4 <matrix_test+0x2b4>
   11da8:	01031513          	slli	a0,t1,0x10
   11dac:	00180813          	addi	a6,a6,1
   11db0:	41055513          	srai	a0,a0,0x10
   11db4:	00000593          	li	a1,0
   11db8:	00488893          	addi	a7,a7,4
   11dbc:	00060693          	mv	a3,a2
   11dc0:	03b87e63          	bleu	s11,a6,11dfc <matrix_test+0x2ec>
   11dc4:	0008a603          	lw	a2,0(a7)
   11dc8:	01051513          	slli	a0,a0,0x10
   11dcc:	01055513          	srli	a0,a0,0x10
   11dd0:	00c6a6b3          	slt	a3,a3,a2
   11dd4:	00c585b3          	add	a1,a1,a2
   11dd8:	00a50313          	addi	t1,a0,10
   11ddc:	00d50533          	add	a0,a0,a3
   11de0:	fcbd44e3          	blt	s10,a1,11da8 <matrix_test+0x298>
   11de4:	01051513          	slli	a0,a0,0x10
   11de8:	00180813          	addi	a6,a6,1
   11dec:	41055513          	srai	a0,a0,0x10
   11df0:	00488893          	addi	a7,a7,4
   11df4:	00060693          	mv	a3,a2
   11df8:	fdb866e3          	bltu	a6,s11,11dc4 <matrix_test+0x2b4>
   11dfc:	001e0e13          	addi	t3,t3,1
   11e00:	014e8eb3          	add	t4,t4,s4
   11e04:	f9be6ce3          	bltu	t3,s11,11d9c <matrix_test+0x28c>
   11e08:	00048593          	mv	a1,s1
   11e0c:	141000ef          	jal	ra,1274c <crc16>
   11e10:	02812683          	lw	a3,40(sp)
   11e14:	02012583          	lw	a1,32(sp)
   11e18:	02412603          	lw	a2,36(sp)
   11e1c:	00050493          	mv	s1,a0
   11e20:	000d8513          	mv	a0,s11
   11e24:	bddff0ef          	jal	ra,11a00 <matrix_mul_matrix_bitextract>
   11e28:	00000513          	li	a0,0
   11e2c:	00000693          	li	a3,0
   11e30:	00000593          	li	a1,0
   11e34:	00000e13          	li	t3,0
   11e38:	00c12883          	lw	a7,12(sp)
   11e3c:	00000813          	li	a6,0
   11e40:	0200006f          	j	11e60 <matrix_test+0x350>
   11e44:	01031513          	slli	a0,t1,0x10
   11e48:	00180813          	addi	a6,a6,1
   11e4c:	41055513          	srai	a0,a0,0x10
   11e50:	00000593          	li	a1,0
   11e54:	00488893          	addi	a7,a7,4
   11e58:	00060693          	mv	a3,a2
   11e5c:	03b87e63          	bleu	s11,a6,11e98 <matrix_test+0x388>
   11e60:	0008a603          	lw	a2,0(a7)
   11e64:	01051513          	slli	a0,a0,0x10
   11e68:	01055513          	srli	a0,a0,0x10
   11e6c:	00c6a6b3          	slt	a3,a3,a2
   11e70:	00c585b3          	add	a1,a1,a2
   11e74:	00a50313          	addi	t1,a0,10
   11e78:	00d50533          	add	a0,a0,a3
   11e7c:	fcbd44e3          	blt	s10,a1,11e44 <matrix_test+0x334>
   11e80:	01051513          	slli	a0,a0,0x10
   11e84:	00180813          	addi	a6,a6,1
   11e88:	41055513          	srai	a0,a0,0x10
   11e8c:	00488893          	addi	a7,a7,4
   11e90:	00060693          	mv	a3,a2
   11e94:	fdb866e3          	bltu	a6,s11,11e60 <matrix_test+0x350>
   11e98:	00c12783          	lw	a5,12(sp)
   11e9c:	001e0e13          	addi	t3,t3,1
   11ea0:	014787b3          	add	a5,a5,s4
   11ea4:	00f12623          	sw	a5,12(sp)
   11ea8:	f9be68e3          	bltu	t3,s11,11e38 <matrix_test+0x328>
   11eac:	00048593          	mv	a1,s1
   11eb0:	09d000ef          	jal	ra,1274c <crc16>
   11eb4:	00000593          	li	a1,0
   11eb8:	000b0793          	mv	a5,s6
   11ebc:	00000613          	li	a2,0
   11ec0:	0007d683          	lhu	a3,0(a5)
   11ec4:	00278793          	addi	a5,a5,2
   11ec8:	00160613          	addi	a2,a2,1
   11ecc:	408686b3          	sub	a3,a3,s0
   11ed0:	fed79f23          	sh	a3,-2(a5)
   11ed4:	ffb666e3          	bltu	a2,s11,11ec0 <matrix_test+0x3b0>
   11ed8:	01c12783          	lw	a5,28(sp)
   11edc:	00158593          	addi	a1,a1,1
   11ee0:	00fb0b33          	add	s6,s6,a5
   11ee4:	fdb5eae3          	bltu	a1,s11,11eb8 <matrix_test+0x3a8>
   11ee8:	06c12083          	lw	ra,108(sp)
   11eec:	06812403          	lw	s0,104(sp)
   11ef0:	01051513          	slli	a0,a0,0x10
   11ef4:	06412483          	lw	s1,100(sp)
   11ef8:	06012903          	lw	s2,96(sp)
   11efc:	05c12983          	lw	s3,92(sp)
   11f00:	05812a03          	lw	s4,88(sp)
   11f04:	05412a83          	lw	s5,84(sp)
   11f08:	05012b03          	lw	s6,80(sp)
   11f0c:	04c12b83          	lw	s7,76(sp)
   11f10:	04812c03          	lw	s8,72(sp)
   11f14:	04412c83          	lw	s9,68(sp)
   11f18:	04012d03          	lw	s10,64(sp)
   11f1c:	03c12d83          	lw	s11,60(sp)
   11f20:	41055513          	srai	a0,a0,0x10
   11f24:	07010113          	addi	sp,sp,112
   11f28:	00008067          	ret
   11f2c:	00000593          	li	a1,0
   11f30:	01d000ef          	jal	ra,1274c <crc16>
   11f34:	02812983          	lw	s3,40(sp)
   11f38:	02412903          	lw	s2,36(sp)
   11f3c:	02012483          	lw	s1,32(sp)
   11f40:	00098693          	mv	a3,s3
   11f44:	00090613          	mv	a2,s2
   11f48:	00050413          	mv	s0,a0
   11f4c:	00048593          	mv	a1,s1
   11f50:	00000513          	li	a0,0
   11f54:	8f9ff0ef          	jal	ra,1184c <matrix_mul_vect>
   11f58:	00040593          	mv	a1,s0
   11f5c:	00000513          	li	a0,0
   11f60:	7ec000ef          	jal	ra,1274c <crc16>
   11f64:	00098693          	mv	a3,s3
   11f68:	00090613          	mv	a2,s2
   11f6c:	00050413          	mv	s0,a0
   11f70:	00048593          	mv	a1,s1
   11f74:	00000513          	li	a0,0
   11f78:	98dff0ef          	jal	ra,11904 <matrix_mul_matrix>
   11f7c:	00040593          	mv	a1,s0
   11f80:	00000513          	li	a0,0
   11f84:	7c8000ef          	jal	ra,1274c <crc16>
   11f88:	00050413          	mv	s0,a0
   11f8c:	00048593          	mv	a1,s1
   11f90:	00098693          	mv	a3,s3
   11f94:	00090613          	mv	a2,s2
   11f98:	00000513          	li	a0,0
   11f9c:	a65ff0ef          	jal	ra,11a00 <matrix_mul_matrix_bitextract>
   11fa0:	00040593          	mv	a1,s0
   11fa4:	00000513          	li	a0,0
   11fa8:	7a4000ef          	jal	ra,1274c <crc16>
   11fac:	f3dff06f          	j	11ee8 <matrix_test+0x3d8>

00011fb0 <core_bench_matrix>:
   11fb0:	ff010113          	addi	sp,sp,-16
   11fb4:	00812423          	sw	s0,8(sp)
   11fb8:	00058713          	mv	a4,a1
   11fbc:	00060413          	mv	s0,a2
   11fc0:	00c52583          	lw	a1,12(a0)
   11fc4:	00852683          	lw	a3,8(a0)
   11fc8:	00452603          	lw	a2,4(a0)
   11fcc:	00052503          	lw	a0,0(a0)
   11fd0:	00112623          	sw	ra,12(sp)
   11fd4:	b3dff0ef          	jal	ra,11b10 <matrix_test>
   11fd8:	00040593          	mv	a1,s0
   11fdc:	00812403          	lw	s0,8(sp)
   11fe0:	00c12083          	lw	ra,12(sp)
   11fe4:	01010113          	addi	sp,sp,16
   11fe8:	7640006f          	j	1274c <crc16>

00011fec <core_init_state>:
   11fec:	00000f13          	li	t5,0
   11ff0:	00000e93          	li	t4,0
   11ff4:	00158593          	addi	a1,a1,1
   11ff8:	01ee8fb3          	add	t6,t4,t5
   11ffc:	01059593          	slli	a1,a1,0x10
   12000:	00024837          	lui	a6,0x24
   12004:	00024337          	lui	t1,0x24
   12008:	fff50693          	addi	a3,a0,-1
   1200c:	001f8293          	addi	t0,t6,1
   12010:	0105d593          	srli	a1,a1,0x10
   12014:	00000793          	li	a5,0
   12018:	02c00e13          	li	t3,44
   1201c:	00400893          	li	a7,4
   12020:	0d880813          	addi	a6,a6,216 # 240d8 <intpat>
   12024:	0c430313          	addi	t1,t1,196 # 240c4 <state_known_crc+0x43c>
   12028:	04d2fe63          	bleu	a3,t0,12084 <core_init_state+0x98>
   1202c:	080f1663          	bnez	t5,120b8 <core_init_state+0xcc>
   12030:	0075f793          	andi	a5,a1,7
   12034:	ffd78793          	addi	a5,a5,-3
   12038:	01079793          	slli	a5,a5,0x10
   1203c:	0035d713          	srli	a4,a1,0x3
   12040:	0107d793          	srli	a5,a5,0x10
   12044:	00377713          	andi	a4,a4,3
   12048:	0af8ea63          	bltu	a7,a5,120fc <core_init_state+0x110>
   1204c:	00279793          	slli	a5,a5,0x2
   12050:	006787b3          	add	a5,a5,t1
   12054:	0007a783          	lw	a5,0(a5)
   12058:	00271713          	slli	a4,a4,0x2
   1205c:	00e80733          	add	a4,a6,a4
   12060:	00078067          	jr	a5
   12064:	01072783          	lw	a5,16(a4)
   12068:	00800f13          	li	t5,8
   1206c:	00158593          	addi	a1,a1,1
   12070:	01ee8fb3          	add	t6,t4,t5
   12074:	01059593          	slli	a1,a1,0x10
   12078:	001f8293          	addi	t0,t6,1
   1207c:	0105d593          	srli	a1,a1,0x10
   12080:	fad2e6e3          	bltu	t0,a3,1202c <core_init_state+0x40>
   12084:	01d607b3          	add	a5,a2,t4
   12088:	00a60633          	add	a2,a2,a0
   1208c:	00aef863          	bleu	a0,t4,1209c <core_init_state+0xb0>
   12090:	00078023          	sb	zero,0(a5)
   12094:	00178793          	addi	a5,a5,1
   12098:	fef61ce3          	bne	a2,a5,12090 <core_init_state+0xa4>
   1209c:	00008067          	ret
   120a0:	02072783          	lw	a5,32(a4)
   120a4:	00800f13          	li	t5,8
   120a8:	fc5ff06f          	j	1206c <core_init_state+0x80>
   120ac:	03072783          	lw	a5,48(a4)
   120b0:	00800f13          	li	t5,8
   120b4:	fb9ff06f          	j	1206c <core_init_state+0x80>
   120b8:	01d60733          	add	a4,a2,t4
   120bc:	01e78f33          	add	t5,a5,t5
   120c0:	0007ce83          	lbu	t4,0(a5)
   120c4:	00170713          	addi	a4,a4,1
   120c8:	00178793          	addi	a5,a5,1
   120cc:	ffd70fa3          	sb	t4,-1(a4)
   120d0:	feff18e3          	bne	t5,a5,120c0 <core_init_state+0xd4>
   120d4:	0075f793          	andi	a5,a1,7
   120d8:	ffd78793          	addi	a5,a5,-3
   120dc:	01f60fb3          	add	t6,a2,t6
   120e0:	01079793          	slli	a5,a5,0x10
   120e4:	0035d713          	srli	a4,a1,0x3
   120e8:	01cf8023          	sb	t3,0(t6)
   120ec:	0107d793          	srli	a5,a5,0x10
   120f0:	00028e93          	mv	t4,t0
   120f4:	00377713          	andi	a4,a4,3
   120f8:	f4f8fae3          	bleu	a5,a7,1204c <core_init_state+0x60>
   120fc:	00271713          	slli	a4,a4,0x2
   12100:	00e80733          	add	a4,a6,a4
   12104:	00072783          	lw	a5,0(a4)
   12108:	00400f13          	li	t5,4
   1210c:	f61ff06f          	j	1206c <core_init_state+0x80>

00012110 <core_state_transition>:
   12110:	00052783          	lw	a5,0(a0)
   12114:	0007c683          	lbu	a3,0(a5)
   12118:	2e068863          	beqz	a3,12408 <core_state_transition+0x2f8>
   1211c:	02c00813          	li	a6,44
   12120:	00178713          	addi	a4,a5,1
   12124:	2b068e63          	beq	a3,a6,123e0 <core_state_transition+0x2d0>
   12128:	0005a883          	lw	a7,0(a1)
   1212c:	fd068613          	addi	a2,a3,-48
   12130:	0ff67613          	andi	a2,a2,255
   12134:	00900313          	li	t1,9
   12138:	00188893          	addi	a7,a7,1
   1213c:	0ac36c63          	bltu	t1,a2,121f4 <core_state_transition+0xe4>
   12140:	0115a023          	sw	a7,0(a1)
   12144:	0017c683          	lbu	a3,1(a5)
   12148:	16068463          	beqz	a3,122b0 <core_state_transition+0x1a0>
   1214c:	00278793          	addi	a5,a5,2
   12150:	15068e63          	beq	a3,a6,122ac <core_state_transition+0x19c>
   12154:	fd068613          	addi	a2,a3,-48
   12158:	02e00813          	li	a6,46
   1215c:	00900893          	li	a7,9
   12160:	02c00313          	li	t1,44
   12164:	0ff67613          	andi	a2,a2,255
   12168:	03068663          	beq	a3,a6,12194 <core_state_transition+0x84>
   1216c:	0cc8e063          	bltu	a7,a2,1222c <core_state_transition+0x11c>
   12170:	00174683          	lbu	a3,1(a4)
   12174:	00178613          	addi	a2,a5,1
   12178:	00078713          	mv	a4,a5
   1217c:	12068863          	beqz	a3,122ac <core_state_transition+0x19c>
   12180:	2a668a63          	beq	a3,t1,12434 <core_state_transition+0x324>
   12184:	00060793          	mv	a5,a2
   12188:	fd068613          	addi	a2,a3,-48
   1218c:	0ff67613          	andi	a2,a2,255
   12190:	fd069ee3          	bne	a3,a6,1216c <core_state_transition+0x5c>
   12194:	0105a683          	lw	a3,16(a1)
   12198:	00168693          	addi	a3,a3,1
   1219c:	00d5a823          	sw	a3,16(a1)
   121a0:	00174683          	lbu	a3,1(a4)
   121a4:	28068263          	beqz	a3,12428 <core_state_transition+0x318>
   121a8:	02c00713          	li	a4,44
   121ac:	00178613          	addi	a2,a5,1
   121b0:	22e68263          	beq	a3,a4,123d4 <core_state_transition+0x2c4>
   121b4:	04500813          	li	a6,69
   121b8:	00900893          	li	a7,9
   121bc:	02c00313          	li	t1,44
   121c0:	fd068713          	addi	a4,a3,-48
   121c4:	0df6f693          	andi	a3,a3,223
   121c8:	0ff77713          	andi	a4,a4,255
   121cc:	0f068663          	beq	a3,a6,122b8 <core_state_transition+0x1a8>
   121d0:	1ae8fa63          	bleu	a4,a7,12384 <core_state_transition+0x274>
   121d4:	0145a683          	lw	a3,20(a1)
   121d8:	00060713          	mv	a4,a2
   121dc:	00100793          	li	a5,1
   121e0:	00168693          	addi	a3,a3,1
   121e4:	00d5aa23          	sw	a3,20(a1)
   121e8:	00e52023          	sw	a4,0(a0)
   121ec:	00078513          	mv	a0,a5
   121f0:	00008067          	ret
   121f4:	02b00613          	li	a2,43
   121f8:	04c68a63          	beq	a3,a2,1224c <core_state_transition+0x13c>
   121fc:	02d00613          	li	a2,45
   12200:	04c68663          	beq	a3,a2,1224c <core_state_transition+0x13c>
   12204:	02e00613          	li	a2,46
   12208:	18c68c63          	beq	a3,a2,123a0 <core_state_transition+0x290>
   1220c:	0045a683          	lw	a3,4(a1)
   12210:	0115a023          	sw	a7,0(a1)
   12214:	00100793          	li	a5,1
   12218:	00168693          	addi	a3,a3,1
   1221c:	00d5a223          	sw	a3,4(a1)
   12220:	00e52023          	sw	a4,0(a0)
   12224:	00078513          	mv	a0,a5
   12228:	00008067          	ret
   1222c:	0105a683          	lw	a3,16(a1)
   12230:	00078713          	mv	a4,a5
   12234:	00100793          	li	a5,1
   12238:	00168693          	addi	a3,a3,1
   1223c:	00d5a823          	sw	a3,16(a1)
   12240:	00e52023          	sw	a4,0(a0)
   12244:	00078513          	mv	a0,a5
   12248:	00008067          	ret
   1224c:	0115a023          	sw	a7,0(a1)
   12250:	0017c883          	lbu	a7,1(a5)
   12254:	1c088063          	beqz	a7,12414 <core_state_transition+0x304>
   12258:	00278713          	addi	a4,a5,2
   1225c:	1b088c63          	beq	a7,a6,12414 <core_state_transition+0x304>
   12260:	0085a603          	lw	a2,8(a1)
   12264:	fd088693          	addi	a3,a7,-48
   12268:	0ff6f693          	andi	a3,a3,255
   1226c:	00900813          	li	a6,9
   12270:	00160613          	addi	a2,a2,1
   12274:	02d87063          	bleu	a3,a6,12294 <core_state_transition+0x184>
   12278:	02e00693          	li	a3,46
   1227c:	14d88063          	beq	a7,a3,123bc <core_state_transition+0x2ac>
   12280:	00c5a423          	sw	a2,8(a1)
   12284:	00100793          	li	a5,1
   12288:	00e52023          	sw	a4,0(a0)
   1228c:	00078513          	mv	a0,a5
   12290:	00008067          	ret
   12294:	00c5a423          	sw	a2,8(a1)
   12298:	0027c683          	lbu	a3,2(a5)
   1229c:	00068a63          	beqz	a3,122b0 <core_state_transition+0x1a0>
   122a0:	02c00613          	li	a2,44
   122a4:	00170793          	addi	a5,a4,1
   122a8:	eac696e3          	bne	a3,a2,12154 <core_state_transition+0x44>
   122ac:	00078713          	mv	a4,a5
   122b0:	00400793          	li	a5,4
   122b4:	f8dff06f          	j	12240 <core_state_transition+0x130>
   122b8:	0145a703          	lw	a4,20(a1)
   122bc:	00170713          	addi	a4,a4,1
   122c0:	00e5aa23          	sw	a4,20(a1)
   122c4:	0017c783          	lbu	a5,1(a5)
   122c8:	12078a63          	beqz	a5,123fc <core_state_transition+0x2ec>
   122cc:	02c00813          	li	a6,44
   122d0:	00160713          	addi	a4,a2,1
   122d4:	13078663          	beq	a5,a6,12400 <core_state_transition+0x2f0>
   122d8:	00c5a683          	lw	a3,12(a1)
   122dc:	fd578793          	addi	a5,a5,-43
   122e0:	0fd7f793          	andi	a5,a5,253
   122e4:	00168693          	addi	a3,a3,1
   122e8:	00d5a623          	sw	a3,12(a1)
   122ec:	00078a63          	beqz	a5,12300 <core_state_transition+0x1f0>
   122f0:	00100793          	li	a5,1
   122f4:	00e52023          	sw	a4,0(a0)
   122f8:	00078513          	mv	a0,a5
   122fc:	00008067          	ret
   12300:	00164783          	lbu	a5,1(a2)
   12304:	0e078863          	beqz	a5,123f4 <core_state_transition+0x2e4>
   12308:	00260713          	addi	a4,a2,2
   1230c:	0f078463          	beq	a5,a6,123f4 <core_state_transition+0x2e4>
   12310:	0185a683          	lw	a3,24(a1)
   12314:	fd078793          	addi	a5,a5,-48
   12318:	0ff7f793          	andi	a5,a5,255
   1231c:	00168693          	addi	a3,a3,1
   12320:	00900893          	li	a7,9
   12324:	00d5ac23          	sw	a3,24(a1)
   12328:	fcf8e4e3          	bltu	a7,a5,122f0 <core_state_transition+0x1e0>
   1232c:	00264683          	lbu	a3,2(a2)
   12330:	0a068e63          	beqz	a3,123ec <core_state_transition+0x2dc>
   12334:	00360793          	addi	a5,a2,3
   12338:	0b068863          	beq	a3,a6,123e8 <core_state_transition+0x2d8>
   1233c:	00900613          	li	a2,9
   12340:	02c00893          	li	a7,44
   12344:	fd068693          	addi	a3,a3,-48
   12348:	0ff6f693          	andi	a3,a3,255
   1234c:	00d67e63          	bleu	a3,a2,12368 <core_state_transition+0x258>
   12350:	0045a683          	lw	a3,4(a1)
   12354:	00078713          	mv	a4,a5
   12358:	00100793          	li	a5,1
   1235c:	00168693          	addi	a3,a3,1
   12360:	00d5a223          	sw	a3,4(a1)
   12364:	eddff06f          	j	12240 <core_state_transition+0x130>
   12368:	00174683          	lbu	a3,1(a4)
   1236c:	00178813          	addi	a6,a5,1
   12370:	00078713          	mv	a4,a5
   12374:	06068a63          	beqz	a3,123e8 <core_state_transition+0x2d8>
   12378:	0b168263          	beq	a3,a7,1241c <core_state_transition+0x30c>
   1237c:	00080793          	mv	a5,a6
   12380:	fc5ff06f          	j	12344 <core_state_transition+0x234>
   12384:	0017c683          	lbu	a3,1(a5)
   12388:	00160713          	addi	a4,a2,1
   1238c:	00060793          	mv	a5,a2
   12390:	04068263          	beqz	a3,123d4 <core_state_transition+0x2c4>
   12394:	04668263          	beq	a3,t1,123d8 <core_state_transition+0x2c8>
   12398:	00070613          	mv	a2,a4
   1239c:	e25ff06f          	j	121c0 <core_state_transition+0xb0>
   123a0:	0115a023          	sw	a7,0(a1)
   123a4:	0017c683          	lbu	a3,1(a5)
   123a8:	02068863          	beqz	a3,123d8 <core_state_transition+0x2c8>
   123ac:	00278613          	addi	a2,a5,2
   123b0:	03068263          	beq	a3,a6,123d4 <core_state_transition+0x2c4>
   123b4:	00070793          	mv	a5,a4
   123b8:	dfdff06f          	j	121b4 <core_state_transition+0xa4>
   123bc:	00c5a423          	sw	a2,8(a1)
   123c0:	0027c683          	lbu	a3,2(a5)
   123c4:	00068a63          	beqz	a3,123d8 <core_state_transition+0x2c8>
   123c8:	02c00793          	li	a5,44
   123cc:	00170613          	addi	a2,a4,1
   123d0:	fef692e3          	bne	a3,a5,123b4 <core_state_transition+0x2a4>
   123d4:	00060713          	mv	a4,a2
   123d8:	00500793          	li	a5,5
   123dc:	e65ff06f          	j	12240 <core_state_transition+0x130>
   123e0:	00000793          	li	a5,0
   123e4:	e5dff06f          	j	12240 <core_state_transition+0x130>
   123e8:	00078713          	mv	a4,a5
   123ec:	00700793          	li	a5,7
   123f0:	e51ff06f          	j	12240 <core_state_transition+0x130>
   123f4:	00600793          	li	a5,6
   123f8:	e49ff06f          	j	12240 <core_state_transition+0x130>
   123fc:	00060713          	mv	a4,a2
   12400:	00300793          	li	a5,3
   12404:	e3dff06f          	j	12240 <core_state_transition+0x130>
   12408:	00078713          	mv	a4,a5
   1240c:	00000793          	li	a5,0
   12410:	e31ff06f          	j	12240 <core_state_transition+0x130>
   12414:	00200793          	li	a5,2
   12418:	e29ff06f          	j	12240 <core_state_transition+0x130>
   1241c:	00080713          	mv	a4,a6
   12420:	00700793          	li	a5,7
   12424:	e1dff06f          	j	12240 <core_state_transition+0x130>
   12428:	00078713          	mv	a4,a5
   1242c:	00500793          	li	a5,5
   12430:	e11ff06f          	j	12240 <core_state_transition+0x130>
   12434:	00060713          	mv	a4,a2
   12438:	00400793          	li	a5,4
   1243c:	e05ff06f          	j	12240 <core_state_transition+0x130>

00012440 <core_bench_state>:
   12440:	f8010113          	addi	sp,sp,-128
   12444:	06912a23          	sw	s1,116(sp)
   12448:	07212823          	sw	s2,112(sp)
   1244c:	01010493          	addi	s1,sp,16
   12450:	03010913          	addi	s2,sp,48
   12454:	06812c23          	sw	s0,120(sp)
   12458:	07312623          	sw	s3,108(sp)
   1245c:	07412423          	sw	s4,104(sp)
   12460:	07512223          	sw	s5,100(sp)
   12464:	07612023          	sw	s6,96(sp)
   12468:	05812c23          	sw	s8,88(sp)
   1246c:	00068a93          	mv	s5,a3
   12470:	00070993          	mv	s3,a4
   12474:	00078a13          	mv	s4,a5
   12478:	06112e23          	sw	ra,124(sp)
   1247c:	05712e23          	sw	s7,92(sp)
   12480:	00058413          	mv	s0,a1
   12484:	00050c13          	mv	s8,a0
   12488:	00060b13          	mv	s6,a2
   1248c:	00b12623          	sw	a1,12(sp)
   12490:	05010693          	addi	a3,sp,80
   12494:	00048713          	mv	a4,s1
   12498:	00090793          	mv	a5,s2
   1249c:	0007a023          	sw	zero,0(a5)
   124a0:	00072023          	sw	zero,0(a4)
   124a4:	00478793          	addi	a5,a5,4
   124a8:	00470713          	addi	a4,a4,4
   124ac:	fed798e3          	bne	a5,a3,1249c <core_bench_state+0x5c>
   124b0:	00044703          	lbu	a4,0(s0)
   124b4:	12070e63          	beqz	a4,125f0 <core_bench_state+0x1b0>
   124b8:	00c10b93          	addi	s7,sp,12
   124bc:	03010593          	addi	a1,sp,48
   124c0:	000b8513          	mv	a0,s7
   124c4:	c4dff0ef          	jal	ra,12110 <core_state_transition>
   124c8:	05010793          	addi	a5,sp,80
   124cc:	00251513          	slli	a0,a0,0x2
   124d0:	00a78533          	add	a0,a5,a0
   124d4:	00c12703          	lw	a4,12(sp)
   124d8:	fc052783          	lw	a5,-64(a0)
   124dc:	00074703          	lbu	a4,0(a4)
   124e0:	00178793          	addi	a5,a5,1
   124e4:	fcf52023          	sw	a5,-64(a0)
   124e8:	fc071ae3          	bnez	a4,124bc <core_bench_state+0x7c>
   124ec:	00812623          	sw	s0,12(sp)
   124f0:	01840c33          	add	s8,s0,s8
   124f4:	00044703          	lbu	a4,0(s0)
   124f8:	11847463          	bleu	s8,s0,12600 <core_bench_state+0x1c0>
   124fc:	00040793          	mv	a5,s0
   12500:	02c00613          	li	a2,44
   12504:	0080006f          	j	1250c <core_bench_state+0xcc>
   12508:	0007c703          	lbu	a4,0(a5)
   1250c:	016746b3          	xor	a3,a4,s6
   12510:	00c70463          	beq	a4,a2,12518 <core_bench_state+0xd8>
   12514:	00d78023          	sb	a3,0(a5)
   12518:	00c12783          	lw	a5,12(sp)
   1251c:	013787b3          	add	a5,a5,s3
   12520:	00f12623          	sw	a5,12(sp)
   12524:	ff87e2e3          	bltu	a5,s8,12508 <core_bench_state+0xc8>
   12528:	00044783          	lbu	a5,0(s0)
   1252c:	00812623          	sw	s0,12(sp)
   12530:	00c10b93          	addi	s7,sp,12
   12534:	02078e63          	beqz	a5,12570 <core_bench_state+0x130>
   12538:	03010593          	addi	a1,sp,48
   1253c:	000b8513          	mv	a0,s7
   12540:	bd1ff0ef          	jal	ra,12110 <core_state_transition>
   12544:	05010793          	addi	a5,sp,80
   12548:	00251513          	slli	a0,a0,0x2
   1254c:	00a78533          	add	a0,a5,a0
   12550:	00c12703          	lw	a4,12(sp)
   12554:	fc052783          	lw	a5,-64(a0)
   12558:	00074703          	lbu	a4,0(a4)
   1255c:	00178793          	addi	a5,a5,1
   12560:	fcf52023          	sw	a5,-64(a0)
   12564:	fc071ae3          	bnez	a4,12538 <core_bench_state+0xf8>
   12568:	00812623          	sw	s0,12(sp)
   1256c:	03847463          	bleu	s8,s0,12594 <core_bench_state+0x154>
   12570:	02c00693          	li	a3,44
   12574:	00044783          	lbu	a5,0(s0)
   12578:	0157c733          	xor	a4,a5,s5
   1257c:	00d78463          	beq	a5,a3,12584 <core_bench_state+0x144>
   12580:	00e40023          	sb	a4,0(s0)
   12584:	00c12403          	lw	s0,12(sp)
   12588:	01340433          	add	s0,s0,s3
   1258c:	00812623          	sw	s0,12(sp)
   12590:	ff8462e3          	bltu	s0,s8,12574 <core_bench_state+0x134>
   12594:	02048413          	addi	s0,s1,32
   12598:	0004a503          	lw	a0,0(s1)
   1259c:	000a0593          	mv	a1,s4
   125a0:	00448493          	addi	s1,s1,4
   125a4:	174000ef          	jal	ra,12718 <crcu32>
   125a8:	00050593          	mv	a1,a0
   125ac:	00092503          	lw	a0,0(s2)
   125b0:	00490913          	addi	s2,s2,4
   125b4:	164000ef          	jal	ra,12718 <crcu32>
   125b8:	00050a13          	mv	s4,a0
   125bc:	fc941ee3          	bne	s0,s1,12598 <core_bench_state+0x158>
   125c0:	07c12083          	lw	ra,124(sp)
   125c4:	07812403          	lw	s0,120(sp)
   125c8:	07412483          	lw	s1,116(sp)
   125cc:	07012903          	lw	s2,112(sp)
   125d0:	06c12983          	lw	s3,108(sp)
   125d4:	06812a03          	lw	s4,104(sp)
   125d8:	06412a83          	lw	s5,100(sp)
   125dc:	06012b03          	lw	s6,96(sp)
   125e0:	05c12b83          	lw	s7,92(sp)
   125e4:	05812c03          	lw	s8,88(sp)
   125e8:	08010113          	addi	sp,sp,128
   125ec:	00008067          	ret
   125f0:	00812623          	sw	s0,12(sp)
   125f4:	01840c33          	add	s8,s0,s8
   125f8:	f18462e3          	bltu	s0,s8,124fc <core_bench_state+0xbc>
   125fc:	f99ff06f          	j	12594 <core_bench_state+0x154>
   12600:	f2071ce3          	bnez	a4,12538 <core_bench_state+0xf8>
   12604:	f91ff06f          	j	12594 <core_bench_state+0x154>

00012608 <get_seed_32>:
   12608:	00500793          	li	a5,5
   1260c:	04a7e263          	bltu	a5,a0,12650 <get_seed_32+0x48>
   12610:	000247b7          	lui	a5,0x24
   12614:	1c878793          	addi	a5,a5,456 # 241c8 <errpat+0xc0>
   12618:	00251513          	slli	a0,a0,0x2
   1261c:	00f50533          	add	a0,a0,a5
   12620:	00052783          	lw	a5,0(a0)
   12624:	00078067          	jr	a5
   12628:	8441a503          	lw	a0,-1980(gp) # 25ab4 <seed5_volatile>
   1262c:	00008067          	ret
   12630:	8501a503          	lw	a0,-1968(gp) # 25ac0 <seed1_volatile>
   12634:	00008067          	ret
   12638:	84c1a503          	lw	a0,-1972(gp) # 25abc <seed2_volatile>
   1263c:	00008067          	ret
   12640:	82c1a503          	lw	a0,-2004(gp) # 25a9c <seed3_volatile>
   12644:	00008067          	ret
   12648:	8481a503          	lw	a0,-1976(gp) # 25ab8 <seed4_volatile>
   1264c:	00008067          	ret
   12650:	00000513          	li	a0,0
   12654:	00008067          	ret

00012658 <crcu8>:
   12658:	ffffa637          	lui	a2,0xffffa
   1265c:	00800793          	li	a5,8
   12660:	00160613          	addi	a2,a2,1 # ffffa001 <__global_pointer$+0xfffd3d91>
   12664:	00a5c733          	xor	a4,a1,a0
   12668:	fff78793          	addi	a5,a5,-1
   1266c:	0015d593          	srli	a1,a1,0x1
   12670:	00177713          	andi	a4,a4,1
   12674:	0ff7f793          	andi	a5,a5,255
   12678:	00c5c6b3          	xor	a3,a1,a2
   1267c:	00155513          	srli	a0,a0,0x1
   12680:	00070663          	beqz	a4,1268c <crcu8+0x34>
   12684:	01069593          	slli	a1,a3,0x10
   12688:	0105d593          	srli	a1,a1,0x10
   1268c:	fc079ce3          	bnez	a5,12664 <crcu8+0xc>
   12690:	00058513          	mv	a0,a1
   12694:	00008067          	ret

00012698 <crcu16>:
   12698:	ffffa837          	lui	a6,0xffffa
   1269c:	0ff57693          	andi	a3,a0,255
   126a0:	00800793          	li	a5,8
   126a4:	00180813          	addi	a6,a6,1 # ffffa001 <__global_pointer$+0xfffd3d91>
   126a8:	00d5c733          	xor	a4,a1,a3
   126ac:	fff78793          	addi	a5,a5,-1
   126b0:	0015d593          	srli	a1,a1,0x1
   126b4:	00177713          	andi	a4,a4,1
   126b8:	0ff7f793          	andi	a5,a5,255
   126bc:	0105c633          	xor	a2,a1,a6
   126c0:	0016d693          	srli	a3,a3,0x1
   126c4:	00070663          	beqz	a4,126d0 <crcu16+0x38>
   126c8:	01061593          	slli	a1,a2,0x10
   126cc:	0105d593          	srli	a1,a1,0x10
   126d0:	fc079ce3          	bnez	a5,126a8 <crcu16+0x10>
   126d4:	ffffa637          	lui	a2,0xffffa
   126d8:	00855513          	srli	a0,a0,0x8
   126dc:	00800793          	li	a5,8
   126e0:	00160613          	addi	a2,a2,1 # ffffa001 <__global_pointer$+0xfffd3d91>
   126e4:	00a5c733          	xor	a4,a1,a0
   126e8:	fff78793          	addi	a5,a5,-1
   126ec:	0015d593          	srli	a1,a1,0x1
   126f0:	00177713          	andi	a4,a4,1
   126f4:	0ff7f793          	andi	a5,a5,255
   126f8:	00c5c6b3          	xor	a3,a1,a2
   126fc:	00155513          	srli	a0,a0,0x1
   12700:	00070663          	beqz	a4,1270c <crcu16+0x74>
   12704:	01069593          	slli	a1,a3,0x10
   12708:	0105d593          	srli	a1,a1,0x10
   1270c:	fc079ce3          	bnez	a5,126e4 <crcu16+0x4c>
   12710:	00058513          	mv	a0,a1
   12714:	00008067          	ret

00012718 <crcu32>:
   12718:	ff010113          	addi	sp,sp,-16
   1271c:	00812423          	sw	s0,8(sp)
   12720:	00050413          	mv	s0,a0
   12724:	01051513          	slli	a0,a0,0x10
   12728:	01055513          	srli	a0,a0,0x10
   1272c:	00112623          	sw	ra,12(sp)
   12730:	f69ff0ef          	jal	ra,12698 <crcu16>
   12734:	00050593          	mv	a1,a0
   12738:	01045513          	srli	a0,s0,0x10
   1273c:	00812403          	lw	s0,8(sp)
   12740:	00c12083          	lw	ra,12(sp)
   12744:	01010113          	addi	sp,sp,16
   12748:	f51ff06f          	j	12698 <crcu16>

0001274c <crc16>:
   1274c:	01051513          	slli	a0,a0,0x10
   12750:	01055513          	srli	a0,a0,0x10
   12754:	f45ff06f          	j	12698 <crcu16>

00012758 <check_data_types>:
   12758:	00000513          	li	a0,0
   1275c:	00008067          	ret

00012760 <start_time>:
   12760:	ff010113          	addi	sp,sp,-16
   12764:	00112623          	sw	ra,12(sp)
   12768:	459000ef          	jal	ra,133c0 <clock>
   1276c:	00c12083          	lw	ra,12(sp)
   12770:	84a1a023          	sw	a0,-1984(gp) # 25ab0 <start_time_val>
   12774:	01010113          	addi	sp,sp,16
   12778:	00008067          	ret

0001277c <stop_time>:
   1277c:	ff010113          	addi	sp,sp,-16
   12780:	00112623          	sw	ra,12(sp)
   12784:	43d000ef          	jal	ra,133c0 <clock>
   12788:	00c12083          	lw	ra,12(sp)
   1278c:	82a1ae23          	sw	a0,-1988(gp) # 25aac <_edata>
   12790:	01010113          	addi	sp,sp,16
   12794:	00008067          	ret

00012798 <get_time>:
   12798:	83c1a503          	lw	a0,-1988(gp) # 25aac <_edata>
   1279c:	8401a783          	lw	a5,-1984(gp) # 25ab0 <start_time_val>
   127a0:	40f50533          	sub	a0,a0,a5
   127a4:	00008067          	ret

000127a8 <time_in_secs>:
   127a8:	ff010113          	addi	sp,sp,-16
   127ac:	00112623          	sw	ra,12(sp)
   127b0:	251000ef          	jal	ra,13200 <__floatunsidf>
   127b4:	000267b7          	lui	a5,0x26
   127b8:	a807a603          	lw	a2,-1408(a5) # 25a80 <__TMC_END__+0x14>
   127bc:	a847a683          	lw	a3,-1404(a5)
   127c0:	024000ef          	jal	ra,127e4 <__divdf3>
   127c4:	00c12083          	lw	ra,12(sp)
   127c8:	01010113          	addi	sp,sp,16
   127cc:	00008067          	ret

000127d0 <portable_init>:
   127d0:	00100793          	li	a5,1
   127d4:	00f50023          	sb	a5,0(a0)
   127d8:	00008067          	ret

000127dc <portable_fini>:
   127dc:	00050023          	sb	zero,0(a0)
   127e0:	00008067          	ret

000127e4 <__divdf3>:
   127e4:	fb010113          	addi	sp,sp,-80
   127e8:	03312e23          	sw	s3,60(sp)
   127ec:	0145d993          	srli	s3,a1,0x14
   127f0:	04912223          	sw	s1,68(sp)
   127f4:	05212023          	sw	s2,64(sp)
   127f8:	03412c23          	sw	s4,56(sp)
   127fc:	03512a23          	sw	s5,52(sp)
   12800:	03612823          	sw	s6,48(sp)
   12804:	00c59493          	slli	s1,a1,0xc
   12808:	04112623          	sw	ra,76(sp)
   1280c:	04812423          	sw	s0,72(sp)
   12810:	03712623          	sw	s7,44(sp)
   12814:	03812423          	sw	s8,40(sp)
   12818:	03912223          	sw	s9,36(sp)
   1281c:	03a12023          	sw	s10,32(sp)
   12820:	01b12e23          	sw	s11,28(sp)
   12824:	7ff9f993          	andi	s3,s3,2047
   12828:	00050913          	mv	s2,a0
   1282c:	00060b13          	mv	s6,a2
   12830:	00068a93          	mv	s5,a3
   12834:	00c4d493          	srli	s1,s1,0xc
   12838:	01f5da13          	srli	s4,a1,0x1f
   1283c:	0a098263          	beqz	s3,128e0 <__divdf3+0xfc>
   12840:	7ff00793          	li	a5,2047
   12844:	10f98063          	beq	s3,a5,12944 <__divdf3+0x160>
   12848:	01d55c93          	srli	s9,a0,0x1d
   1284c:	00349493          	slli	s1,s1,0x3
   12850:	009ce4b3          	or	s1,s9,s1
   12854:	00800cb7          	lui	s9,0x800
   12858:	0194ecb3          	or	s9,s1,s9
   1285c:	00351413          	slli	s0,a0,0x3
   12860:	c0198993          	addi	s3,s3,-1023
   12864:	00000b93          	li	s7,0
   12868:	014ad513          	srli	a0,s5,0x14
   1286c:	00ca9493          	slli	s1,s5,0xc
   12870:	7ff57513          	andi	a0,a0,2047
   12874:	000b0813          	mv	a6,s6
   12878:	00c4d493          	srli	s1,s1,0xc
   1287c:	01fada93          	srli	s5,s5,0x1f
   12880:	10050063          	beqz	a0,12980 <__divdf3+0x19c>
   12884:	7ff00793          	li	a5,2047
   12888:	16f50063          	beq	a0,a5,129e8 <__divdf3+0x204>
   1288c:	01db5793          	srli	a5,s6,0x1d
   12890:	00349493          	slli	s1,s1,0x3
   12894:	0097e7b3          	or	a5,a5,s1
   12898:	00800937          	lui	s2,0x800
   1289c:	0127e933          	or	s2,a5,s2
   128a0:	003b1813          	slli	a6,s6,0x3
   128a4:	c0150513          	addi	a0,a0,-1023
   128a8:	00000793          	li	a5,0
   128ac:	002b9713          	slli	a4,s7,0x2
   128b0:	00f76733          	or	a4,a4,a5
   128b4:	fff70713          	addi	a4,a4,-1
   128b8:	00e00693          	li	a3,14
   128bc:	015a44b3          	xor	s1,s4,s5
   128c0:	40a989b3          	sub	s3,s3,a0
   128c4:	14e6ee63          	bltu	a3,a4,12a20 <__divdf3+0x23c>
   128c8:	000246b7          	lui	a3,0x24
   128cc:	00271713          	slli	a4,a4,0x2
   128d0:	1e068693          	addi	a3,a3,480 # 241e0 <errpat+0xd8>
   128d4:	00d70733          	add	a4,a4,a3
   128d8:	00072703          	lw	a4,0(a4)
   128dc:	00070067          	jr	a4
   128e0:	00a4ecb3          	or	s9,s1,a0
   128e4:	060c8e63          	beqz	s9,12960 <__divdf3+0x17c>
   128e8:	04048063          	beqz	s1,12928 <__divdf3+0x144>
   128ec:	00048513          	mv	a0,s1
   128f0:	271000ef          	jal	ra,13360 <__clzsi2>
   128f4:	ff550793          	addi	a5,a0,-11
   128f8:	01c00713          	li	a4,28
   128fc:	02f74c63          	blt	a4,a5,12934 <__divdf3+0x150>
   12900:	01d00c93          	li	s9,29
   12904:	ff850413          	addi	s0,a0,-8
   12908:	40fc8cb3          	sub	s9,s9,a5
   1290c:	008494b3          	sll	s1,s1,s0
   12910:	01995cb3          	srl	s9,s2,s9
   12914:	009cecb3          	or	s9,s9,s1
   12918:	00891433          	sll	s0,s2,s0
   1291c:	c0d00993          	li	s3,-1011
   12920:	40a989b3          	sub	s3,s3,a0
   12924:	f41ff06f          	j	12864 <__divdf3+0x80>
   12928:	239000ef          	jal	ra,13360 <__clzsi2>
   1292c:	02050513          	addi	a0,a0,32
   12930:	fc5ff06f          	j	128f4 <__divdf3+0x110>
   12934:	fd850493          	addi	s1,a0,-40
   12938:	00991cb3          	sll	s9,s2,s1
   1293c:	00000413          	li	s0,0
   12940:	fddff06f          	j	1291c <__divdf3+0x138>
   12944:	00a4ecb3          	or	s9,s1,a0
   12948:	020c8463          	beqz	s9,12970 <__divdf3+0x18c>
   1294c:	00050413          	mv	s0,a0
   12950:	00048c93          	mv	s9,s1
   12954:	7ff00993          	li	s3,2047
   12958:	00300b93          	li	s7,3
   1295c:	f0dff06f          	j	12868 <__divdf3+0x84>
   12960:	00000413          	li	s0,0
   12964:	00000993          	li	s3,0
   12968:	00100b93          	li	s7,1
   1296c:	efdff06f          	j	12868 <__divdf3+0x84>
   12970:	00000413          	li	s0,0
   12974:	7ff00993          	li	s3,2047
   12978:	00200b93          	li	s7,2
   1297c:	eedff06f          	j	12868 <__divdf3+0x84>
   12980:	0164e933          	or	s2,s1,s6
   12984:	06090e63          	beqz	s2,12a00 <__divdf3+0x21c>
   12988:	04048063          	beqz	s1,129c8 <__divdf3+0x1e4>
   1298c:	00048513          	mv	a0,s1
   12990:	1d1000ef          	jal	ra,13360 <__clzsi2>
   12994:	ff550913          	addi	s2,a0,-11
   12998:	01c00793          	li	a5,28
   1299c:	0327ce63          	blt	a5,s2,129d8 <__divdf3+0x1f4>
   129a0:	01d00793          	li	a5,29
   129a4:	ff850813          	addi	a6,a0,-8
   129a8:	412787b3          	sub	a5,a5,s2
   129ac:	010494b3          	sll	s1,s1,a6
   129b0:	00fb57b3          	srl	a5,s6,a5
   129b4:	0097e933          	or	s2,a5,s1
   129b8:	010b1833          	sll	a6,s6,a6
   129bc:	c0d00793          	li	a5,-1011
   129c0:	40a78533          	sub	a0,a5,a0
   129c4:	ee5ff06f          	j	128a8 <__divdf3+0xc4>
   129c8:	000b0513          	mv	a0,s6
   129cc:	195000ef          	jal	ra,13360 <__clzsi2>
   129d0:	02050513          	addi	a0,a0,32
   129d4:	fc1ff06f          	j	12994 <__divdf3+0x1b0>
   129d8:	fd850793          	addi	a5,a0,-40
   129dc:	00fb1933          	sll	s2,s6,a5
   129e0:	00000813          	li	a6,0
   129e4:	fd9ff06f          	j	129bc <__divdf3+0x1d8>
   129e8:	0164e933          	or	s2,s1,s6
   129ec:	02090263          	beqz	s2,12a10 <__divdf3+0x22c>
   129f0:	00048913          	mv	s2,s1
   129f4:	7ff00513          	li	a0,2047
   129f8:	00300793          	li	a5,3
   129fc:	eb1ff06f          	j	128ac <__divdf3+0xc8>
   12a00:	00000813          	li	a6,0
   12a04:	00000513          	li	a0,0
   12a08:	00100793          	li	a5,1
   12a0c:	ea1ff06f          	j	128ac <__divdf3+0xc8>
   12a10:	00000813          	li	a6,0
   12a14:	7ff00513          	li	a0,2047
   12a18:	00200793          	li	a5,2
   12a1c:	e91ff06f          	j	128ac <__divdf3+0xc8>
   12a20:	01996663          	bltu	s2,s9,12a2c <__divdf3+0x248>
   12a24:	452c9263          	bne	s9,s2,12e68 <__divdf3+0x684>
   12a28:	45046063          	bltu	s0,a6,12e68 <__divdf3+0x684>
   12a2c:	01fc9713          	slli	a4,s9,0x1f
   12a30:	00145793          	srli	a5,s0,0x1
   12a34:	01f41d93          	slli	s11,s0,0x1f
   12a38:	001cdc93          	srli	s9,s9,0x1
   12a3c:	00f76433          	or	s0,a4,a5
   12a40:	00891793          	slli	a5,s2,0x8
   12a44:	01885b93          	srli	s7,a6,0x18
   12a48:	00fbebb3          	or	s7,s7,a5
   12a4c:	010bda93          	srli	s5,s7,0x10
   12a50:	000a8593          	mv	a1,s5
   12a54:	010b9b13          	slli	s6,s7,0x10
   12a58:	000c8513          	mv	a0,s9
   12a5c:	00881c13          	slli	s8,a6,0x8
   12a60:	010b5b13          	srli	s6,s6,0x10
   12a64:	051000ef          	jal	ra,132b4 <__udivsi3>
   12a68:	00050593          	mv	a1,a0
   12a6c:	00050d13          	mv	s10,a0
   12a70:	000b0513          	mv	a0,s6
   12a74:	015000ef          	jal	ra,13288 <__mulsi3>
   12a78:	00050913          	mv	s2,a0
   12a7c:	000a8593          	mv	a1,s5
   12a80:	000c8513          	mv	a0,s9
   12a84:	079000ef          	jal	ra,132fc <__umodsi3>
   12a88:	01051513          	slli	a0,a0,0x10
   12a8c:	01045793          	srli	a5,s0,0x10
   12a90:	00a7e533          	or	a0,a5,a0
   12a94:	000d0a13          	mv	s4,s10
   12a98:	01257e63          	bleu	s2,a0,12ab4 <__divdf3+0x2d0>
   12a9c:	01750533          	add	a0,a0,s7
   12aa0:	fffd0a13          	addi	s4,s10,-1
   12aa4:	01756863          	bltu	a0,s7,12ab4 <__divdf3+0x2d0>
   12aa8:	01257663          	bleu	s2,a0,12ab4 <__divdf3+0x2d0>
   12aac:	ffed0a13          	addi	s4,s10,-2
   12ab0:	01750533          	add	a0,a0,s7
   12ab4:	41250933          	sub	s2,a0,s2
   12ab8:	000a8593          	mv	a1,s5
   12abc:	00090513          	mv	a0,s2
   12ac0:	7f4000ef          	jal	ra,132b4 <__udivsi3>
   12ac4:	00050593          	mv	a1,a0
   12ac8:	00050d13          	mv	s10,a0
   12acc:	000b0513          	mv	a0,s6
   12ad0:	7b8000ef          	jal	ra,13288 <__mulsi3>
   12ad4:	00050c93          	mv	s9,a0
   12ad8:	000a8593          	mv	a1,s5
   12adc:	00090513          	mv	a0,s2
   12ae0:	01d000ef          	jal	ra,132fc <__umodsi3>
   12ae4:	01041413          	slli	s0,s0,0x10
   12ae8:	01051513          	slli	a0,a0,0x10
   12aec:	01045413          	srli	s0,s0,0x10
   12af0:	00a46433          	or	s0,s0,a0
   12af4:	000d0713          	mv	a4,s10
   12af8:	01947e63          	bleu	s9,s0,12b14 <__divdf3+0x330>
   12afc:	01740433          	add	s0,s0,s7
   12b00:	fffd0713          	addi	a4,s10,-1
   12b04:	01746863          	bltu	s0,s7,12b14 <__divdf3+0x330>
   12b08:	01947663          	bleu	s9,s0,12b14 <__divdf3+0x330>
   12b0c:	ffed0713          	addi	a4,s10,-2
   12b10:	01740433          	add	s0,s0,s7
   12b14:	010a1813          	slli	a6,s4,0x10
   12b18:	00010e37          	lui	t3,0x10
   12b1c:	00e86833          	or	a6,a6,a4
   12b20:	419407b3          	sub	a5,s0,s9
   12b24:	fffe0c93          	addi	s9,t3,-1 # ffff <main-0x75>
   12b28:	01987333          	and	t1,a6,s9
   12b2c:	019c7cb3          	and	s9,s8,s9
   12b30:	01085713          	srli	a4,a6,0x10
   12b34:	010c5d13          	srli	s10,s8,0x10
   12b38:	00030513          	mv	a0,t1
   12b3c:	000c8593          	mv	a1,s9
   12b40:	748000ef          	jal	ra,13288 <__mulsi3>
   12b44:	00050893          	mv	a7,a0
   12b48:	000d0593          	mv	a1,s10
   12b4c:	00030513          	mv	a0,t1
   12b50:	738000ef          	jal	ra,13288 <__mulsi3>
   12b54:	00050313          	mv	t1,a0
   12b58:	000c8593          	mv	a1,s9
   12b5c:	00070513          	mv	a0,a4
   12b60:	728000ef          	jal	ra,13288 <__mulsi3>
   12b64:	00050e93          	mv	t4,a0
   12b68:	000d0593          	mv	a1,s10
   12b6c:	00070513          	mv	a0,a4
   12b70:	718000ef          	jal	ra,13288 <__mulsi3>
   12b74:	0108d713          	srli	a4,a7,0x10
   12b78:	01d30333          	add	t1,t1,t4
   12b7c:	00670733          	add	a4,a4,t1
   12b80:	01d77463          	bleu	t4,a4,12b88 <__divdf3+0x3a4>
   12b84:	01c50533          	add	a0,a0,t3
   12b88:	01075413          	srli	s0,a4,0x10
   12b8c:	00a40433          	add	s0,s0,a0
   12b90:	00010537          	lui	a0,0x10
   12b94:	fff50513          	addi	a0,a0,-1 # ffff <main-0x75>
   12b98:	00a77a33          	and	s4,a4,a0
   12b9c:	010a1a13          	slli	s4,s4,0x10
   12ba0:	00a8f8b3          	and	a7,a7,a0
   12ba4:	011a0a33          	add	s4,s4,a7
   12ba8:	0087e863          	bltu	a5,s0,12bb8 <__divdf3+0x3d4>
   12bac:	00080913          	mv	s2,a6
   12bb0:	04879463          	bne	a5,s0,12bf8 <__divdf3+0x414>
   12bb4:	054df263          	bleu	s4,s11,12bf8 <__divdf3+0x414>
   12bb8:	018d8db3          	add	s11,s11,s8
   12bbc:	018db733          	sltu	a4,s11,s8
   12bc0:	01770733          	add	a4,a4,s7
   12bc4:	00e787b3          	add	a5,a5,a4
   12bc8:	fff80913          	addi	s2,a6,-1
   12bcc:	00fbe663          	bltu	s7,a5,12bd8 <__divdf3+0x3f4>
   12bd0:	02fb9463          	bne	s7,a5,12bf8 <__divdf3+0x414>
   12bd4:	038de263          	bltu	s11,s8,12bf8 <__divdf3+0x414>
   12bd8:	0087e663          	bltu	a5,s0,12be4 <__divdf3+0x400>
   12bdc:	00f41e63          	bne	s0,a5,12bf8 <__divdf3+0x414>
   12be0:	014dfc63          	bleu	s4,s11,12bf8 <__divdf3+0x414>
   12be4:	018d8db3          	add	s11,s11,s8
   12be8:	018db733          	sltu	a4,s11,s8
   12bec:	01770733          	add	a4,a4,s7
   12bf0:	ffe80913          	addi	s2,a6,-2
   12bf4:	00e787b3          	add	a5,a5,a4
   12bf8:	414d8a33          	sub	s4,s11,s4
   12bfc:	40878433          	sub	s0,a5,s0
   12c00:	014db533          	sltu	a0,s11,s4
   12c04:	40a40433          	sub	s0,s0,a0
   12c08:	fff00813          	li	a6,-1
   12c0c:	1a8b8063          	beq	s7,s0,12dac <__divdf3+0x5c8>
   12c10:	000a8593          	mv	a1,s5
   12c14:	00040513          	mv	a0,s0
   12c18:	69c000ef          	jal	ra,132b4 <__udivsi3>
   12c1c:	00050593          	mv	a1,a0
   12c20:	00a12623          	sw	a0,12(sp)
   12c24:	000b0513          	mv	a0,s6
   12c28:	660000ef          	jal	ra,13288 <__mulsi3>
   12c2c:	00a12423          	sw	a0,8(sp)
   12c30:	000a8593          	mv	a1,s5
   12c34:	00040513          	mv	a0,s0
   12c38:	6c4000ef          	jal	ra,132fc <__umodsi3>
   12c3c:	00c12683          	lw	a3,12(sp)
   12c40:	00812783          	lw	a5,8(sp)
   12c44:	01051513          	slli	a0,a0,0x10
   12c48:	010a5713          	srli	a4,s4,0x10
   12c4c:	00a76533          	or	a0,a4,a0
   12c50:	00068d93          	mv	s11,a3
   12c54:	00f57e63          	bleu	a5,a0,12c70 <__divdf3+0x48c>
   12c58:	01750533          	add	a0,a0,s7
   12c5c:	fff68d93          	addi	s11,a3,-1
   12c60:	01756863          	bltu	a0,s7,12c70 <__divdf3+0x48c>
   12c64:	00f57663          	bleu	a5,a0,12c70 <__divdf3+0x48c>
   12c68:	ffe68d93          	addi	s11,a3,-2
   12c6c:	01750533          	add	a0,a0,s7
   12c70:	40f50433          	sub	s0,a0,a5
   12c74:	000a8593          	mv	a1,s5
   12c78:	00040513          	mv	a0,s0
   12c7c:	638000ef          	jal	ra,132b4 <__udivsi3>
   12c80:	00050593          	mv	a1,a0
   12c84:	00a12423          	sw	a0,8(sp)
   12c88:	000b0513          	mv	a0,s6
   12c8c:	5fc000ef          	jal	ra,13288 <__mulsi3>
   12c90:	00050b13          	mv	s6,a0
   12c94:	000a8593          	mv	a1,s5
   12c98:	00040513          	mv	a0,s0
   12c9c:	660000ef          	jal	ra,132fc <__umodsi3>
   12ca0:	010a1a13          	slli	s4,s4,0x10
   12ca4:	00812783          	lw	a5,8(sp)
   12ca8:	01051513          	slli	a0,a0,0x10
   12cac:	010a5a13          	srli	s4,s4,0x10
   12cb0:	00aa6533          	or	a0,s4,a0
   12cb4:	00078713          	mv	a4,a5
   12cb8:	01657e63          	bleu	s6,a0,12cd4 <__divdf3+0x4f0>
   12cbc:	01750533          	add	a0,a0,s7
   12cc0:	fff78713          	addi	a4,a5,-1
   12cc4:	01756863          	bltu	a0,s7,12cd4 <__divdf3+0x4f0>
   12cc8:	01657663          	bleu	s6,a0,12cd4 <__divdf3+0x4f0>
   12ccc:	ffe78713          	addi	a4,a5,-2
   12cd0:	01750533          	add	a0,a0,s7
   12cd4:	010d9793          	slli	a5,s11,0x10
   12cd8:	00e7e7b3          	or	a5,a5,a4
   12cdc:	01079313          	slli	t1,a5,0x10
   12ce0:	01035313          	srli	t1,t1,0x10
   12ce4:	416508b3          	sub	a7,a0,s6
   12ce8:	0107d713          	srli	a4,a5,0x10
   12cec:	00030513          	mv	a0,t1
   12cf0:	000c8593          	mv	a1,s9
   12cf4:	594000ef          	jal	ra,13288 <__mulsi3>
   12cf8:	00050813          	mv	a6,a0
   12cfc:	000d0593          	mv	a1,s10
   12d00:	00030513          	mv	a0,t1
   12d04:	584000ef          	jal	ra,13288 <__mulsi3>
   12d08:	00050313          	mv	t1,a0
   12d0c:	000c8593          	mv	a1,s9
   12d10:	00070513          	mv	a0,a4
   12d14:	574000ef          	jal	ra,13288 <__mulsi3>
   12d18:	00050e13          	mv	t3,a0
   12d1c:	000d0593          	mv	a1,s10
   12d20:	00070513          	mv	a0,a4
   12d24:	564000ef          	jal	ra,13288 <__mulsi3>
   12d28:	01085713          	srli	a4,a6,0x10
   12d2c:	01c30333          	add	t1,t1,t3
   12d30:	00670733          	add	a4,a4,t1
   12d34:	01c77663          	bleu	t3,a4,12d40 <__divdf3+0x55c>
   12d38:	000106b7          	lui	a3,0x10
   12d3c:	00d50533          	add	a0,a0,a3
   12d40:	000105b7          	lui	a1,0x10
   12d44:	fff58593          	addi	a1,a1,-1 # ffff <main-0x75>
   12d48:	01075613          	srli	a2,a4,0x10
   12d4c:	00b776b3          	and	a3,a4,a1
   12d50:	01069693          	slli	a3,a3,0x10
   12d54:	00b87833          	and	a6,a6,a1
   12d58:	00a60633          	add	a2,a2,a0
   12d5c:	010686b3          	add	a3,a3,a6
   12d60:	00c8e863          	bltu	a7,a2,12d70 <__divdf3+0x58c>
   12d64:	24c89463          	bne	a7,a2,12fac <__divdf3+0x7c8>
   12d68:	00078813          	mv	a6,a5
   12d6c:	04068063          	beqz	a3,12dac <__divdf3+0x5c8>
   12d70:	011b8533          	add	a0,s7,a7
   12d74:	fff78813          	addi	a6,a5,-1
   12d78:	03756463          	bltu	a0,s7,12da0 <__divdf3+0x5bc>
   12d7c:	00c56663          	bltu	a0,a2,12d88 <__divdf3+0x5a4>
   12d80:	22c51463          	bne	a0,a2,12fa8 <__divdf3+0x7c4>
   12d84:	02dc7063          	bleu	a3,s8,12da4 <__divdf3+0x5c0>
   12d88:	ffe78813          	addi	a6,a5,-2
   12d8c:	001c1793          	slli	a5,s8,0x1
   12d90:	0187bc33          	sltu	s8,a5,s8
   12d94:	017c0bb3          	add	s7,s8,s7
   12d98:	01750533          	add	a0,a0,s7
   12d9c:	00078c13          	mv	s8,a5
   12da0:	00c51463          	bne	a0,a2,12da8 <__divdf3+0x5c4>
   12da4:	00dc0463          	beq	s8,a3,12dac <__divdf3+0x5c8>
   12da8:	00186813          	ori	a6,a6,1
   12dac:	3ff98693          	addi	a3,s3,1023
   12db0:	10d05a63          	blez	a3,12ec4 <__divdf3+0x6e0>
   12db4:	00787793          	andi	a5,a6,7
   12db8:	02078063          	beqz	a5,12dd8 <__divdf3+0x5f4>
   12dbc:	00f87793          	andi	a5,a6,15
   12dc0:	00400713          	li	a4,4
   12dc4:	00e78a63          	beq	a5,a4,12dd8 <__divdf3+0x5f4>
   12dc8:	00480793          	addi	a5,a6,4
   12dcc:	0107b833          	sltu	a6,a5,a6
   12dd0:	01090933          	add	s2,s2,a6
   12dd4:	00078813          	mv	a6,a5
   12dd8:	00791793          	slli	a5,s2,0x7
   12ddc:	0007da63          	bgez	a5,12df0 <__divdf3+0x60c>
   12de0:	ff0007b7          	lui	a5,0xff000
   12de4:	fff78793          	addi	a5,a5,-1 # feffffff <__global_pointer$+0xfefd9d8f>
   12de8:	00f97933          	and	s2,s2,a5
   12dec:	40098693          	addi	a3,s3,1024
   12df0:	7fe00793          	li	a5,2046
   12df4:	18d7ca63          	blt	a5,a3,12f88 <__divdf3+0x7a4>
   12df8:	00385813          	srli	a6,a6,0x3
   12dfc:	01d91713          	slli	a4,s2,0x1d
   12e00:	01076733          	or	a4,a4,a6
   12e04:	00395793          	srli	a5,s2,0x3
   12e08:	00c79793          	slli	a5,a5,0xc
   12e0c:	7ff6f693          	andi	a3,a3,2047
   12e10:	01469693          	slli	a3,a3,0x14
   12e14:	04c12083          	lw	ra,76(sp)
   12e18:	04812403          	lw	s0,72(sp)
   12e1c:	00c7d793          	srli	a5,a5,0xc
   12e20:	01f49493          	slli	s1,s1,0x1f
   12e24:	00d7e7b3          	or	a5,a5,a3
   12e28:	0097e6b3          	or	a3,a5,s1
   12e2c:	04012903          	lw	s2,64(sp)
   12e30:	04412483          	lw	s1,68(sp)
   12e34:	03c12983          	lw	s3,60(sp)
   12e38:	03812a03          	lw	s4,56(sp)
   12e3c:	03412a83          	lw	s5,52(sp)
   12e40:	03012b03          	lw	s6,48(sp)
   12e44:	02c12b83          	lw	s7,44(sp)
   12e48:	02812c03          	lw	s8,40(sp)
   12e4c:	02412c83          	lw	s9,36(sp)
   12e50:	02012d03          	lw	s10,32(sp)
   12e54:	01c12d83          	lw	s11,28(sp)
   12e58:	00070513          	mv	a0,a4
   12e5c:	00068593          	mv	a1,a3
   12e60:	05010113          	addi	sp,sp,80
   12e64:	00008067          	ret
   12e68:	fff98993          	addi	s3,s3,-1
   12e6c:	00000d93          	li	s11,0
   12e70:	bd1ff06f          	j	12a40 <__divdf3+0x25c>
   12e74:	000a0493          	mv	s1,s4
   12e78:	000c8913          	mv	s2,s9
   12e7c:	00040813          	mv	a6,s0
   12e80:	000b8793          	mv	a5,s7
   12e84:	00200713          	li	a4,2
   12e88:	10e78063          	beq	a5,a4,12f88 <__divdf3+0x7a4>
   12e8c:	00300713          	li	a4,3
   12e90:	0ee78263          	beq	a5,a4,12f74 <__divdf3+0x790>
   12e94:	00100713          	li	a4,1
   12e98:	f0e79ae3          	bne	a5,a4,12dac <__divdf3+0x5c8>
   12e9c:	00000793          	li	a5,0
   12ea0:	00000713          	li	a4,0
   12ea4:	0940006f          	j	12f38 <__divdf3+0x754>
   12ea8:	000a8493          	mv	s1,s5
   12eac:	fd9ff06f          	j	12e84 <__divdf3+0x6a0>
   12eb0:	00080937          	lui	s2,0x80
   12eb4:	00000813          	li	a6,0
   12eb8:	00000493          	li	s1,0
   12ebc:	00300793          	li	a5,3
   12ec0:	fc5ff06f          	j	12e84 <__divdf3+0x6a0>
   12ec4:	00100793          	li	a5,1
   12ec8:	40d787b3          	sub	a5,a5,a3
   12ecc:	03800713          	li	a4,56
   12ed0:	fcf746e3          	blt	a4,a5,12e9c <__divdf3+0x6b8>
   12ed4:	01f00713          	li	a4,31
   12ed8:	06f74463          	blt	a4,a5,12f40 <__divdf3+0x75c>
   12edc:	41e98993          	addi	s3,s3,1054
   12ee0:	01391733          	sll	a4,s2,s3
   12ee4:	00f856b3          	srl	a3,a6,a5
   12ee8:	013819b3          	sll	s3,a6,s3
   12eec:	00d76733          	or	a4,a4,a3
   12ef0:	013039b3          	snez	s3,s3
   12ef4:	01376733          	or	a4,a4,s3
   12ef8:	00f957b3          	srl	a5,s2,a5
   12efc:	00777693          	andi	a3,a4,7
   12f00:	02068063          	beqz	a3,12f20 <__divdf3+0x73c>
   12f04:	00f77693          	andi	a3,a4,15
   12f08:	00400613          	li	a2,4
   12f0c:	00c68a63          	beq	a3,a2,12f20 <__divdf3+0x73c>
   12f10:	00470693          	addi	a3,a4,4
   12f14:	00e6b733          	sltu	a4,a3,a4
   12f18:	00e787b3          	add	a5,a5,a4
   12f1c:	00068713          	mv	a4,a3
   12f20:	00879693          	slli	a3,a5,0x8
   12f24:	0606ca63          	bltz	a3,12f98 <__divdf3+0x7b4>
   12f28:	01d79693          	slli	a3,a5,0x1d
   12f2c:	00375713          	srli	a4,a4,0x3
   12f30:	00e6e733          	or	a4,a3,a4
   12f34:	0037d793          	srli	a5,a5,0x3
   12f38:	00000693          	li	a3,0
   12f3c:	ecdff06f          	j	12e08 <__divdf3+0x624>
   12f40:	fe100713          	li	a4,-31
   12f44:	40d70733          	sub	a4,a4,a3
   12f48:	02000613          	li	a2,32
   12f4c:	00e95733          	srl	a4,s2,a4
   12f50:	00000693          	li	a3,0
   12f54:	00c78663          	beq	a5,a2,12f60 <__divdf3+0x77c>
   12f58:	43e98993          	addi	s3,s3,1086
   12f5c:	013916b3          	sll	a3,s2,s3
   12f60:	0106e833          	or	a6,a3,a6
   12f64:	01003833          	snez	a6,a6
   12f68:	01076733          	or	a4,a4,a6
   12f6c:	00000793          	li	a5,0
   12f70:	f8dff06f          	j	12efc <__divdf3+0x718>
   12f74:	000807b7          	lui	a5,0x80
   12f78:	00000713          	li	a4,0
   12f7c:	7ff00693          	li	a3,2047
   12f80:	00000493          	li	s1,0
   12f84:	e85ff06f          	j	12e08 <__divdf3+0x624>
   12f88:	00000793          	li	a5,0
   12f8c:	00000713          	li	a4,0
   12f90:	7ff00693          	li	a3,2047
   12f94:	e75ff06f          	j	12e08 <__divdf3+0x624>
   12f98:	00000793          	li	a5,0
   12f9c:	00000713          	li	a4,0
   12fa0:	00100693          	li	a3,1
   12fa4:	e65ff06f          	j	12e08 <__divdf3+0x624>
   12fa8:	00080793          	mv	a5,a6
   12fac:	00078813          	mv	a6,a5
   12fb0:	df9ff06f          	j	12da8 <__divdf3+0x5c4>

00012fb4 <__gedf2>:
   12fb4:	0145d813          	srli	a6,a1,0x14
   12fb8:	001007b7          	lui	a5,0x100
   12fbc:	fff78793          	addi	a5,a5,-1 # fffff <__global_pointer$+0xd9d8f>
   12fc0:	0146d713          	srli	a4,a3,0x14
   12fc4:	00050313          	mv	t1,a0
   12fc8:	00050e93          	mv	t4,a0
   12fcc:	7ff87813          	andi	a6,a6,2047
   12fd0:	7ff00513          	li	a0,2047
   12fd4:	00b7f8b3          	and	a7,a5,a1
   12fd8:	00060f13          	mv	t5,a2
   12fdc:	00d7f7b3          	and	a5,a5,a3
   12fe0:	01f5d593          	srli	a1,a1,0x1f
   12fe4:	7ff77713          	andi	a4,a4,2047
   12fe8:	01f6d693          	srli	a3,a3,0x1f
   12fec:	00a81a63          	bne	a6,a0,13000 <__gedf2+0x4c>
   12ff0:	0068ee33          	or	t3,a7,t1
   12ff4:	ffe00513          	li	a0,-2
   12ff8:	080e0a63          	beqz	t3,1308c <__gedf2+0xd8>
   12ffc:	00008067          	ret
   13000:	00a71863          	bne	a4,a0,13010 <__gedf2+0x5c>
   13004:	00c7ee33          	or	t3,a5,a2
   13008:	ffe00513          	li	a0,-2
   1300c:	020e1663          	bnez	t3,13038 <__gedf2+0x84>
   13010:	08081063          	bnez	a6,13090 <__gedf2+0xdc>
   13014:	0068e533          	or	a0,a7,t1
   13018:	00153513          	seqz	a0,a0
   1301c:	00071663          	bnez	a4,13028 <__gedf2+0x74>
   13020:	00c7e633          	or	a2,a5,a2
   13024:	04060a63          	beqz	a2,13078 <__gedf2+0xc4>
   13028:	00051a63          	bnez	a0,1303c <__gedf2+0x88>
   1302c:	00d58e63          	beq	a1,a3,13048 <__gedf2+0x94>
   13030:	00100513          	li	a0,1
   13034:	00059663          	bnez	a1,13040 <__gedf2+0x8c>
   13038:	00008067          	ret
   1303c:	fe069ee3          	bnez	a3,13038 <__gedf2+0x84>
   13040:	fff00513          	li	a0,-1
   13044:	00008067          	ret
   13048:	ff0744e3          	blt	a4,a6,13030 <__gedf2+0x7c>
   1304c:	00e85a63          	ble	a4,a6,13060 <__gedf2+0xac>
   13050:	fff00513          	li	a0,-1
   13054:	fe0582e3          	beqz	a1,13038 <__gedf2+0x84>
   13058:	00100513          	li	a0,1
   1305c:	00008067          	ret
   13060:	fd17e8e3          	bltu	a5,a7,13030 <__gedf2+0x7c>
   13064:	02f89063          	bne	a7,a5,13084 <__gedf2+0xd0>
   13068:	fddf64e3          	bltu	t5,t4,13030 <__gedf2+0x7c>
   1306c:	00000513          	li	a0,0
   13070:	fdeef4e3          	bleu	t5,t4,13038 <__gedf2+0x84>
   13074:	fddff06f          	j	13050 <__gedf2+0x9c>
   13078:	fa050ce3          	beqz	a0,13030 <__gedf2+0x7c>
   1307c:	00000513          	li	a0,0
   13080:	00008067          	ret
   13084:	fcf8e6e3          	bltu	a7,a5,13050 <__gedf2+0x9c>
   13088:	ff5ff06f          	j	1307c <__gedf2+0xc8>
   1308c:	f7070ce3          	beq	a4,a6,13004 <__gedf2+0x50>
   13090:	f8071ee3          	bnez	a4,1302c <__gedf2+0x78>
   13094:	00000513          	li	a0,0
   13098:	f89ff06f          	j	13020 <__gedf2+0x6c>

0001309c <__ledf2>:
   1309c:	0145d813          	srli	a6,a1,0x14
   130a0:	001007b7          	lui	a5,0x100
   130a4:	fff78793          	addi	a5,a5,-1 # fffff <__global_pointer$+0xd9d8f>
   130a8:	0146d713          	srli	a4,a3,0x14
   130ac:	00050313          	mv	t1,a0
   130b0:	00050e93          	mv	t4,a0
   130b4:	7ff87813          	andi	a6,a6,2047
   130b8:	7ff00513          	li	a0,2047
   130bc:	00b7f8b3          	and	a7,a5,a1
   130c0:	00060f13          	mv	t5,a2
   130c4:	00d7f7b3          	and	a5,a5,a3
   130c8:	01f5d593          	srli	a1,a1,0x1f
   130cc:	7ff77713          	andi	a4,a4,2047
   130d0:	01f6d693          	srli	a3,a3,0x1f
   130d4:	00a81a63          	bne	a6,a0,130e8 <__ledf2+0x4c>
   130d8:	0068ee33          	or	t3,a7,t1
   130dc:	00200513          	li	a0,2
   130e0:	080e0a63          	beqz	t3,13174 <__ledf2+0xd8>
   130e4:	00008067          	ret
   130e8:	00a71863          	bne	a4,a0,130f8 <__ledf2+0x5c>
   130ec:	00c7ee33          	or	t3,a5,a2
   130f0:	00200513          	li	a0,2
   130f4:	020e1663          	bnez	t3,13120 <__ledf2+0x84>
   130f8:	08081063          	bnez	a6,13178 <__ledf2+0xdc>
   130fc:	0068e533          	or	a0,a7,t1
   13100:	00153513          	seqz	a0,a0
   13104:	00071663          	bnez	a4,13110 <__ledf2+0x74>
   13108:	00c7e633          	or	a2,a5,a2
   1310c:	04060a63          	beqz	a2,13160 <__ledf2+0xc4>
   13110:	00051a63          	bnez	a0,13124 <__ledf2+0x88>
   13114:	00d58e63          	beq	a1,a3,13130 <__ledf2+0x94>
   13118:	00100513          	li	a0,1
   1311c:	00059663          	bnez	a1,13128 <__ledf2+0x8c>
   13120:	00008067          	ret
   13124:	fe069ee3          	bnez	a3,13120 <__ledf2+0x84>
   13128:	fff00513          	li	a0,-1
   1312c:	00008067          	ret
   13130:	ff0744e3          	blt	a4,a6,13118 <__ledf2+0x7c>
   13134:	00e85a63          	ble	a4,a6,13148 <__ledf2+0xac>
   13138:	fff00513          	li	a0,-1
   1313c:	fe0582e3          	beqz	a1,13120 <__ledf2+0x84>
   13140:	00100513          	li	a0,1
   13144:	00008067          	ret
   13148:	fd17e8e3          	bltu	a5,a7,13118 <__ledf2+0x7c>
   1314c:	02f89063          	bne	a7,a5,1316c <__ledf2+0xd0>
   13150:	fddf64e3          	bltu	t5,t4,13118 <__ledf2+0x7c>
   13154:	00000513          	li	a0,0
   13158:	fdeef4e3          	bleu	t5,t4,13120 <__ledf2+0x84>
   1315c:	fddff06f          	j	13138 <__ledf2+0x9c>
   13160:	fa050ce3          	beqz	a0,13118 <__ledf2+0x7c>
   13164:	00000513          	li	a0,0
   13168:	00008067          	ret
   1316c:	fcf8e6e3          	bltu	a7,a5,13138 <__ledf2+0x9c>
   13170:	ff5ff06f          	j	13164 <__ledf2+0xc8>
   13174:	f7070ce3          	beq	a4,a6,130ec <__ledf2+0x50>
   13178:	f8071ee3          	bnez	a4,13114 <__ledf2+0x78>
   1317c:	00000513          	li	a0,0
   13180:	f89ff06f          	j	13108 <__ledf2+0x6c>

00013184 <__fixunsdfsi>:
   13184:	0145d713          	srli	a4,a1,0x14
   13188:	001006b7          	lui	a3,0x100
   1318c:	00050613          	mv	a2,a0
   13190:	fff68793          	addi	a5,a3,-1 # fffff <__global_pointer$+0xd9d8f>
   13194:	7ff77713          	andi	a4,a4,2047
   13198:	3fe00513          	li	a0,1022
   1319c:	00b7f7b3          	and	a5,a5,a1
   131a0:	01f5d593          	srli	a1,a1,0x1f
   131a4:	04e55a63          	ble	a4,a0,131f8 <__fixunsdfsi+0x74>
   131a8:	00000513          	li	a0,0
   131ac:	00059863          	bnez	a1,131bc <__fixunsdfsi+0x38>
   131b0:	41e00593          	li	a1,1054
   131b4:	fff00513          	li	a0,-1
   131b8:	00e5d463          	ble	a4,a1,131c0 <__fixunsdfsi+0x3c>
   131bc:	00008067          	ret
   131c0:	00d7e7b3          	or	a5,a5,a3
   131c4:	43300693          	li	a3,1075
   131c8:	40e686b3          	sub	a3,a3,a4
   131cc:	01f00593          	li	a1,31
   131d0:	00d5cc63          	blt	a1,a3,131e8 <__fixunsdfsi+0x64>
   131d4:	bed70713          	addi	a4,a4,-1043
   131d8:	00e797b3          	sll	a5,a5,a4
   131dc:	00d65533          	srl	a0,a2,a3
   131e0:	00a7e533          	or	a0,a5,a0
   131e4:	00008067          	ret
   131e8:	41300513          	li	a0,1043
   131ec:	40e50533          	sub	a0,a0,a4
   131f0:	00a7d533          	srl	a0,a5,a0
   131f4:	00008067          	ret
   131f8:	00000513          	li	a0,0
   131fc:	00008067          	ret

00013200 <__floatunsidf>:
   13200:	ff010113          	addi	sp,sp,-16
   13204:	00112623          	sw	ra,12(sp)
   13208:	00812423          	sw	s0,8(sp)
   1320c:	06050663          	beqz	a0,13278 <__floatunsidf+0x78>
   13210:	00050413          	mv	s0,a0
   13214:	14c000ef          	jal	ra,13360 <__clzsi2>
   13218:	41e00713          	li	a4,1054
   1321c:	00a00793          	li	a5,10
   13220:	40a70733          	sub	a4,a4,a0
   13224:	04a7c263          	blt	a5,a0,13268 <__floatunsidf+0x68>
   13228:	00b00793          	li	a5,11
   1322c:	40a787b3          	sub	a5,a5,a0
   13230:	01550513          	addi	a0,a0,21
   13234:	00f457b3          	srl	a5,s0,a5
   13238:	00a41433          	sll	s0,s0,a0
   1323c:	00040513          	mv	a0,s0
   13240:	00c12083          	lw	ra,12(sp)
   13244:	00812403          	lw	s0,8(sp)
   13248:	00c79793          	slli	a5,a5,0xc
   1324c:	7ff77713          	andi	a4,a4,2047
   13250:	01471713          	slli	a4,a4,0x14
   13254:	00c7d793          	srli	a5,a5,0xc
   13258:	00e7e6b3          	or	a3,a5,a4
   1325c:	00068593          	mv	a1,a3
   13260:	01010113          	addi	sp,sp,16
   13264:	00008067          	ret
   13268:	ff550513          	addi	a0,a0,-11
   1326c:	00a417b3          	sll	a5,s0,a0
   13270:	00000413          	li	s0,0
   13274:	fc9ff06f          	j	1323c <__floatunsidf+0x3c>
   13278:	00000793          	li	a5,0
   1327c:	00000413          	li	s0,0
   13280:	00000713          	li	a4,0
   13284:	fb9ff06f          	j	1323c <__floatunsidf+0x3c>

00013288 <__mulsi3>:
   13288:	00050613          	mv	a2,a0
   1328c:	00000513          	li	a0,0
   13290:	0015f693          	andi	a3,a1,1
   13294:	00068463          	beqz	a3,1329c <__mulsi3+0x14>
   13298:	00c50533          	add	a0,a0,a2
   1329c:	0015d593          	srli	a1,a1,0x1
   132a0:	00161613          	slli	a2,a2,0x1
   132a4:	fe0596e3          	bnez	a1,13290 <__mulsi3+0x8>
   132a8:	00008067          	ret

000132ac <__divsi3>:
   132ac:	06054063          	bltz	a0,1330c <__umodsi3+0x10>
   132b0:	0605c663          	bltz	a1,1331c <__umodsi3+0x20>

000132b4 <__udivsi3>:
   132b4:	00058613          	mv	a2,a1
   132b8:	00050593          	mv	a1,a0
   132bc:	fff00513          	li	a0,-1
   132c0:	02060c63          	beqz	a2,132f8 <__udivsi3+0x44>
   132c4:	00100693          	li	a3,1
   132c8:	00b67a63          	bleu	a1,a2,132dc <__udivsi3+0x28>
   132cc:	00c05863          	blez	a2,132dc <__udivsi3+0x28>
   132d0:	00161613          	slli	a2,a2,0x1
   132d4:	00169693          	slli	a3,a3,0x1
   132d8:	feb66ae3          	bltu	a2,a1,132cc <__udivsi3+0x18>
   132dc:	00000513          	li	a0,0
   132e0:	00c5e663          	bltu	a1,a2,132ec <__udivsi3+0x38>
   132e4:	40c585b3          	sub	a1,a1,a2
   132e8:	00d56533          	or	a0,a0,a3
   132ec:	0016d693          	srli	a3,a3,0x1
   132f0:	00165613          	srli	a2,a2,0x1
   132f4:	fe0696e3          	bnez	a3,132e0 <__udivsi3+0x2c>
   132f8:	00008067          	ret

000132fc <__umodsi3>:
   132fc:	00008293          	mv	t0,ra
   13300:	fb5ff0ef          	jal	ra,132b4 <__udivsi3>
   13304:	00058513          	mv	a0,a1
   13308:	00028067          	jr	t0
   1330c:	40a00533          	neg	a0,a0
   13310:	0005d863          	bgez	a1,13320 <__umodsi3+0x24>
   13314:	40b005b3          	neg	a1,a1
   13318:	f9dff06f          	j	132b4 <__udivsi3>
   1331c:	40b005b3          	neg	a1,a1
   13320:	00008293          	mv	t0,ra
   13324:	f91ff0ef          	jal	ra,132b4 <__udivsi3>
   13328:	40a00533          	neg	a0,a0
   1332c:	00028067          	jr	t0

00013330 <__modsi3>:
   13330:	00008293          	mv	t0,ra
   13334:	0005ca63          	bltz	a1,13348 <__modsi3+0x18>
   13338:	00054c63          	bltz	a0,13350 <__modsi3+0x20>
   1333c:	f79ff0ef          	jal	ra,132b4 <__udivsi3>
   13340:	00058513          	mv	a0,a1
   13344:	00028067          	jr	t0
   13348:	40b005b3          	neg	a1,a1
   1334c:	fe0558e3          	bgez	a0,1333c <__modsi3+0xc>
   13350:	40a00533          	neg	a0,a0
   13354:	f61ff0ef          	jal	ra,132b4 <__udivsi3>
   13358:	40b00533          	neg	a0,a1
   1335c:	00028067          	jr	t0

00013360 <__clzsi2>:
   13360:	000107b7          	lui	a5,0x10
   13364:	02f57a63          	bleu	a5,a0,13398 <__clzsi2+0x38>
   13368:	0ff00793          	li	a5,255
   1336c:	00a7b7b3          	sltu	a5,a5,a0
   13370:	00379793          	slli	a5,a5,0x3
   13374:	02000713          	li	a4,32
   13378:	40f70733          	sub	a4,a4,a5
   1337c:	00f557b3          	srl	a5,a0,a5
   13380:	00024537          	lui	a0,0x24
   13384:	21c50513          	addi	a0,a0,540 # 2421c <__clz_tab>
   13388:	00a787b3          	add	a5,a5,a0
   1338c:	0007c503          	lbu	a0,0(a5) # 10000 <main-0x74>
   13390:	40a70533          	sub	a0,a4,a0
   13394:	00008067          	ret
   13398:	01000737          	lui	a4,0x1000
   1339c:	01000793          	li	a5,16
   133a0:	fce56ae3          	bltu	a0,a4,13374 <__clzsi2+0x14>
   133a4:	01800793          	li	a5,24
   133a8:	fcdff06f          	j	13374 <__clzsi2+0x14>

000133ac <atexit>:
   133ac:	00050593          	mv	a1,a0
   133b0:	00000693          	li	a3,0
   133b4:	00000613          	li	a2,0
   133b8:	00000513          	li	a0,0
   133bc:	78c0206f          	j	15b48 <__register_exitproc>

000133c0 <clock>:
   133c0:	8301a503          	lw	a0,-2000(gp) # 25aa0 <_impure_ptr>
   133c4:	fe010113          	addi	sp,sp,-32
   133c8:	00010593          	mv	a1,sp
   133cc:	00112e23          	sw	ra,28(sp)
   133d0:	478000ef          	jal	ra,13848 <_times_r>
   133d4:	fff00793          	li	a5,-1
   133d8:	02f50063          	beq	a0,a5,133f8 <clock+0x38>
   133dc:	00412783          	lw	a5,4(sp)
   133e0:	00012503          	lw	a0,0(sp)
   133e4:	00f50533          	add	a0,a0,a5
   133e8:	00812783          	lw	a5,8(sp)
   133ec:	00f50533          	add	a0,a0,a5
   133f0:	00c12783          	lw	a5,12(sp)
   133f4:	00f50533          	add	a0,a0,a5
   133f8:	01c12083          	lw	ra,28(sp)
   133fc:	02010113          	addi	sp,sp,32
   13400:	00008067          	ret

00013404 <exit>:
   13404:	ff010113          	addi	sp,sp,-16
   13408:	00000593          	li	a1,0
   1340c:	00812423          	sw	s0,8(sp)
   13410:	00112623          	sw	ra,12(sp)
   13414:	00050413          	mv	s0,a0
   13418:	7ac020ef          	jal	ra,15bc4 <__call_exitprocs>
   1341c:	8201a503          	lw	a0,-2016(gp) # 25a90 <_global_impure_ptr>
   13420:	03c52783          	lw	a5,60(a0)
   13424:	00078463          	beqz	a5,1342c <exit+0x28>
   13428:	000780e7          	jalr	a5
   1342c:	00040513          	mv	a0,s0
   13430:	5e10b0ef          	jal	ra,1f210 <_exit>

00013434 <__libc_fini_array>:
   13434:	ff010113          	addi	sp,sp,-16
   13438:	000257b7          	lui	a5,0x25
   1343c:	00812423          	sw	s0,8(sp)
   13440:	00025437          	lui	s0,0x25
   13444:	0b878713          	addi	a4,a5,184 # 250b8 <__init_array_end>
   13448:	0bc40413          	addi	s0,s0,188 # 250bc <__fini_array_end>
   1344c:	40e40433          	sub	s0,s0,a4
   13450:	00912223          	sw	s1,4(sp)
   13454:	00112623          	sw	ra,12(sp)
   13458:	40245413          	srai	s0,s0,0x2
   1345c:	0b878493          	addi	s1,a5,184
   13460:	00041c63          	bnez	s0,13478 <__libc_fini_array+0x44>
   13464:	00812403          	lw	s0,8(sp)
   13468:	00c12083          	lw	ra,12(sp)
   1346c:	00412483          	lw	s1,4(sp)
   13470:	01010113          	addi	sp,sp,16
   13474:	e80fd06f          	j	10af4 <_fini>
   13478:	fff40413          	addi	s0,s0,-1
   1347c:	00241793          	slli	a5,s0,0x2
   13480:	00f487b3          	add	a5,s1,a5
   13484:	0007a783          	lw	a5,0(a5)
   13488:	000780e7          	jalr	a5
   1348c:	fd5ff06f          	j	13460 <__libc_fini_array+0x2c>

00013490 <__libc_init_array>:
   13490:	ff010113          	addi	sp,sp,-16
   13494:	000257b7          	lui	a5,0x25
   13498:	00812423          	sw	s0,8(sp)
   1349c:	00025437          	lui	s0,0x25
   134a0:	0b478713          	addi	a4,a5,180 # 250b4 <__frame_dummy_init_array_entry>
   134a4:	0b440413          	addi	s0,s0,180 # 250b4 <__frame_dummy_init_array_entry>
   134a8:	40e40433          	sub	s0,s0,a4
   134ac:	00912223          	sw	s1,4(sp)
   134b0:	01212023          	sw	s2,0(sp)
   134b4:	00112623          	sw	ra,12(sp)
   134b8:	40245413          	srai	s0,s0,0x2
   134bc:	00000493          	li	s1,0
   134c0:	0b478913          	addi	s2,a5,180
   134c4:	04849263          	bne	s1,s0,13508 <__libc_init_array+0x78>
   134c8:	e2cfd0ef          	jal	ra,10af4 <_fini>
   134cc:	000257b7          	lui	a5,0x25
   134d0:	00025437          	lui	s0,0x25
   134d4:	0b478713          	addi	a4,a5,180 # 250b4 <__frame_dummy_init_array_entry>
   134d8:	0b840413          	addi	s0,s0,184 # 250b8 <__init_array_end>
   134dc:	40e40433          	sub	s0,s0,a4
   134e0:	40245413          	srai	s0,s0,0x2
   134e4:	00000493          	li	s1,0
   134e8:	0b478913          	addi	s2,a5,180
   134ec:	02849a63          	bne	s1,s0,13520 <__libc_init_array+0x90>
   134f0:	00c12083          	lw	ra,12(sp)
   134f4:	00812403          	lw	s0,8(sp)
   134f8:	00412483          	lw	s1,4(sp)
   134fc:	00012903          	lw	s2,0(sp)
   13500:	01010113          	addi	sp,sp,16
   13504:	00008067          	ret
   13508:	00249793          	slli	a5,s1,0x2
   1350c:	00f907b3          	add	a5,s2,a5
   13510:	0007a783          	lw	a5,0(a5)
   13514:	00148493          	addi	s1,s1,1
   13518:	000780e7          	jalr	a5
   1351c:	fa9ff06f          	j	134c4 <__libc_init_array+0x34>
   13520:	00249793          	slli	a5,s1,0x2
   13524:	00f907b3          	add	a5,s2,a5
   13528:	0007a783          	lw	a5,0(a5)
   1352c:	00148493          	addi	s1,s1,1
   13530:	000780e7          	jalr	a5
   13534:	fb9ff06f          	j	134ec <__libc_init_array+0x5c>

00013538 <memset>:
   13538:	00f00313          	li	t1,15
   1353c:	00050713          	mv	a4,a0
   13540:	02c37e63          	bleu	a2,t1,1357c <memset+0x44>
   13544:	00f77793          	andi	a5,a4,15
   13548:	0a079063          	bnez	a5,135e8 <memset+0xb0>
   1354c:	08059263          	bnez	a1,135d0 <memset+0x98>
   13550:	ff067693          	andi	a3,a2,-16
   13554:	00f67613          	andi	a2,a2,15
   13558:	00e686b3          	add	a3,a3,a4
   1355c:	00b72023          	sw	a1,0(a4) # 1000000 <__global_pointer$+0xfd9d90>
   13560:	00b72223          	sw	a1,4(a4)
   13564:	00b72423          	sw	a1,8(a4)
   13568:	00b72623          	sw	a1,12(a4)
   1356c:	01070713          	addi	a4,a4,16
   13570:	fed766e3          	bltu	a4,a3,1355c <memset+0x24>
   13574:	00061463          	bnez	a2,1357c <memset+0x44>
   13578:	00008067          	ret
   1357c:	40c306b3          	sub	a3,t1,a2
   13580:	00269693          	slli	a3,a3,0x2
   13584:	00000297          	auipc	t0,0x0
   13588:	005686b3          	add	a3,a3,t0
   1358c:	00c68067          	jr	12(a3)
   13590:	00b70723          	sb	a1,14(a4)
   13594:	00b706a3          	sb	a1,13(a4)
   13598:	00b70623          	sb	a1,12(a4)
   1359c:	00b705a3          	sb	a1,11(a4)
   135a0:	00b70523          	sb	a1,10(a4)
   135a4:	00b704a3          	sb	a1,9(a4)
   135a8:	00b70423          	sb	a1,8(a4)
   135ac:	00b703a3          	sb	a1,7(a4)
   135b0:	00b70323          	sb	a1,6(a4)
   135b4:	00b702a3          	sb	a1,5(a4)
   135b8:	00b70223          	sb	a1,4(a4)
   135bc:	00b701a3          	sb	a1,3(a4)
   135c0:	00b70123          	sb	a1,2(a4)
   135c4:	00b700a3          	sb	a1,1(a4)
   135c8:	00b70023          	sb	a1,0(a4)
   135cc:	00008067          	ret
   135d0:	0ff5f593          	andi	a1,a1,255
   135d4:	00859693          	slli	a3,a1,0x8
   135d8:	00d5e5b3          	or	a1,a1,a3
   135dc:	01059693          	slli	a3,a1,0x10
   135e0:	00d5e5b3          	or	a1,a1,a3
   135e4:	f6dff06f          	j	13550 <memset+0x18>
   135e8:	00279693          	slli	a3,a5,0x2
   135ec:	00000297          	auipc	t0,0x0
   135f0:	005686b3          	add	a3,a3,t0
   135f4:	00008293          	mv	t0,ra
   135f8:	fa0680e7          	jalr	-96(a3)
   135fc:	00028093          	mv	ra,t0
   13600:	ff078793          	addi	a5,a5,-16
   13604:	40f70733          	sub	a4,a4,a5
   13608:	00f60633          	add	a2,a2,a5
   1360c:	f6c378e3          	bleu	a2,t1,1357c <memset+0x44>
   13610:	f3dff06f          	j	1354c <memset+0x14>

00013614 <_printf_r>:
   13614:	fc010113          	addi	sp,sp,-64
   13618:	02c12423          	sw	a2,40(sp)
   1361c:	02d12623          	sw	a3,44(sp)
   13620:	02e12823          	sw	a4,48(sp)
   13624:	02f12a23          	sw	a5,52(sp)
   13628:	03012c23          	sw	a6,56(sp)
   1362c:	03112e23          	sw	a7,60(sp)
   13630:	00058613          	mv	a2,a1
   13634:	00852583          	lw	a1,8(a0)
   13638:	02810693          	addi	a3,sp,40
   1363c:	00112e23          	sw	ra,28(sp)
   13640:	00d12623          	sw	a3,12(sp)
   13644:	20c000ef          	jal	ra,13850 <_vfprintf_r>
   13648:	01c12083          	lw	ra,28(sp)
   1364c:	04010113          	addi	sp,sp,64
   13650:	00008067          	ret

00013654 <printf>:
   13654:	fc010113          	addi	sp,sp,-64
   13658:	02f12a23          	sw	a5,52(sp)
   1365c:	8301a783          	lw	a5,-2000(gp) # 25aa0 <_impure_ptr>
   13660:	02c12423          	sw	a2,40(sp)
   13664:	02d12623          	sw	a3,44(sp)
   13668:	02b12223          	sw	a1,36(sp)
   1366c:	02e12823          	sw	a4,48(sp)
   13670:	03012c23          	sw	a6,56(sp)
   13674:	03112e23          	sw	a7,60(sp)
   13678:	0087a583          	lw	a1,8(a5)
   1367c:	02410693          	addi	a3,sp,36
   13680:	00050613          	mv	a2,a0
   13684:	00078513          	mv	a0,a5
   13688:	00112e23          	sw	ra,28(sp)
   1368c:	00d12623          	sw	a3,12(sp)
   13690:	1c0000ef          	jal	ra,13850 <_vfprintf_r>
   13694:	01c12083          	lw	ra,28(sp)
   13698:	04010113          	addi	sp,sp,64
   1369c:	00008067          	ret

000136a0 <_putchar_r>:
   136a0:	00852603          	lw	a2,8(a0)
   136a4:	0180006f          	j	136bc <_putc_r>

000136a8 <putchar>:
   136a8:	8301a783          	lw	a5,-2000(gp) # 25aa0 <_impure_ptr>
   136ac:	00050593          	mv	a1,a0
   136b0:	0087a603          	lw	a2,8(a5)
   136b4:	00078513          	mv	a0,a5
   136b8:	0040006f          	j	136bc <_putc_r>

000136bc <_putc_r>:
   136bc:	fe010113          	addi	sp,sp,-32
   136c0:	00812c23          	sw	s0,24(sp)
   136c4:	00112e23          	sw	ra,28(sp)
   136c8:	00050413          	mv	s0,a0
   136cc:	02050063          	beqz	a0,136ec <_putc_r+0x30>
   136d0:	03852783          	lw	a5,56(a0)
   136d4:	00079c63          	bnez	a5,136ec <_putc_r+0x30>
   136d8:	00c12623          	sw	a2,12(sp)
   136dc:	00b12423          	sw	a1,8(sp)
   136e0:	195020ef          	jal	ra,16074 <__sinit>
   136e4:	00c12603          	lw	a2,12(sp)
   136e8:	00812583          	lw	a1,8(sp)
   136ec:	00862783          	lw	a5,8(a2)
   136f0:	fff78793          	addi	a5,a5,-1
   136f4:	00f62423          	sw	a5,8(a2)
   136f8:	0207d663          	bgez	a5,13724 <_putc_r+0x68>
   136fc:	01862703          	lw	a4,24(a2)
   13700:	00e7c863          	blt	a5,a4,13710 <_putc_r+0x54>
   13704:	0ff5f793          	andi	a5,a1,255
   13708:	00a00713          	li	a4,10
   1370c:	00e79c63          	bne	a5,a4,13724 <_putc_r+0x68>
   13710:	00040513          	mv	a0,s0
   13714:	01812403          	lw	s0,24(sp)
   13718:	01c12083          	lw	ra,28(sp)
   1371c:	02010113          	addi	sp,sp,32
   13720:	1b40206f          	j	158d4 <__swbuf_r>
   13724:	00062783          	lw	a5,0(a2)
   13728:	0ff5f513          	andi	a0,a1,255
   1372c:	00178713          	addi	a4,a5,1
   13730:	00e62023          	sw	a4,0(a2)
   13734:	00b78023          	sb	a1,0(a5)
   13738:	01c12083          	lw	ra,28(sp)
   1373c:	01812403          	lw	s0,24(sp)
   13740:	02010113          	addi	sp,sp,32
   13744:	00008067          	ret

00013748 <putc>:
   13748:	00058613          	mv	a2,a1
   1374c:	00050593          	mv	a1,a0
   13750:	8301a503          	lw	a0,-2000(gp) # 25aa0 <_impure_ptr>
   13754:	f69ff06f          	j	136bc <_putc_r>

00013758 <_puts_r>:
   13758:	fc010113          	addi	sp,sp,-64
   1375c:	02812c23          	sw	s0,56(sp)
   13760:	00050413          	mv	s0,a0
   13764:	00058513          	mv	a0,a1
   13768:	00b12623          	sw	a1,12(sp)
   1376c:	02112e23          	sw	ra,60(sp)
   13770:	0bc000ef          	jal	ra,1382c <strlen>
   13774:	000247b7          	lui	a5,0x24
   13778:	31c78793          	addi	a5,a5,796 # 2431c <__clz_tab+0x100>
   1377c:	02f12423          	sw	a5,40(sp)
   13780:	00100793          	li	a5,1
   13784:	02f12623          	sw	a5,44(sp)
   13788:	02010793          	addi	a5,sp,32
   1378c:	00c12583          	lw	a1,12(sp)
   13790:	00f12a23          	sw	a5,20(sp)
   13794:	00200793          	li	a5,2
   13798:	00f12c23          	sw	a5,24(sp)
   1379c:	03842783          	lw	a5,56(s0)
   137a0:	02a12223          	sw	a0,36(sp)
   137a4:	00150513          	addi	a0,a0,1
   137a8:	02b12023          	sw	a1,32(sp)
   137ac:	00a12e23          	sw	a0,28(sp)
   137b0:	00842583          	lw	a1,8(s0)
   137b4:	00079a63          	bnez	a5,137c8 <_puts_r+0x70>
   137b8:	00040513          	mv	a0,s0
   137bc:	00b12623          	sw	a1,12(sp)
   137c0:	0b5020ef          	jal	ra,16074 <__sinit>
   137c4:	00c12583          	lw	a1,12(sp)
   137c8:	00c59783          	lh	a5,12(a1)
   137cc:	01279713          	slli	a4,a5,0x12
   137d0:	02074263          	bltz	a4,137f4 <_puts_r+0x9c>
   137d4:	000026b7          	lui	a3,0x2
   137d8:	0645a703          	lw	a4,100(a1)
   137dc:	00d7e7b3          	or	a5,a5,a3
   137e0:	00f59623          	sh	a5,12(a1)
   137e4:	ffffe7b7          	lui	a5,0xffffe
   137e8:	fff78793          	addi	a5,a5,-1 # ffffdfff <__global_pointer$+0xfffd7d8f>
   137ec:	00f777b3          	and	a5,a4,a5
   137f0:	06f5a223          	sw	a5,100(a1)
   137f4:	01410613          	addi	a2,sp,20
   137f8:	00040513          	mv	a0,s0
   137fc:	57d020ef          	jal	ra,16578 <__sfvwrite_r>
   13800:	fff00793          	li	a5,-1
   13804:	00051463          	bnez	a0,1380c <_puts_r+0xb4>
   13808:	00a00793          	li	a5,10
   1380c:	03c12083          	lw	ra,60(sp)
   13810:	03812403          	lw	s0,56(sp)
   13814:	00078513          	mv	a0,a5
   13818:	04010113          	addi	sp,sp,64
   1381c:	00008067          	ret

00013820 <puts>:
   13820:	00050593          	mv	a1,a0
   13824:	8301a503          	lw	a0,-2000(gp) # 25aa0 <_impure_ptr>
   13828:	f31ff06f          	j	13758 <_puts_r>

0001382c <strlen>:
   1382c:	00050793          	mv	a5,a0
   13830:	00178793          	addi	a5,a5,1
   13834:	fff7c703          	lbu	a4,-1(a5)
   13838:	fe071ce3          	bnez	a4,13830 <strlen+0x4>
   1383c:	40a78533          	sub	a0,a5,a0
   13840:	fff50513          	addi	a0,a0,-1
   13844:	00008067          	ret

00013848 <_times_r>:
   13848:	00058513          	mv	a0,a1
   1384c:	40d0b06f          	j	1f458 <_times>

00013850 <_vfprintf_r>:
   13850:	e2010113          	addi	sp,sp,-480
   13854:	1c112e23          	sw	ra,476(sp)
   13858:	1c912a23          	sw	s1,468(sp)
   1385c:	1d212823          	sw	s2,464(sp)
   13860:	1d312623          	sw	s3,460(sp)
   13864:	1d512223          	sw	s5,452(sp)
   13868:	00058913          	mv	s2,a1
   1386c:	00060493          	mv	s1,a2
   13870:	00068a93          	mv	s5,a3
   13874:	1c812c23          	sw	s0,472(sp)
   13878:	1d412423          	sw	s4,456(sp)
   1387c:	1d612023          	sw	s6,448(sp)
   13880:	1b712e23          	sw	s7,444(sp)
   13884:	1b812c23          	sw	s8,440(sp)
   13888:	1b912a23          	sw	s9,436(sp)
   1388c:	1ba12823          	sw	s10,432(sp)
   13890:	1bb12623          	sw	s11,428(sp)
   13894:	00050993          	mv	s3,a0
   13898:	240050ef          	jal	ra,18ad8 <_localeconv_r>
   1389c:	00052783          	lw	a5,0(a0)
   138a0:	00078513          	mv	a0,a5
   138a4:	02f12a23          	sw	a5,52(sp)
   138a8:	f85ff0ef          	jal	ra,1382c <strlen>
   138ac:	02a12023          	sw	a0,32(sp)
   138b0:	0e012023          	sw	zero,224(sp)
   138b4:	0e012223          	sw	zero,228(sp)
   138b8:	0e012423          	sw	zero,232(sp)
   138bc:	0e012623          	sw	zero,236(sp)
   138c0:	00098a63          	beqz	s3,138d4 <_vfprintf_r+0x84>
   138c4:	0389a783          	lw	a5,56(s3)
   138c8:	00079663          	bnez	a5,138d4 <_vfprintf_r+0x84>
   138cc:	00098513          	mv	a0,s3
   138d0:	7a4020ef          	jal	ra,16074 <__sinit>
   138d4:	00c91783          	lh	a5,12(s2) # 8000c <__global_pointer$+0x59d9c>
   138d8:	01279713          	slli	a4,a5,0x12
   138dc:	02074263          	bltz	a4,13900 <_vfprintf_r+0xb0>
   138e0:	000026b7          	lui	a3,0x2
   138e4:	06492703          	lw	a4,100(s2)
   138e8:	00d7e7b3          	or	a5,a5,a3
   138ec:	00f91623          	sh	a5,12(s2)
   138f0:	ffffe7b7          	lui	a5,0xffffe
   138f4:	fff78793          	addi	a5,a5,-1 # ffffdfff <__global_pointer$+0xfffd7d8f>
   138f8:	00f777b3          	and	a5,a4,a5
   138fc:	06f92223          	sw	a5,100(s2)
   13900:	00c95783          	lhu	a5,12(s2)
   13904:	0087f793          	andi	a5,a5,8
   13908:	04078063          	beqz	a5,13948 <_vfprintf_r+0xf8>
   1390c:	01092783          	lw	a5,16(s2)
   13910:	02078c63          	beqz	a5,13948 <_vfprintf_r+0xf8>
   13914:	00c95783          	lhu	a5,12(s2)
   13918:	00a00713          	li	a4,10
   1391c:	01a7f793          	andi	a5,a5,26
   13920:	08e79063          	bne	a5,a4,139a0 <_vfprintf_r+0x150>
   13924:	00e91783          	lh	a5,14(s2)
   13928:	0607cc63          	bltz	a5,139a0 <_vfprintf_r+0x150>
   1392c:	000a8693          	mv	a3,s5
   13930:	00048613          	mv	a2,s1
   13934:	00090593          	mv	a1,s2
   13938:	00098513          	mv	a0,s3
   1393c:	6dd010ef          	jal	ra,15818 <__sbprintf>
   13940:	02a12223          	sw	a0,36(sp)
   13944:	01c0006f          	j	13960 <_vfprintf_r+0x110>
   13948:	00090593          	mv	a1,s2
   1394c:	00098513          	mv	a0,s3
   13950:	0c4020ef          	jal	ra,15a14 <__swsetup_r>
   13954:	fc0500e3          	beqz	a0,13914 <_vfprintf_r+0xc4>
   13958:	fff00793          	li	a5,-1
   1395c:	02f12223          	sw	a5,36(sp)
   13960:	1dc12083          	lw	ra,476(sp)
   13964:	1d812403          	lw	s0,472(sp)
   13968:	02412503          	lw	a0,36(sp)
   1396c:	1d412483          	lw	s1,468(sp)
   13970:	1d012903          	lw	s2,464(sp)
   13974:	1cc12983          	lw	s3,460(sp)
   13978:	1c812a03          	lw	s4,456(sp)
   1397c:	1c412a83          	lw	s5,452(sp)
   13980:	1c012b03          	lw	s6,448(sp)
   13984:	1bc12b83          	lw	s7,444(sp)
   13988:	1b812c03          	lw	s8,440(sp)
   1398c:	1b412c83          	lw	s9,436(sp)
   13990:	1b012d03          	lw	s10,432(sp)
   13994:	1ac12d83          	lw	s11,428(sp)
   13998:	1e010113          	addi	sp,sp,480
   1399c:	00008067          	ret
   139a0:	000247b7          	lui	a5,0x24
   139a4:	32078793          	addi	a5,a5,800 # 24320 <__clz_tab+0x104>
   139a8:	04f12623          	sw	a5,76(sp)
   139ac:	000247b7          	lui	a5,0x24
   139b0:	0fc10893          	addi	a7,sp,252
   139b4:	49c78793          	addi	a5,a5,1180 # 2449c <zeroes.4514>
   139b8:	0d112a23          	sw	a7,212(sp)
   139bc:	0c012e23          	sw	zero,220(sp)
   139c0:	0c012c23          	sw	zero,216(sp)
   139c4:	00000a13          	li	s4,0
   139c8:	00088b93          	mv	s7,a7
   139cc:	04012023          	sw	zero,64(sp)
   139d0:	02012e23          	sw	zero,60(sp)
   139d4:	00012823          	sw	zero,16(sp)
   139d8:	02012823          	sw	zero,48(sp)
   139dc:	02012c23          	sw	zero,56(sp)
   139e0:	02012223          	sw	zero,36(sp)
   139e4:	00f12a23          	sw	a5,20(sp)
   139e8:	00048413          	mv	s0,s1
   139ec:	02500713          	li	a4,37
   139f0:	00044783          	lbu	a5,0(s0)
   139f4:	00078463          	beqz	a5,139fc <_vfprintf_r+0x1ac>
   139f8:	0ae79a63          	bne	a5,a4,13aac <_vfprintf_r+0x25c>
   139fc:	40940b33          	sub	s6,s0,s1
   13a00:	040b0a63          	beqz	s6,13a54 <_vfprintf_r+0x204>
   13a04:	0dc12783          	lw	a5,220(sp)
   13a08:	009ba023          	sw	s1,0(s7)
   13a0c:	016ba223          	sw	s6,4(s7)
   13a10:	016787b3          	add	a5,a5,s6
   13a14:	0cf12e23          	sw	a5,220(sp)
   13a18:	0d812783          	lw	a5,216(sp)
   13a1c:	00700713          	li	a4,7
   13a20:	008b8b93          	addi	s7,s7,8
   13a24:	00178793          	addi	a5,a5,1
   13a28:	0cf12c23          	sw	a5,216(sp)
   13a2c:	00f75e63          	ble	a5,a4,13a48 <_vfprintf_r+0x1f8>
   13a30:	0d410613          	addi	a2,sp,212
   13a34:	00090593          	mv	a1,s2
   13a38:	00098513          	mv	a0,s3
   13a3c:	40c090ef          	jal	ra,1ce48 <__sprint_r>
   13a40:	72051a63          	bnez	a0,14174 <_vfprintf_r+0x924>
   13a44:	0fc10b93          	addi	s7,sp,252
   13a48:	02412783          	lw	a5,36(sp)
   13a4c:	016787b3          	add	a5,a5,s6
   13a50:	02f12223          	sw	a5,36(sp)
   13a54:	00044783          	lbu	a5,0(s0)
   13a58:	00079463          	bnez	a5,13a60 <_vfprintf_r+0x210>
   13a5c:	5650106f          	j	157c0 <_vfprintf_r+0x1f70>
   13a60:	00140793          	addi	a5,s0,1
   13a64:	0a010ba3          	sb	zero,183(sp)
   13a68:	fff00d13          	li	s10,-1
   13a6c:	02012423          	sw	zero,40(sp)
   13a70:	00000413          	li	s0,0
   13a74:	05a00c13          	li	s8,90
   13a78:	00900d93          	li	s11,9
   13a7c:	02a00c93          	li	s9,42
   13a80:	0007cb03          	lbu	s6,0(a5)
   13a84:	00178713          	addi	a4,a5,1
   13a88:	00e12e23          	sw	a4,28(sp)
   13a8c:	fe0b0793          	addi	a5,s6,-32
   13a90:	00fc7463          	bleu	a5,s8,13a98 <_vfprintf_r+0x248>
   13a94:	2440106f          	j	14cd8 <_vfprintf_r+0x1488>
   13a98:	04c12703          	lw	a4,76(sp)
   13a9c:	00279793          	slli	a5,a5,0x2
   13aa0:	00e787b3          	add	a5,a5,a4
   13aa4:	0007a783          	lw	a5,0(a5)
   13aa8:	00078067          	jr	a5
   13aac:	00140413          	addi	s0,s0,1
   13ab0:	f41ff06f          	j	139f0 <_vfprintf_r+0x1a0>
   13ab4:	00098513          	mv	a0,s3
   13ab8:	020050ef          	jal	ra,18ad8 <_localeconv_r>
   13abc:	00452783          	lw	a5,4(a0)
   13ac0:	00078513          	mv	a0,a5
   13ac4:	02f12c23          	sw	a5,56(sp)
   13ac8:	d65ff0ef          	jal	ra,1382c <strlen>
   13acc:	02a12823          	sw	a0,48(sp)
   13ad0:	00098513          	mv	a0,s3
   13ad4:	004050ef          	jal	ra,18ad8 <_localeconv_r>
   13ad8:	00852783          	lw	a5,8(a0)
   13adc:	00f12823          	sw	a5,16(sp)
   13ae0:	03012783          	lw	a5,48(sp)
   13ae4:	00078c63          	beqz	a5,13afc <_vfprintf_r+0x2ac>
   13ae8:	01012783          	lw	a5,16(sp)
   13aec:	00078863          	beqz	a5,13afc <_vfprintf_r+0x2ac>
   13af0:	0007c783          	lbu	a5,0(a5)
   13af4:	00078463          	beqz	a5,13afc <_vfprintf_r+0x2ac>
   13af8:	40046413          	ori	s0,s0,1024
   13afc:	01c12783          	lw	a5,28(sp)
   13b00:	f81ff06f          	j	13a80 <_vfprintf_r+0x230>
   13b04:	0b714783          	lbu	a5,183(sp)
   13b08:	fe079ae3          	bnez	a5,13afc <_vfprintf_r+0x2ac>
   13b0c:	02000793          	li	a5,32
   13b10:	0af10ba3          	sb	a5,183(sp)
   13b14:	fe9ff06f          	j	13afc <_vfprintf_r+0x2ac>
   13b18:	00146413          	ori	s0,s0,1
   13b1c:	fe1ff06f          	j	13afc <_vfprintf_r+0x2ac>
   13b20:	000aa783          	lw	a5,0(s5)
   13b24:	004a8a93          	addi	s5,s5,4
   13b28:	02f12423          	sw	a5,40(sp)
   13b2c:	fc07d8e3          	bgez	a5,13afc <_vfprintf_r+0x2ac>
   13b30:	40f007b3          	neg	a5,a5
   13b34:	02f12423          	sw	a5,40(sp)
   13b38:	00446413          	ori	s0,s0,4
   13b3c:	fc1ff06f          	j	13afc <_vfprintf_r+0x2ac>
   13b40:	02b00793          	li	a5,43
   13b44:	fcdff06f          	j	13b10 <_vfprintf_r+0x2c0>
   13b48:	01c12703          	lw	a4,28(sp)
   13b4c:	01c12783          	lw	a5,28(sp)
   13b50:	00074b03          	lbu	s6,0(a4)
   13b54:	00178793          	addi	a5,a5,1
   13b58:	059b1463          	bne	s6,s9,13ba0 <_vfprintf_r+0x350>
   13b5c:	000aad03          	lw	s10,0(s5)
   13b60:	004a8713          	addi	a4,s5,4
   13b64:	000d5463          	bgez	s10,13b6c <_vfprintf_r+0x31c>
   13b68:	fff00d13          	li	s10,-1
   13b6c:	00070a93          	mv	s5,a4
   13b70:	00f12e23          	sw	a5,28(sp)
   13b74:	f89ff06f          	j	13afc <_vfprintf_r+0x2ac>
   13b78:	002d1713          	slli	a4,s10,0x2
   13b7c:	00178793          	addi	a5,a5,1
   13b80:	01a70333          	add	t1,a4,s10
   13b84:	fff7cb03          	lbu	s6,-1(a5)
   13b88:	00131313          	slli	t1,t1,0x1
   13b8c:	00d30d33          	add	s10,t1,a3
   13b90:	fd0b0693          	addi	a3,s6,-48
   13b94:	feddf2e3          	bleu	a3,s11,13b78 <_vfprintf_r+0x328>
   13b98:	00f12e23          	sw	a5,28(sp)
   13b9c:	ef1ff06f          	j	13a8c <_vfprintf_r+0x23c>
   13ba0:	00000d13          	li	s10,0
   13ba4:	fedff06f          	j	13b90 <_vfprintf_r+0x340>
   13ba8:	08046413          	ori	s0,s0,128
   13bac:	f51ff06f          	j	13afc <_vfprintf_r+0x2ac>
   13bb0:	01c12783          	lw	a5,28(sp)
   13bb4:	02012423          	sw	zero,40(sp)
   13bb8:	02812703          	lw	a4,40(sp)
   13bbc:	02812683          	lw	a3,40(sp)
   13bc0:	fd0b0b13          	addi	s6,s6,-48
   13bc4:	00271713          	slli	a4,a4,0x2
   13bc8:	00d70733          	add	a4,a4,a3
   13bcc:	00171713          	slli	a4,a4,0x1
   13bd0:	00178793          	addi	a5,a5,1
   13bd4:	00eb0733          	add	a4,s6,a4
   13bd8:	fff7cb03          	lbu	s6,-1(a5)
   13bdc:	02e12423          	sw	a4,40(sp)
   13be0:	fd0b0713          	addi	a4,s6,-48
   13be4:	fcedfae3          	bleu	a4,s11,13bb8 <_vfprintf_r+0x368>
   13be8:	fb1ff06f          	j	13b98 <_vfprintf_r+0x348>
   13bec:	00846413          	ori	s0,s0,8
   13bf0:	f0dff06f          	j	13afc <_vfprintf_r+0x2ac>
   13bf4:	01c12783          	lw	a5,28(sp)
   13bf8:	0007c703          	lbu	a4,0(a5)
   13bfc:	06800793          	li	a5,104
   13c00:	00f71c63          	bne	a4,a5,13c18 <_vfprintf_r+0x3c8>
   13c04:	01c12783          	lw	a5,28(sp)
   13c08:	20046413          	ori	s0,s0,512
   13c0c:	00178793          	addi	a5,a5,1
   13c10:	00f12e23          	sw	a5,28(sp)
   13c14:	ee9ff06f          	j	13afc <_vfprintf_r+0x2ac>
   13c18:	04046413          	ori	s0,s0,64
   13c1c:	ee1ff06f          	j	13afc <_vfprintf_r+0x2ac>
   13c20:	01c12783          	lw	a5,28(sp)
   13c24:	0007c703          	lbu	a4,0(a5)
   13c28:	06c00793          	li	a5,108
   13c2c:	00f71c63          	bne	a4,a5,13c44 <_vfprintf_r+0x3f4>
   13c30:	01c12783          	lw	a5,28(sp)
   13c34:	00178793          	addi	a5,a5,1
   13c38:	00f12e23          	sw	a5,28(sp)
   13c3c:	02046413          	ori	s0,s0,32
   13c40:	ebdff06f          	j	13afc <_vfprintf_r+0x2ac>
   13c44:	01046413          	ori	s0,s0,16
   13c48:	eb5ff06f          	j	13afc <_vfprintf_r+0x2ac>
   13c4c:	004a8793          	addi	a5,s5,4
   13c50:	00f12c23          	sw	a5,24(sp)
   13c54:	000aa783          	lw	a5,0(s5)
   13c58:	0a010ba3          	sb	zero,183(sp)
   13c5c:	12f10e23          	sb	a5,316(sp)
   13c60:	00012623          	sw	zero,12(sp)
   13c64:	00100d13          	li	s10,1
   13c68:	00000713          	li	a4,0
   13c6c:	00000c93          	li	s9,0
   13c70:	00000c13          	li	s8,0
   13c74:	00000d93          	li	s11,0
   13c78:	13c10493          	addi	s1,sp,316
   13c7c:	02e12623          	sw	a4,44(sp)
   13c80:	01a75463          	ble	s10,a4,13c88 <_vfprintf_r+0x438>
   13c84:	03a12623          	sw	s10,44(sp)
   13c88:	0b714683          	lbu	a3,183(sp)
   13c8c:	00068863          	beqz	a3,13c9c <_vfprintf_r+0x44c>
   13c90:	02c12783          	lw	a5,44(sp)
   13c94:	00178793          	addi	a5,a5,1
   13c98:	02f12623          	sw	a5,44(sp)
   13c9c:	00247a93          	andi	s5,s0,2
   13ca0:	000a8863          	beqz	s5,13cb0 <_vfprintf_r+0x460>
   13ca4:	02c12783          	lw	a5,44(sp)
   13ca8:	00278793          	addi	a5,a5,2
   13cac:	02f12623          	sw	a5,44(sp)
   13cb0:	08447793          	andi	a5,s0,132
   13cb4:	04f12223          	sw	a5,68(sp)
   13cb8:	08079063          	bnez	a5,13d38 <_vfprintf_r+0x4e8>
   13cbc:	02812783          	lw	a5,40(sp)
   13cc0:	02c12683          	lw	a3,44(sp)
   13cc4:	40d786b3          	sub	a3,a5,a3
   13cc8:	06d05863          	blez	a3,13d38 <_vfprintf_r+0x4e8>
   13ccc:	000247b7          	lui	a5,0x24
   13cd0:	01000e13          	li	t3,16
   13cd4:	48c78813          	addi	a6,a5,1164 # 2448c <blanks.4513>
   13cd8:	00700e93          	li	t4,7
   13cdc:	0d812603          	lw	a2,216(sp)
   13ce0:	010ba023          	sw	a6,0(s7)
   13ce4:	0dc12583          	lw	a1,220(sp)
   13ce8:	00160613          	addi	a2,a2,1
   13cec:	008b8513          	addi	a0,s7,8
   13cf0:	00de5463          	ble	a3,t3,13cf8 <_vfprintf_r+0x4a8>
   13cf4:	7f90006f          	j	14cec <_vfprintf_r+0x149c>
   13cf8:	00dba223          	sw	a3,4(s7)
   13cfc:	00b686b3          	add	a3,a3,a1
   13d00:	0cd12e23          	sw	a3,220(sp)
   13d04:	0cc12c23          	sw	a2,216(sp)
   13d08:	00700693          	li	a3,7
   13d0c:	00050b93          	mv	s7,a0
   13d10:	02c6d463          	ble	a2,a3,13d38 <_vfprintf_r+0x4e8>
   13d14:	0d410613          	addi	a2,sp,212
   13d18:	00090593          	mv	a1,s2
   13d1c:	00098513          	mv	a0,s3
   13d20:	04e12423          	sw	a4,72(sp)
   13d24:	124090ef          	jal	ra,1ce48 <__sprint_r>
   13d28:	00050463          	beqz	a0,13d30 <_vfprintf_r+0x4e0>
   13d2c:	2310106f          	j	1575c <_vfprintf_r+0x1f0c>
   13d30:	04812703          	lw	a4,72(sp)
   13d34:	0fc10b93          	addi	s7,sp,252
   13d38:	0b714683          	lbu	a3,183(sp)
   13d3c:	04068e63          	beqz	a3,13d98 <_vfprintf_r+0x548>
   13d40:	0b710693          	addi	a3,sp,183
   13d44:	00dba023          	sw	a3,0(s7)
   13d48:	00100693          	li	a3,1
   13d4c:	00dba223          	sw	a3,4(s7)
   13d50:	0dc12683          	lw	a3,220(sp)
   13d54:	00700613          	li	a2,7
   13d58:	008b8b93          	addi	s7,s7,8
   13d5c:	00168693          	addi	a3,a3,1 # 2001 <main-0xe073>
   13d60:	0cd12e23          	sw	a3,220(sp)
   13d64:	0d812683          	lw	a3,216(sp)
   13d68:	00168693          	addi	a3,a3,1
   13d6c:	0cd12c23          	sw	a3,216(sp)
   13d70:	02d65463          	ble	a3,a2,13d98 <_vfprintf_r+0x548>
   13d74:	0d410613          	addi	a2,sp,212
   13d78:	00090593          	mv	a1,s2
   13d7c:	00098513          	mv	a0,s3
   13d80:	04e12423          	sw	a4,72(sp)
   13d84:	0c4090ef          	jal	ra,1ce48 <__sprint_r>
   13d88:	00050463          	beqz	a0,13d90 <_vfprintf_r+0x540>
   13d8c:	1d10106f          	j	1575c <_vfprintf_r+0x1f0c>
   13d90:	04812703          	lw	a4,72(sp)
   13d94:	0fc10b93          	addi	s7,sp,252
   13d98:	040a8e63          	beqz	s5,13df4 <_vfprintf_r+0x5a4>
   13d9c:	0b810693          	addi	a3,sp,184
   13da0:	00dba023          	sw	a3,0(s7)
   13da4:	00200693          	li	a3,2
   13da8:	00dba223          	sw	a3,4(s7)
   13dac:	0dc12683          	lw	a3,220(sp)
   13db0:	00700613          	li	a2,7
   13db4:	008b8b93          	addi	s7,s7,8
   13db8:	00268693          	addi	a3,a3,2
   13dbc:	0cd12e23          	sw	a3,220(sp)
   13dc0:	0d812683          	lw	a3,216(sp)
   13dc4:	00168693          	addi	a3,a3,1
   13dc8:	0cd12c23          	sw	a3,216(sp)
   13dcc:	02d65463          	ble	a3,a2,13df4 <_vfprintf_r+0x5a4>
   13dd0:	0d410613          	addi	a2,sp,212
   13dd4:	00090593          	mv	a1,s2
   13dd8:	00098513          	mv	a0,s3
   13ddc:	04e12423          	sw	a4,72(sp)
   13de0:	068090ef          	jal	ra,1ce48 <__sprint_r>
   13de4:	00050463          	beqz	a0,13dec <_vfprintf_r+0x59c>
   13de8:	1750106f          	j	1575c <_vfprintf_r+0x1f0c>
   13dec:	04812703          	lw	a4,72(sp)
   13df0:	0fc10b93          	addi	s7,sp,252
   13df4:	04412783          	lw	a5,68(sp)
   13df8:	08000693          	li	a3,128
   13dfc:	06d79c63          	bne	a5,a3,13e74 <_vfprintf_r+0x624>
   13e00:	02812783          	lw	a5,40(sp)
   13e04:	02c12683          	lw	a3,44(sp)
   13e08:	40d78ab3          	sub	s5,a5,a3
   13e0c:	07505463          	blez	s5,13e74 <_vfprintf_r+0x624>
   13e10:	01000813          	li	a6,16
   13e14:	00700e13          	li	t3,7
   13e18:	01412783          	lw	a5,20(sp)
   13e1c:	0d812683          	lw	a3,216(sp)
   13e20:	0dc12603          	lw	a2,220(sp)
   13e24:	00fba023          	sw	a5,0(s7)
   13e28:	00168693          	addi	a3,a3,1
   13e2c:	008b8593          	addi	a1,s7,8
   13e30:	71584ae3          	blt	a6,s5,14d44 <_vfprintf_r+0x14f4>
   13e34:	015ba223          	sw	s5,4(s7)
   13e38:	00ca8ab3          	add	s5,s5,a2
   13e3c:	0d512e23          	sw	s5,220(sp)
   13e40:	0cd12c23          	sw	a3,216(sp)
   13e44:	00700613          	li	a2,7
   13e48:	00058b93          	mv	s7,a1
   13e4c:	02d65463          	ble	a3,a2,13e74 <_vfprintf_r+0x624>
   13e50:	0d410613          	addi	a2,sp,212
   13e54:	00090593          	mv	a1,s2
   13e58:	00098513          	mv	a0,s3
   13e5c:	04e12223          	sw	a4,68(sp)
   13e60:	7e9080ef          	jal	ra,1ce48 <__sprint_r>
   13e64:	00050463          	beqz	a0,13e6c <_vfprintf_r+0x61c>
   13e68:	0f50106f          	j	1575c <_vfprintf_r+0x1f0c>
   13e6c:	04412703          	lw	a4,68(sp)
   13e70:	0fc10b93          	addi	s7,sp,252
   13e74:	41a70ab3          	sub	s5,a4,s10
   13e78:	07505063          	blez	s5,13ed8 <_vfprintf_r+0x688>
   13e7c:	01000813          	li	a6,16
   13e80:	00700e13          	li	t3,7
   13e84:	01412783          	lw	a5,20(sp)
   13e88:	0d812683          	lw	a3,216(sp)
   13e8c:	0dc12703          	lw	a4,220(sp)
   13e90:	00fba023          	sw	a5,0(s7)
   13e94:	00168693          	addi	a3,a3,1
   13e98:	008b8613          	addi	a2,s7,8
   13e9c:	6f5848e3          	blt	a6,s5,14d8c <_vfprintf_r+0x153c>
   13ea0:	00ea8733          	add	a4,s5,a4
   13ea4:	015ba223          	sw	s5,4(s7)
   13ea8:	0ce12e23          	sw	a4,220(sp)
   13eac:	0cd12c23          	sw	a3,216(sp)
   13eb0:	00700713          	li	a4,7
   13eb4:	00060b93          	mv	s7,a2
   13eb8:	02d75063          	ble	a3,a4,13ed8 <_vfprintf_r+0x688>
   13ebc:	0d410613          	addi	a2,sp,212
   13ec0:	00090593          	mv	a1,s2
   13ec4:	00098513          	mv	a0,s3
   13ec8:	781080ef          	jal	ra,1ce48 <__sprint_r>
   13ecc:	00050463          	beqz	a0,13ed4 <_vfprintf_r+0x684>
   13ed0:	08d0106f          	j	1575c <_vfprintf_r+0x1f0c>
   13ed4:	0fc10b93          	addi	s7,sp,252
   13ed8:	10047693          	andi	a3,s0,256
   13edc:	0dc12703          	lw	a4,220(sp)
   13ee0:	6e0696e3          	bnez	a3,14dcc <_vfprintf_r+0x157c>
   13ee4:	0d812783          	lw	a5,216(sp)
   13ee8:	00ed0333          	add	t1,s10,a4
   13eec:	009ba023          	sw	s1,0(s7)
   13ef0:	00178793          	addi	a5,a5,1
   13ef4:	01aba223          	sw	s10,4(s7)
   13ef8:	0c612e23          	sw	t1,220(sp)
   13efc:	0cf12c23          	sw	a5,216(sp)
   13f00:	00700713          	li	a4,7
   13f04:	008b8b93          	addi	s7,s7,8
   13f08:	00f74463          	blt	a4,a5,13f10 <_vfprintf_r+0x6c0>
   13f0c:	1880106f          	j	15094 <_vfprintf_r+0x1844>
   13f10:	0d410613          	addi	a2,sp,212
   13f14:	00090593          	mv	a1,s2
   13f18:	00098513          	mv	a0,s3
   13f1c:	72d080ef          	jal	ra,1ce48 <__sprint_r>
   13f20:	00050463          	beqz	a0,13f28 <_vfprintf_r+0x6d8>
   13f24:	0390106f          	j	1575c <_vfprintf_r+0x1f0c>
   13f28:	0fc10b93          	addi	s7,sp,252
   13f2c:	1680106f          	j	15094 <_vfprintf_r+0x1844>
   13f30:	01046413          	ori	s0,s0,16
   13f34:	02047793          	andi	a5,s0,32
   13f38:	06078463          	beqz	a5,13fa0 <_vfprintf_r+0x750>
   13f3c:	007a8a93          	addi	s5,s5,7
   13f40:	ff8afa93          	andi	s5,s5,-8
   13f44:	000aac83          	lw	s9,0(s5)
   13f48:	004aad83          	lw	s11,4(s5)
   13f4c:	008a8793          	addi	a5,s5,8
   13f50:	00f12c23          	sw	a5,24(sp)
   13f54:	000dc463          	bltz	s11,13f5c <_vfprintf_r+0x70c>
   13f58:	0890106f          	j	157e0 <_vfprintf_r+0x1f90>
   13f5c:	41900cb3          	neg	s9,s9
   13f60:	019037b3          	snez	a5,s9
   13f64:	41b00db3          	neg	s11,s11
   13f68:	40fd8db3          	sub	s11,s11,a5
   13f6c:	02d00793          	li	a5,45
   13f70:	0af10ba3          	sb	a5,183(sp)
   13f74:	00100793          	li	a5,1
   13f78:	fff00713          	li	a4,-1
   13f7c:	3ced04e3          	beq	s10,a4,14b44 <_vfprintf_r+0x12f4>
   13f80:	00040713          	mv	a4,s0
   13f84:	01bce6b3          	or	a3,s9,s11
   13f88:	f7f47413          	andi	s0,s0,-129
   13f8c:	3a069ce3          	bnez	a3,14b44 <_vfprintf_r+0x12f4>
   13f90:	520d06e3          	beqz	s10,14cbc <_vfprintf_r+0x146c>
   13f94:	00100713          	li	a4,1
   13f98:	3ae79ae3          	bne	a5,a4,14b4c <_vfprintf_r+0x12fc>
   13f9c:	0590106f          	j	157f4 <_vfprintf_r+0x1fa4>
   13fa0:	004a8793          	addi	a5,s5,4
   13fa4:	00f12c23          	sw	a5,24(sp)
   13fa8:	01047793          	andi	a5,s0,16
   13fac:	00078863          	beqz	a5,13fbc <_vfprintf_r+0x76c>
   13fb0:	000aac83          	lw	s9,0(s5)
   13fb4:	41fcdd93          	srai	s11,s9,0x1f
   13fb8:	f9dff06f          	j	13f54 <_vfprintf_r+0x704>
   13fbc:	04047793          	andi	a5,s0,64
   13fc0:	000aac83          	lw	s9,0(s5)
   13fc4:	00078863          	beqz	a5,13fd4 <_vfprintf_r+0x784>
   13fc8:	010c9c93          	slli	s9,s9,0x10
   13fcc:	410cdc93          	srai	s9,s9,0x10
   13fd0:	fe5ff06f          	j	13fb4 <_vfprintf_r+0x764>
   13fd4:	20047793          	andi	a5,s0,512
   13fd8:	fc078ee3          	beqz	a5,13fb4 <_vfprintf_r+0x764>
   13fdc:	018c9c93          	slli	s9,s9,0x18
   13fe0:	418cdc93          	srai	s9,s9,0x18
   13fe4:	fd1ff06f          	j	13fb4 <_vfprintf_r+0x764>
   13fe8:	00847793          	andi	a5,s0,8
   13fec:	0a078863          	beqz	a5,1409c <_vfprintf_r+0x84c>
   13ff0:	004a8793          	addi	a5,s5,4
   13ff4:	00f12c23          	sw	a5,24(sp)
   13ff8:	000aa783          	lw	a5,0(s5)
   13ffc:	0007a603          	lw	a2,0(a5)
   14000:	0047a683          	lw	a3,4(a5)
   14004:	0087a703          	lw	a4,8(a5)
   14008:	00c7a783          	lw	a5,12(a5)
   1400c:	0ec12023          	sw	a2,224(sp)
   14010:	0ed12223          	sw	a3,228(sp)
   14014:	0ee12423          	sw	a4,232(sp)
   14018:	0e010513          	addi	a0,sp,224
   1401c:	0ef12623          	sw	a5,236(sp)
   14020:	24d040ef          	jal	ra,18a6c <_ldcheck>
   14024:	0aa12e23          	sw	a0,188(sp)
   14028:	00200793          	li	a5,2
   1402c:	0af51e63          	bne	a0,a5,140e8 <_vfprintf_r+0x898>
   14030:	0e012783          	lw	a5,224(sp)
   14034:	09010593          	addi	a1,sp,144
   14038:	0a010513          	addi	a0,sp,160
   1403c:	0af12023          	sw	a5,160(sp)
   14040:	0e412783          	lw	a5,228(sp)
   14044:	08012823          	sw	zero,144(sp)
   14048:	08012a23          	sw	zero,148(sp)
   1404c:	0af12223          	sw	a5,164(sp)
   14050:	0e812783          	lw	a5,232(sp)
   14054:	08012c23          	sw	zero,152(sp)
   14058:	08012e23          	sw	zero,156(sp)
   1405c:	0af12423          	sw	a5,168(sp)
   14060:	0ec12783          	lw	a5,236(sp)
   14064:	0af12623          	sw	a5,172(sp)
   14068:	1150c0ef          	jal	ra,2097c <__letf2>
   1406c:	00055663          	bgez	a0,14078 <_vfprintf_r+0x828>
   14070:	02d00793          	li	a5,45
   14074:	0af10ba3          	sb	a5,183(sp)
   14078:	04700793          	li	a5,71
   1407c:	0767d063          	ble	s6,a5,140dc <_vfprintf_r+0x88c>
   14080:	000244b7          	lui	s1,0x24
   14084:	4b048493          	addi	s1,s1,1200 # 244b0 <zeroes.4514+0x14>
   14088:	f7f47413          	andi	s0,s0,-129
   1408c:	00012623          	sw	zero,12(sp)
   14090:	00300d13          	li	s10,3
   14094:	00000713          	li	a4,0
   14098:	3110006f          	j	14ba8 <_vfprintf_r+0x1358>
   1409c:	007a8a93          	addi	s5,s5,7
   140a0:	ff8afa93          	andi	s5,s5,-8
   140a4:	000aa583          	lw	a1,0(s5)
   140a8:	004aa603          	lw	a2,4(s5)
   140ac:	008a8793          	addi	a5,s5,8
   140b0:	0a010513          	addi	a0,sp,160
   140b4:	00f12c23          	sw	a5,24(sp)
   140b8:	5e80f0ef          	jal	ra,236a0 <__extenddftf2>
   140bc:	0a012783          	lw	a5,160(sp)
   140c0:	0ef12023          	sw	a5,224(sp)
   140c4:	0a412783          	lw	a5,164(sp)
   140c8:	0ef12223          	sw	a5,228(sp)
   140cc:	0a812783          	lw	a5,168(sp)
   140d0:	0ef12423          	sw	a5,232(sp)
   140d4:	0ac12783          	lw	a5,172(sp)
   140d8:	f41ff06f          	j	14018 <_vfprintf_r+0x7c8>
   140dc:	000244b7          	lui	s1,0x24
   140e0:	4ac48493          	addi	s1,s1,1196 # 244ac <zeroes.4514+0x10>
   140e4:	fa5ff06f          	j	14088 <_vfprintf_r+0x838>
   140e8:	00100793          	li	a5,1
   140ec:	02f51a63          	bne	a0,a5,14120 <_vfprintf_r+0x8d0>
   140f0:	0ec12783          	lw	a5,236(sp)
   140f4:	0007d663          	bgez	a5,14100 <_vfprintf_r+0x8b0>
   140f8:	02d00793          	li	a5,45
   140fc:	0af10ba3          	sb	a5,183(sp)
   14100:	04700793          	li	a5,71
   14104:	0167d863          	ble	s6,a5,14114 <_vfprintf_r+0x8c4>
   14108:	000244b7          	lui	s1,0x24
   1410c:	4b848493          	addi	s1,s1,1208 # 244b8 <zeroes.4514+0x1c>
   14110:	f79ff06f          	j	14088 <_vfprintf_r+0x838>
   14114:	000244b7          	lui	s1,0x24
   14118:	4b448493          	addi	s1,s1,1204 # 244b4 <zeroes.4514+0x18>
   1411c:	f6dff06f          	j	14088 <_vfprintf_r+0x838>
   14120:	fdfb7c13          	andi	s8,s6,-33
   14124:	04100793          	li	a5,65
   14128:	04fc1e63          	bne	s8,a5,14184 <_vfprintf_r+0x934>
   1412c:	03000793          	li	a5,48
   14130:	0af10c23          	sb	a5,184(sp)
   14134:	06100713          	li	a4,97
   14138:	07800793          	li	a5,120
   1413c:	00eb0463          	beq	s6,a4,14144 <_vfprintf_r+0x8f4>
   14140:	05800793          	li	a5,88
   14144:	0af10ca3          	sb	a5,185(sp)
   14148:	06300793          	li	a5,99
   1414c:	00246413          	ori	s0,s0,2
   14150:	4ba7d463          	ble	s10,a5,145f8 <_vfprintf_r+0xda8>
   14154:	001d0593          	addi	a1,s10,1
   14158:	00098513          	mv	a0,s3
   1415c:	405040ef          	jal	ra,18d60 <_malloc_r>
   14160:	00050493          	mv	s1,a0
   14164:	4a051063          	bnez	a0,14604 <_vfprintf_r+0xdb4>
   14168:	00c95783          	lhu	a5,12(s2)
   1416c:	0407e793          	ori	a5,a5,64
   14170:	00f91623          	sh	a5,12(s2)
   14174:	00c95783          	lhu	a5,12(s2)
   14178:	0407f793          	andi	a5,a5,64
   1417c:	fe078263          	beqz	a5,13960 <_vfprintf_r+0x110>
   14180:	fd8ff06f          	j	13958 <_vfprintf_r+0x108>
   14184:	fff00793          	li	a5,-1
   14188:	48fd0263          	beq	s10,a5,1460c <_vfprintf_r+0xdbc>
   1418c:	04700793          	li	a5,71
   14190:	00012623          	sw	zero,12(sp)
   14194:	00fc1863          	bne	s8,a5,141a4 <_vfprintf_r+0x954>
   14198:	000d1663          	bnez	s10,141a4 <_vfprintf_r+0x954>
   1419c:	01a12623          	sw	s10,12(sp)
   141a0:	00100d13          	li	s10,1
   141a4:	0ec12a03          	lw	s4,236(sp)
   141a8:	10046793          	ori	a5,s0,256
   141ac:	02f12623          	sw	a5,44(sp)
   141b0:	04012223          	sw	zero,68(sp)
   141b4:	0e012e83          	lw	t4,224(sp)
   141b8:	0e412e03          	lw	t3,228(sp)
   141bc:	0e812d83          	lw	s11,232(sp)
   141c0:	000a5a63          	bgez	s4,141d4 <_vfprintf_r+0x984>
   141c4:	800007b7          	lui	a5,0x80000
   141c8:	0147ca33          	xor	s4,a5,s4
   141cc:	02d00793          	li	a5,45
   141d0:	04f12223          	sw	a5,68(sp)
   141d4:	04100793          	li	a5,65
   141d8:	48fc1463          	bne	s8,a5,14660 <_vfprintf_r+0xe10>
   141dc:	0a010513          	addi	a0,sp,160
   141e0:	0bd12023          	sw	t4,160(sp)
   141e4:	0bc12223          	sw	t3,164(sp)
   141e8:	0bb12423          	sw	s11,168(sp)
   141ec:	0b412623          	sw	s4,172(sp)
   141f0:	6b80f0ef          	jal	ra,238a8 <__trunctfdf2>
   141f4:	0bc10613          	addi	a2,sp,188
   141f8:	069060ef          	jal	ra,1aa60 <frexp>
   141fc:	00058613          	mv	a2,a1
   14200:	00050593          	mv	a1,a0
   14204:	0a010513          	addi	a0,sp,160
   14208:	4980f0ef          	jal	ra,236a0 <__extenddftf2>
   1420c:	0a012783          	lw	a5,160(sp)
   14210:	07010613          	addi	a2,sp,112
   14214:	08010593          	addi	a1,sp,128
   14218:	08f12023          	sw	a5,128(sp)
   1421c:	0a412783          	lw	a5,164(sp)
   14220:	09010513          	addi	a0,sp,144
   14224:	06012823          	sw	zero,112(sp)
   14228:	08f12223          	sw	a5,132(sp)
   1422c:	0a812783          	lw	a5,168(sp)
   14230:	06012a23          	sw	zero,116(sp)
   14234:	06012c23          	sw	zero,120(sp)
   14238:	08f12423          	sw	a5,136(sp)
   1423c:	0ac12783          	lw	a5,172(sp)
   14240:	08f12623          	sw	a5,140(sp)
   14244:	3ffc07b7          	lui	a5,0x3ffc0
   14248:	06f12e23          	sw	a5,124(sp)
   1424c:	0790c0ef          	jal	ra,20ac4 <__multf3>
   14250:	09012803          	lw	a6,144(sp)
   14254:	09412603          	lw	a2,148(sp)
   14258:	09812683          	lw	a3,152(sp)
   1425c:	09c12d83          	lw	s11,156(sp)
   14260:	09010593          	addi	a1,sp,144
   14264:	0a010513          	addi	a0,sp,160
   14268:	0b012023          	sw	a6,160(sp)
   1426c:	05012a23          	sw	a6,84(sp)
   14270:	0ac12223          	sw	a2,164(sp)
   14274:	04c12823          	sw	a2,80(sp)
   14278:	0ad12423          	sw	a3,168(sp)
   1427c:	04d12423          	sw	a3,72(sp)
   14280:	0bb12623          	sw	s11,172(sp)
   14284:	08012823          	sw	zero,144(sp)
   14288:	08012a23          	sw	zero,148(sp)
   1428c:	08012c23          	sw	zero,152(sp)
   14290:	08012e23          	sw	zero,156(sp)
   14294:	4d40c0ef          	jal	ra,20768 <__eqtf2>
   14298:	04812683          	lw	a3,72(sp)
   1429c:	05012603          	lw	a2,80(sp)
   142a0:	05412803          	lw	a6,84(sp)
   142a4:	00051663          	bnez	a0,142b0 <_vfprintf_r+0xa60>
   142a8:	00100793          	li	a5,1
   142ac:	0af12e23          	sw	a5,188(sp)
   142b0:	06100793          	li	a5,97
   142b4:	36fb0263          	beq	s6,a5,14618 <_vfprintf_r+0xdc8>
   142b8:	00024a37          	lui	s4,0x24
   142bc:	4d0a0a13          	addi	s4,s4,1232 # 244d0 <zeroes.4514+0x34>
   142c0:	fffd0e13          	addi	t3,s10,-1
   142c4:	00048c93          	mv	s9,s1
   142c8:	400307b7          	lui	a5,0x40030
   142cc:	09010593          	addi	a1,sp,144
   142d0:	08c12a23          	sw	a2,148(sp)
   142d4:	0a010513          	addi	a0,sp,160
   142d8:	08010613          	addi	a2,sp,128
   142dc:	05c12c23          	sw	t3,88(sp)
   142e0:	08f12623          	sw	a5,140(sp)
   142e4:	09012823          	sw	a6,144(sp)
   142e8:	08d12c23          	sw	a3,152(sp)
   142ec:	09b12e23          	sw	s11,156(sp)
   142f0:	08012023          	sw	zero,128(sp)
   142f4:	08012223          	sw	zero,132(sp)
   142f8:	08012423          	sw	zero,136(sp)
   142fc:	7c80c0ef          	jal	ra,20ac4 <__multf3>
   14300:	0a012603          	lw	a2,160(sp)
   14304:	0a412683          	lw	a3,164(sp)
   14308:	0a812703          	lw	a4,168(sp)
   1430c:	0a010513          	addi	a0,sp,160
   14310:	04c12a23          	sw	a2,84(sp)
   14314:	04d12823          	sw	a3,80(sp)
   14318:	04e12423          	sw	a4,72(sp)
   1431c:	0a80f0ef          	jal	ra,233c4 <__fixtfsi>
   14320:	00050593          	mv	a1,a0
   14324:	00050a93          	mv	s5,a0
   14328:	0a010513          	addi	a0,sp,160
   1432c:	0ac12d83          	lw	s11,172(sp)
   14330:	1e40f0ef          	jal	ra,23514 <__floatsitf>
   14334:	04812703          	lw	a4,72(sp)
   14338:	05412603          	lw	a2,84(sp)
   1433c:	05012683          	lw	a3,80(sp)
   14340:	08e12423          	sw	a4,136(sp)
   14344:	0a012703          	lw	a4,160(sp)
   14348:	08c12023          	sw	a2,128(sp)
   1434c:	08010593          	addi	a1,sp,128
   14350:	06e12823          	sw	a4,112(sp)
   14354:	0a412703          	lw	a4,164(sp)
   14358:	07010613          	addi	a2,sp,112
   1435c:	09010513          	addi	a0,sp,144
   14360:	06e12a23          	sw	a4,116(sp)
   14364:	0a812703          	lw	a4,168(sp)
   14368:	09b12623          	sw	s11,140(sp)
   1436c:	08d12223          	sw	a3,132(sp)
   14370:	06e12c23          	sw	a4,120(sp)
   14374:	0ac12703          	lw	a4,172(sp)
   14378:	001c8c93          	addi	s9,s9,1 # 800001 <__global_pointer$+0x7d9d91>
   1437c:	06e12e23          	sw	a4,124(sp)
   14380:	2ad0d0ef          	jal	ra,21e2c <__subtf3>
   14384:	015a05b3          	add	a1,s4,s5
   14388:	0005c583          	lbu	a1,0(a1)
   1438c:	05812e03          	lw	t3,88(sp)
   14390:	09c12e83          	lw	t4,156(sp)
   14394:	09012283          	lw	t0,144(sp)
   14398:	09412f83          	lw	t6,148(sp)
   1439c:	09812f03          	lw	t5,152(sp)
   143a0:	05c12423          	sw	t3,72(sp)
   143a4:	febc8fa3          	sb	a1,-1(s9)
   143a8:	fff00793          	li	a5,-1
   143ac:	000e8d93          	mv	s11,t4
   143b0:	06fe0c63          	beq	t3,a5,14428 <_vfprintf_r+0xbd8>
   143b4:	fffe0e13          	addi	t3,t3,-1
   143b8:	09010593          	addi	a1,sp,144
   143bc:	0a010513          	addi	a0,sp,160
   143c0:	07d12623          	sw	t4,108(sp)
   143c4:	07e12423          	sw	t5,104(sp)
   143c8:	07f12223          	sw	t6,100(sp)
   143cc:	06512023          	sw	t0,96(sp)
   143d0:	05c12e23          	sw	t3,92(sp)
   143d4:	0a512023          	sw	t0,160(sp)
   143d8:	04512c23          	sw	t0,88(sp)
   143dc:	0bf12223          	sw	t6,164(sp)
   143e0:	05f12a23          	sw	t6,84(sp)
   143e4:	0be12423          	sw	t5,168(sp)
   143e8:	05e12823          	sw	t5,80(sp)
   143ec:	0bd12623          	sw	t4,172(sp)
   143f0:	08012823          	sw	zero,144(sp)
   143f4:	08012a23          	sw	zero,148(sp)
   143f8:	08012c23          	sw	zero,152(sp)
   143fc:	08012e23          	sw	zero,156(sp)
   14400:	3680c0ef          	jal	ra,20768 <__eqtf2>
   14404:	05012683          	lw	a3,80(sp)
   14408:	05412603          	lw	a2,84(sp)
   1440c:	05812803          	lw	a6,88(sp)
   14410:	05c12e03          	lw	t3,92(sp)
   14414:	06012283          	lw	t0,96(sp)
   14418:	06412f83          	lw	t6,100(sp)
   1441c:	06812f03          	lw	t5,104(sp)
   14420:	06c12e83          	lw	t4,108(sp)
   14424:	ea0512e3          	bnez	a0,142c8 <_vfprintf_r+0xa78>
   14428:	3ffe0db7          	lui	s11,0x3ffe0
   1442c:	09010593          	addi	a1,sp,144
   14430:	0a010513          	addi	a0,sp,160
   14434:	0a512023          	sw	t0,160(sp)
   14438:	04512e23          	sw	t0,92(sp)
   1443c:	0bf12223          	sw	t6,164(sp)
   14440:	05f12c23          	sw	t6,88(sp)
   14444:	0be12423          	sw	t5,168(sp)
   14448:	05e12a23          	sw	t5,84(sp)
   1444c:	0bd12623          	sw	t4,172(sp)
   14450:	05d12823          	sw	t4,80(sp)
   14454:	08012823          	sw	zero,144(sp)
   14458:	08012a23          	sw	zero,148(sp)
   1445c:	08012c23          	sw	zero,152(sp)
   14460:	09b12e23          	sw	s11,156(sp)
   14464:	3d00c0ef          	jal	ra,20834 <__getf2>
   14468:	04a04663          	bgtz	a0,144b4 <_vfprintf_r+0xc64>
   1446c:	05c12283          	lw	t0,92(sp)
   14470:	05812f83          	lw	t6,88(sp)
   14474:	05412f03          	lw	t5,84(sp)
   14478:	05012e83          	lw	t4,80(sp)
   1447c:	09010593          	addi	a1,sp,144
   14480:	0a010513          	addi	a0,sp,160
   14484:	0a512023          	sw	t0,160(sp)
   14488:	0bf12223          	sw	t6,164(sp)
   1448c:	0be12423          	sw	t5,168(sp)
   14490:	0bd12623          	sw	t4,172(sp)
   14494:	08012823          	sw	zero,144(sp)
   14498:	08012a23          	sw	zero,148(sp)
   1449c:	08012c23          	sw	zero,152(sp)
   144a0:	09b12e23          	sw	s11,156(sp)
   144a4:	2c40c0ef          	jal	ra,20768 <__eqtf2>
   144a8:	1a051263          	bnez	a0,1464c <_vfprintf_r+0xdfc>
   144ac:	001afa93          	andi	s5,s5,1
   144b0:	180a8e63          	beqz	s5,1464c <_vfprintf_r+0xdfc>
   144b4:	00fa4603          	lbu	a2,15(s4)
   144b8:	0d912623          	sw	s9,204(sp)
   144bc:	03000593          	li	a1,48
   144c0:	0cc12683          	lw	a3,204(sp)
   144c4:	fff68713          	addi	a4,a3,-1
   144c8:	0ce12623          	sw	a4,204(sp)
   144cc:	fff6c703          	lbu	a4,-1(a3)
   144d0:	14c70a63          	beq	a4,a2,14624 <_vfprintf_r+0xdd4>
   144d4:	03900613          	li	a2,57
   144d8:	14c71a63          	bne	a4,a2,1462c <_vfprintf_r+0xddc>
   144dc:	00aa4703          	lbu	a4,10(s4)
   144e0:	fee68fa3          	sb	a4,-1(a3)
   144e4:	000c8a13          	mv	s4,s9
   144e8:	04700713          	li	a4,71
   144ec:	409a0a33          	sub	s4,s4,s1
   144f0:	0bc12d83          	lw	s11,188(sp)
   144f4:	2aec1663          	bne	s8,a4,147a0 <_vfprintf_r+0xf50>
   144f8:	ffd00713          	li	a4,-3
   144fc:	00edc463          	blt	s11,a4,14504 <_vfprintf_r+0xcb4>
   14500:	33bd5063          	ble	s11,s10,14820 <_vfprintf_r+0xfd0>
   14504:	ffeb0b13          	addi	s6,s6,-2
   14508:	fffd8a93          	addi	s5,s11,-1 # 3ffdffff <__global_pointer$+0x3ffb9d8f>
   1450c:	0b512e23          	sw	s5,188(sp)
   14510:	fdfb7693          	andi	a3,s6,-33
   14514:	04100593          	li	a1,65
   14518:	0ffb7713          	andi	a4,s6,255
   1451c:	00000613          	li	a2,0
   14520:	00b69863          	bne	a3,a1,14530 <_vfprintf_r+0xce0>
   14524:	00f70713          	addi	a4,a4,15
   14528:	0ff77713          	andi	a4,a4,255
   1452c:	00100613          	li	a2,1
   14530:	0ce10223          	sb	a4,196(sp)
   14534:	02b00793          	li	a5,43
   14538:	000ad863          	bgez	s5,14548 <_vfprintf_r+0xcf8>
   1453c:	00100a93          	li	s5,1
   14540:	41ba8ab3          	sub	s5,s5,s11
   14544:	02d00793          	li	a5,45
   14548:	0cf102a3          	sb	a5,197(sp)
   1454c:	00900793          	li	a5,9
   14550:	2957de63          	ble	s5,a5,147ec <_vfprintf_r+0xf9c>
   14554:	0d310c13          	addi	s8,sp,211
   14558:	000c0d93          	mv	s11,s8
   1455c:	06300d13          	li	s10,99
   14560:	00a00593          	li	a1,10
   14564:	000a8513          	mv	a0,s5
   14568:	dc9fe0ef          	jal	ra,13330 <__modsi3>
   1456c:	03050513          	addi	a0,a0,48
   14570:	feac0fa3          	sb	a0,-1(s8)
   14574:	00a00593          	li	a1,10
   14578:	000a8513          	mv	a0,s5
   1457c:	fffc0c93          	addi	s9,s8,-1
   14580:	d2dfe0ef          	jal	ra,132ac <__divsi3>
   14584:	255d4463          	blt	s10,s5,147cc <_vfprintf_r+0xf7c>
   14588:	03050513          	addi	a0,a0,48
   1458c:	ffec0c13          	addi	s8,s8,-2
   14590:	feac8fa3          	sb	a0,-1(s9)
   14594:	0c610793          	addi	a5,sp,198
   14598:	25bc6063          	bltu	s8,s11,147d8 <_vfprintf_r+0xf88>
   1459c:	0c410713          	addi	a4,sp,196
   145a0:	40e787b3          	sub	a5,a5,a4
   145a4:	02f12e23          	sw	a5,60(sp)
   145a8:	01478d33          	add	s10,a5,s4
   145ac:	00100793          	li	a5,1
   145b0:	0147c663          	blt	a5,s4,145bc <_vfprintf_r+0xd6c>
   145b4:	00147793          	andi	a5,s0,1
   145b8:	00078663          	beqz	a5,145c4 <_vfprintf_r+0xd74>
   145bc:	02012783          	lw	a5,32(sp)
   145c0:	00fd0d33          	add	s10,s10,a5
   145c4:	bff47413          	andi	s0,s0,-1025
   145c8:	10046793          	ori	a5,s0,256
   145cc:	02f12623          	sw	a5,44(sp)
   145d0:	00000c93          	li	s9,0
   145d4:	00000c13          	li	s8,0
   145d8:	00000d93          	li	s11,0
   145dc:	04412783          	lw	a5,68(sp)
   145e0:	00078663          	beqz	a5,145ec <_vfprintf_r+0xd9c>
   145e4:	02d00713          	li	a4,45
   145e8:	0ae10ba3          	sb	a4,183(sp)
   145ec:	02c12403          	lw	s0,44(sp)
   145f0:	00000713          	li	a4,0
   145f4:	e88ff06f          	j	13c7c <_vfprintf_r+0x42c>
   145f8:	00012623          	sw	zero,12(sp)
   145fc:	13c10493          	addi	s1,sp,316
   14600:	ba5ff06f          	j	141a4 <_vfprintf_r+0x954>
   14604:	00a12623          	sw	a0,12(sp)
   14608:	b9dff06f          	j	141a4 <_vfprintf_r+0x954>
   1460c:	00012623          	sw	zero,12(sp)
   14610:	00600d13          	li	s10,6
   14614:	b91ff06f          	j	141a4 <_vfprintf_r+0x954>
   14618:	00024a37          	lui	s4,0x24
   1461c:	4bca0a13          	addi	s4,s4,1212 # 244bc <zeroes.4514+0x20>
   14620:	ca1ff06f          	j	142c0 <_vfprintf_r+0xa70>
   14624:	feb68fa3          	sb	a1,-1(a3)
   14628:	e99ff06f          	j	144c0 <_vfprintf_r+0xc70>
   1462c:	00170713          	addi	a4,a4,1
   14630:	0ff77713          	andi	a4,a4,255
   14634:	eadff06f          	j	144e0 <_vfprintf_r+0xc90>
   14638:	001a0a13          	addi	s4,s4,1
   1463c:	feea0fa3          	sb	a4,-1(s4)
   14640:	414c87b3          	sub	a5,s9,s4
   14644:	fe07dae3          	bgez	a5,14638 <_vfprintf_r+0xde8>
   14648:	ea1ff06f          	j	144e8 <_vfprintf_r+0xc98>
   1464c:	04812783          	lw	a5,72(sp)
   14650:	000c8a13          	mv	s4,s9
   14654:	03000713          	li	a4,48
   14658:	00fc8cb3          	add	s9,s9,a5
   1465c:	fe5ff06f          	j	14640 <_vfprintf_r+0xdf0>
   14660:	04600793          	li	a5,70
   14664:	00fc0e63          	beq	s8,a5,14680 <_vfprintf_r+0xe30>
   14668:	04500793          	li	a5,69
   1466c:	001d0a93          	addi	s5,s10,1
   14670:	00fc0463          	beq	s8,a5,14678 <_vfprintf_r+0xe28>
   14674:	000d0a93          	mv	s5,s10
   14678:	00200613          	li	a2,2
   1467c:	00c0006f          	j	14688 <_vfprintf_r+0xe38>
   14680:	000d0a93          	mv	s5,s10
   14684:	00300613          	li	a2,3
   14688:	0c010793          	addi	a5,sp,192
   1468c:	0cc10813          	addi	a6,sp,204
   14690:	0bc10713          	addi	a4,sp,188
   14694:	000a8693          	mv	a3,s5
   14698:	0a010593          	addi	a1,sp,160
   1469c:	00098513          	mv	a0,s3
   146a0:	0bd12023          	sw	t4,160(sp)
   146a4:	05d12823          	sw	t4,80(sp)
   146a8:	0bc12223          	sw	t3,164(sp)
   146ac:	05c12423          	sw	t3,72(sp)
   146b0:	0bb12423          	sw	s11,168(sp)
   146b4:	0b412623          	sw	s4,172(sp)
   146b8:	7c4030ef          	jal	ra,17e7c <_ldtoa_r>
   146bc:	04700793          	li	a5,71
   146c0:	00050493          	mv	s1,a0
   146c4:	04812e03          	lw	t3,72(sp)
   146c8:	05012e83          	lw	t4,80(sp)
   146cc:	00fc1a63          	bne	s8,a5,146e0 <_vfprintf_r+0xe90>
   146d0:	00147793          	andi	a5,s0,1
   146d4:	00079663          	bnez	a5,146e0 <_vfprintf_r+0xe90>
   146d8:	0cc12a03          	lw	s4,204(sp)
   146dc:	e0dff06f          	j	144e8 <_vfprintf_r+0xc98>
   146e0:	04600793          	li	a5,70
   146e4:	01548cb3          	add	s9,s1,s5
   146e8:	06fc1263          	bne	s8,a5,1474c <_vfprintf_r+0xefc>
   146ec:	0004c703          	lbu	a4,0(s1)
   146f0:	03000793          	li	a5,48
   146f4:	04f71863          	bne	a4,a5,14744 <_vfprintf_r+0xef4>
   146f8:	09010593          	addi	a1,sp,144
   146fc:	0a010513          	addi	a0,sp,160
   14700:	0bd12023          	sw	t4,160(sp)
   14704:	05d12823          	sw	t4,80(sp)
   14708:	0bc12223          	sw	t3,164(sp)
   1470c:	05c12423          	sw	t3,72(sp)
   14710:	0bb12423          	sw	s11,168(sp)
   14714:	0b412623          	sw	s4,172(sp)
   14718:	08012823          	sw	zero,144(sp)
   1471c:	08012a23          	sw	zero,148(sp)
   14720:	08012c23          	sw	zero,152(sp)
   14724:	08012e23          	sw	zero,156(sp)
   14728:	0400c0ef          	jal	ra,20768 <__eqtf2>
   1472c:	04812e03          	lw	t3,72(sp)
   14730:	05012e83          	lw	t4,80(sp)
   14734:	00050863          	beqz	a0,14744 <_vfprintf_r+0xef4>
   14738:	00100793          	li	a5,1
   1473c:	41578ab3          	sub	s5,a5,s5
   14740:	0b512e23          	sw	s5,188(sp)
   14744:	0bc12783          	lw	a5,188(sp)
   14748:	00fc8cb3          	add	s9,s9,a5
   1474c:	09010593          	addi	a1,sp,144
   14750:	0a010513          	addi	a0,sp,160
   14754:	0bd12023          	sw	t4,160(sp)
   14758:	0bc12223          	sw	t3,164(sp)
   1475c:	0bb12423          	sw	s11,168(sp)
   14760:	0b412623          	sw	s4,172(sp)
   14764:	08012823          	sw	zero,144(sp)
   14768:	08012a23          	sw	zero,148(sp)
   1476c:	08012c23          	sw	zero,152(sp)
   14770:	08012e23          	sw	zero,156(sp)
   14774:	7f50b0ef          	jal	ra,20768 <__eqtf2>
   14778:	00051463          	bnez	a0,14780 <_vfprintf_r+0xf30>
   1477c:	0d912623          	sw	s9,204(sp)
   14780:	03000713          	li	a4,48
   14784:	0100006f          	j	14794 <_vfprintf_r+0xf44>
   14788:	00178693          	addi	a3,a5,1 # 40030001 <__global_pointer$+0x40009d91>
   1478c:	0cd12623          	sw	a3,204(sp)
   14790:	00e78023          	sb	a4,0(a5)
   14794:	0cc12783          	lw	a5,204(sp)
   14798:	ff97e8e3          	bltu	a5,s9,14788 <_vfprintf_r+0xf38>
   1479c:	f3dff06f          	j	146d8 <_vfprintf_r+0xe88>
   147a0:	04600713          	li	a4,70
   147a4:	d6ec12e3          	bne	s8,a4,14508 <_vfprintf_r+0xcb8>
   147a8:	00147713          	andi	a4,s0,1
   147ac:	01a76733          	or	a4,a4,s10
   147b0:	07b05063          	blez	s11,14810 <_vfprintf_r+0xfc0>
   147b4:	0c070063          	beqz	a4,14874 <_vfprintf_r+0x1024>
   147b8:	02012783          	lw	a5,32(sp)
   147bc:	00fd8733          	add	a4,s11,a5
   147c0:	00ed0d33          	add	s10,s10,a4
   147c4:	06600b13          	li	s6,102
   147c8:	0900006f          	j	14858 <_vfprintf_r+0x1008>
   147cc:	000c8c13          	mv	s8,s9
   147d0:	00050a93          	mv	s5,a0
   147d4:	d8dff06f          	j	14560 <_vfprintf_r+0xd10>
   147d8:	001c0c13          	addi	s8,s8,1
   147dc:	fffc4703          	lbu	a4,-1(s8)
   147e0:	00178793          	addi	a5,a5,1
   147e4:	fee78fa3          	sb	a4,-1(a5)
   147e8:	db1ff06f          	j	14598 <_vfprintf_r+0xd48>
   147ec:	0c610713          	addi	a4,sp,198
   147f0:	00061863          	bnez	a2,14800 <_vfprintf_r+0xfb0>
   147f4:	03000793          	li	a5,48
   147f8:	0cf10323          	sb	a5,198(sp)
   147fc:	0c710713          	addi	a4,sp,199
   14800:	030a8a93          	addi	s5,s5,48
   14804:	00170793          	addi	a5,a4,1
   14808:	01570023          	sb	s5,0(a4)
   1480c:	d91ff06f          	j	1459c <_vfprintf_r+0xd4c>
   14810:	06070663          	beqz	a4,1487c <_vfprintf_r+0x102c>
   14814:	02012783          	lw	a5,32(sp)
   14818:	00178713          	addi	a4,a5,1
   1481c:	fa5ff06f          	j	147c0 <_vfprintf_r+0xf70>
   14820:	034dc063          	blt	s11,s4,14840 <_vfprintf_r+0xff0>
   14824:	00147713          	andi	a4,s0,1
   14828:	000d8d13          	mv	s10,s11
   1482c:	00070663          	beqz	a4,14838 <_vfprintf_r+0xfe8>
   14830:	02012783          	lw	a5,32(sp)
   14834:	00fd8d33          	add	s10,s11,a5
   14838:	06700b13          	li	s6,103
   1483c:	01c0006f          	j	14858 <_vfprintf_r+0x1008>
   14840:	02012783          	lw	a5,32(sp)
   14844:	06700b13          	li	s6,103
   14848:	00fa0d33          	add	s10,s4,a5
   1484c:	01b04663          	bgtz	s11,14858 <_vfprintf_r+0x1008>
   14850:	41bd0333          	sub	t1,s10,s11
   14854:	00130d13          	addi	s10,t1,1
   14858:	40047c13          	andi	s8,s0,1024
   1485c:	00000c93          	li	s9,0
   14860:	d60c0ee3          	beqz	s8,145dc <_vfprintf_r+0xd8c>
   14864:	00000c13          	li	s8,0
   14868:	d7b05ae3          	blez	s11,145dc <_vfprintf_r+0xd8c>
   1486c:	0ff00693          	li	a3,255
   14870:	0380006f          	j	148a8 <_vfprintf_r+0x1058>
   14874:	000d8d13          	mv	s10,s11
   14878:	f4dff06f          	j	147c4 <_vfprintf_r+0xf74>
   1487c:	06600b13          	li	s6,102
   14880:	00100d13          	li	s10,1
   14884:	fd5ff06f          	j	14858 <_vfprintf_r+0x1008>
   14888:	03b75663          	ble	s11,a4,148b4 <_vfprintf_r+0x1064>
   1488c:	01012783          	lw	a5,16(sp)
   14890:	40ed8db3          	sub	s11,s11,a4
   14894:	0017c703          	lbu	a4,1(a5)
   14898:	02070863          	beqz	a4,148c8 <_vfprintf_r+0x1078>
   1489c:	00178793          	addi	a5,a5,1
   148a0:	001c0c13          	addi	s8,s8,1
   148a4:	00f12823          	sw	a5,16(sp)
   148a8:	01012783          	lw	a5,16(sp)
   148ac:	0007c703          	lbu	a4,0(a5)
   148b0:	fcd71ce3          	bne	a4,a3,14888 <_vfprintf_r+0x1038>
   148b4:	03012583          	lw	a1,48(sp)
   148b8:	019c0533          	add	a0,s8,s9
   148bc:	9cdfe0ef          	jal	ra,13288 <__mulsi3>
   148c0:	01a50d33          	add	s10,a0,s10
   148c4:	d19ff06f          	j	145dc <_vfprintf_r+0xd8c>
   148c8:	001c8c93          	addi	s9,s9,1
   148cc:	fddff06f          	j	148a8 <_vfprintf_r+0x1058>
   148d0:	004a8713          	addi	a4,s5,4
   148d4:	00e12c23          	sw	a4,24(sp)
   148d8:	02047713          	andi	a4,s0,32
   148dc:	000aa783          	lw	a5,0(s5)
   148e0:	02070063          	beqz	a4,14900 <_vfprintf_r+0x10b0>
   148e4:	02412703          	lw	a4,36(sp)
   148e8:	00e7a023          	sw	a4,0(a5)
   148ec:	41f75713          	srai	a4,a4,0x1f
   148f0:	00e7a223          	sw	a4,4(a5)
   148f4:	01812a83          	lw	s5,24(sp)
   148f8:	01c12483          	lw	s1,28(sp)
   148fc:	8ecff06f          	j	139e8 <_vfprintf_r+0x198>
   14900:	01047713          	andi	a4,s0,16
   14904:	00070863          	beqz	a4,14914 <_vfprintf_r+0x10c4>
   14908:	02412703          	lw	a4,36(sp)
   1490c:	00e7a023          	sw	a4,0(a5)
   14910:	fe5ff06f          	j	148f4 <_vfprintf_r+0x10a4>
   14914:	04047713          	andi	a4,s0,64
   14918:	00070863          	beqz	a4,14928 <_vfprintf_r+0x10d8>
   1491c:	02412703          	lw	a4,36(sp)
   14920:	00e79023          	sh	a4,0(a5)
   14924:	fd1ff06f          	j	148f4 <_vfprintf_r+0x10a4>
   14928:	20047413          	andi	s0,s0,512
   1492c:	fc040ee3          	beqz	s0,14908 <_vfprintf_r+0x10b8>
   14930:	02412703          	lw	a4,36(sp)
   14934:	00e78023          	sb	a4,0(a5)
   14938:	fbdff06f          	j	148f4 <_vfprintf_r+0x10a4>
   1493c:	01046413          	ori	s0,s0,16
   14940:	02047793          	andi	a5,s0,32
   14944:	02078663          	beqz	a5,14970 <_vfprintf_r+0x1120>
   14948:	007a8a93          	addi	s5,s5,7
   1494c:	ff8afa93          	andi	s5,s5,-8
   14950:	000aac83          	lw	s9,0(s5)
   14954:	004aad83          	lw	s11,4(s5)
   14958:	008a8793          	addi	a5,s5,8
   1495c:	00f12c23          	sw	a5,24(sp)
   14960:	bff47413          	andi	s0,s0,-1025
   14964:	00000793          	li	a5,0
   14968:	0a010ba3          	sb	zero,183(sp)
   1496c:	e0cff06f          	j	13f78 <_vfprintf_r+0x728>
   14970:	004a8793          	addi	a5,s5,4
   14974:	00f12c23          	sw	a5,24(sp)
   14978:	01047793          	andi	a5,s0,16
   1497c:	00078663          	beqz	a5,14988 <_vfprintf_r+0x1138>
   14980:	000aac83          	lw	s9,0(s5)
   14984:	0100006f          	j	14994 <_vfprintf_r+0x1144>
   14988:	04047793          	andi	a5,s0,64
   1498c:	00078863          	beqz	a5,1499c <_vfprintf_r+0x114c>
   14990:	000adc83          	lhu	s9,0(s5)
   14994:	00000d93          	li	s11,0
   14998:	fc9ff06f          	j	14960 <_vfprintf_r+0x1110>
   1499c:	20047793          	andi	a5,s0,512
   149a0:	fe0780e3          	beqz	a5,14980 <_vfprintf_r+0x1130>
   149a4:	000acc83          	lbu	s9,0(s5)
   149a8:	fedff06f          	j	14994 <_vfprintf_r+0x1144>
   149ac:	004a8793          	addi	a5,s5,4
   149b0:	00f12c23          	sw	a5,24(sp)
   149b4:	ffff87b7          	lui	a5,0xffff8
   149b8:	8307c793          	xori	a5,a5,-2000
   149bc:	0af11c23          	sh	a5,184(sp)
   149c0:	000247b7          	lui	a5,0x24
   149c4:	4bc78793          	addi	a5,a5,1212 # 244bc <zeroes.4514+0x20>
   149c8:	04f12023          	sw	a5,64(sp)
   149cc:	000aac83          	lw	s9,0(s5)
   149d0:	00000d93          	li	s11,0
   149d4:	00246413          	ori	s0,s0,2
   149d8:	00200793          	li	a5,2
   149dc:	07800b13          	li	s6,120
   149e0:	f89ff06f          	j	14968 <_vfprintf_r+0x1118>
   149e4:	004a8793          	addi	a5,s5,4
   149e8:	00f12c23          	sw	a5,24(sp)
   149ec:	0a010ba3          	sb	zero,183(sp)
   149f0:	fff00793          	li	a5,-1
   149f4:	000aa483          	lw	s1,0(s5)
   149f8:	02fd0463          	beq	s10,a5,14a20 <_vfprintf_r+0x11d0>
   149fc:	000d0613          	mv	a2,s10
   14a00:	00000593          	li	a1,0
   14a04:	00048513          	mv	a0,s1
   14a08:	231040ef          	jal	ra,19438 <memchr>
   14a0c:	00a12623          	sw	a0,12(sp)
   14a10:	e8050263          	beqz	a0,14094 <_vfprintf_r+0x844>
   14a14:	40950d33          	sub	s10,a0,s1
   14a18:	00012623          	sw	zero,12(sp)
   14a1c:	e78ff06f          	j	14094 <_vfprintf_r+0x844>
   14a20:	00048513          	mv	a0,s1
   14a24:	e09fe0ef          	jal	ra,1382c <strlen>
   14a28:	00050d13          	mv	s10,a0
   14a2c:	fedff06f          	j	14a18 <_vfprintf_r+0x11c8>
   14a30:	01046413          	ori	s0,s0,16
   14a34:	02047793          	andi	a5,s0,32
   14a38:	02078263          	beqz	a5,14a5c <_vfprintf_r+0x120c>
   14a3c:	007a8a93          	addi	s5,s5,7
   14a40:	ff8afa93          	andi	s5,s5,-8
   14a44:	000aac83          	lw	s9,0(s5)
   14a48:	004aad83          	lw	s11,4(s5)
   14a4c:	008a8793          	addi	a5,s5,8
   14a50:	00f12c23          	sw	a5,24(sp)
   14a54:	00100793          	li	a5,1
   14a58:	f11ff06f          	j	14968 <_vfprintf_r+0x1118>
   14a5c:	004a8793          	addi	a5,s5,4
   14a60:	00f12c23          	sw	a5,24(sp)
   14a64:	01047793          	andi	a5,s0,16
   14a68:	00078663          	beqz	a5,14a74 <_vfprintf_r+0x1224>
   14a6c:	000aac83          	lw	s9,0(s5)
   14a70:	0100006f          	j	14a80 <_vfprintf_r+0x1230>
   14a74:	04047793          	andi	a5,s0,64
   14a78:	00078863          	beqz	a5,14a88 <_vfprintf_r+0x1238>
   14a7c:	000adc83          	lhu	s9,0(s5)
   14a80:	00000d93          	li	s11,0
   14a84:	fd1ff06f          	j	14a54 <_vfprintf_r+0x1204>
   14a88:	20047793          	andi	a5,s0,512
   14a8c:	fe0780e3          	beqz	a5,14a6c <_vfprintf_r+0x121c>
   14a90:	000acc83          	lbu	s9,0(s5)
   14a94:	fedff06f          	j	14a80 <_vfprintf_r+0x1230>
   14a98:	000247b7          	lui	a5,0x24
   14a9c:	4d078793          	addi	a5,a5,1232 # 244d0 <zeroes.4514+0x34>
   14aa0:	04f12023          	sw	a5,64(sp)
   14aa4:	02047793          	andi	a5,s0,32
   14aa8:	04078a63          	beqz	a5,14afc <_vfprintf_r+0x12ac>
   14aac:	007a8a93          	addi	s5,s5,7
   14ab0:	ff8afa93          	andi	s5,s5,-8
   14ab4:	000aac83          	lw	s9,0(s5)
   14ab8:	004aad83          	lw	s11,4(s5)
   14abc:	008a8793          	addi	a5,s5,8
   14ac0:	00f12c23          	sw	a5,24(sp)
   14ac4:	00147793          	andi	a5,s0,1
   14ac8:	00078e63          	beqz	a5,14ae4 <_vfprintf_r+0x1294>
   14acc:	01bce7b3          	or	a5,s9,s11
   14ad0:	00078a63          	beqz	a5,14ae4 <_vfprintf_r+0x1294>
   14ad4:	03000793          	li	a5,48
   14ad8:	0af10c23          	sb	a5,184(sp)
   14adc:	0b610ca3          	sb	s6,185(sp)
   14ae0:	00246413          	ori	s0,s0,2
   14ae4:	bff47413          	andi	s0,s0,-1025
   14ae8:	00200793          	li	a5,2
   14aec:	e7dff06f          	j	14968 <_vfprintf_r+0x1118>
   14af0:	000247b7          	lui	a5,0x24
   14af4:	4bc78793          	addi	a5,a5,1212 # 244bc <zeroes.4514+0x20>
   14af8:	fa9ff06f          	j	14aa0 <_vfprintf_r+0x1250>
   14afc:	004a8793          	addi	a5,s5,4
   14b00:	00f12c23          	sw	a5,24(sp)
   14b04:	01047793          	andi	a5,s0,16
   14b08:	00078663          	beqz	a5,14b14 <_vfprintf_r+0x12c4>
   14b0c:	000aac83          	lw	s9,0(s5)
   14b10:	0100006f          	j	14b20 <_vfprintf_r+0x12d0>
   14b14:	04047793          	andi	a5,s0,64
   14b18:	00078863          	beqz	a5,14b28 <_vfprintf_r+0x12d8>
   14b1c:	000adc83          	lhu	s9,0(s5)
   14b20:	00000d93          	li	s11,0
   14b24:	fa1ff06f          	j	14ac4 <_vfprintf_r+0x1274>
   14b28:	20047793          	andi	a5,s0,512
   14b2c:	fe0780e3          	beqz	a5,14b0c <_vfprintf_r+0x12bc>
   14b30:	000acc83          	lbu	s9,0(s5)
   14b34:	fedff06f          	j	14b20 <_vfprintf_r+0x12d0>
   14b38:	00040713          	mv	a4,s0
   14b3c:	00100793          	li	a5,1
   14b40:	c44ff06f          	j	13f84 <_vfprintf_r+0x734>
   14b44:	00100713          	li	a4,1
   14b48:	4ae780e3          	beq	a5,a4,157e8 <_vfprintf_r+0x1f98>
   14b4c:	00200713          	li	a4,2
   14b50:	12e78a63          	beq	a5,a4,14c84 <_vfprintf_r+0x1434>
   14b54:	1a010793          	addi	a5,sp,416
   14b58:	01dd9693          	slli	a3,s11,0x1d
   14b5c:	007cf713          	andi	a4,s9,7
   14b60:	003cdc93          	srli	s9,s9,0x3
   14b64:	03070713          	addi	a4,a4,48
   14b68:	0196ecb3          	or	s9,a3,s9
   14b6c:	003ddd93          	srli	s11,s11,0x3
   14b70:	fee78fa3          	sb	a4,-1(a5)
   14b74:	01bce6b3          	or	a3,s9,s11
   14b78:	fff78493          	addi	s1,a5,-1
   14b7c:	02069e63          	bnez	a3,14bb8 <_vfprintf_r+0x1368>
   14b80:	00147693          	andi	a3,s0,1
   14b84:	00068a63          	beqz	a3,14b98 <_vfprintf_r+0x1348>
   14b88:	03000693          	li	a3,48
   14b8c:	00d70663          	beq	a4,a3,14b98 <_vfprintf_r+0x1348>
   14b90:	fed48fa3          	sb	a3,-1(s1)
   14b94:	ffe78493          	addi	s1,a5,-2
   14b98:	1a010793          	addi	a5,sp,416
   14b9c:	000d0713          	mv	a4,s10
   14ba0:	00012623          	sw	zero,12(sp)
   14ba4:	40978d33          	sub	s10,a5,s1
   14ba8:	00000c93          	li	s9,0
   14bac:	00000c13          	li	s8,0
   14bb0:	00000d93          	li	s11,0
   14bb4:	8c8ff06f          	j	13c7c <_vfprintf_r+0x42c>
   14bb8:	00048793          	mv	a5,s1
   14bbc:	f9dff06f          	j	14b58 <_vfprintf_r+0x1308>
   14bc0:	40047713          	andi	a4,s0,1024
   14bc4:	00000a13          	li	s4,0
   14bc8:	1a010793          	addi	a5,sp,416
   14bcc:	00e12623          	sw	a4,12(sp)
   14bd0:	0ff00c13          	li	s8,255
   14bd4:	00900a93          	li	s5,9
   14bd8:	00a00613          	li	a2,10
   14bdc:	00000693          	li	a3,0
   14be0:	000c8513          	mv	a0,s9
   14be4:	000d8593          	mv	a1,s11
   14be8:	fff78493          	addi	s1,a5,-1
   14bec:	02f12623          	sw	a5,44(sp)
   14bf0:	0140b0ef          	jal	ra,1fc04 <__umoddi3>
   14bf4:	02c12783          	lw	a5,44(sp)
   14bf8:	03050513          	addi	a0,a0,48
   14bfc:	001a0a13          	addi	s4,s4,1
   14c00:	fea78fa3          	sb	a0,-1(a5)
   14c04:	00c12783          	lw	a5,12(sp)
   14c08:	04078863          	beqz	a5,14c58 <_vfprintf_r+0x1408>
   14c0c:	01012783          	lw	a5,16(sp)
   14c10:	0007c783          	lbu	a5,0(a5)
   14c14:	04fa1263          	bne	s4,a5,14c58 <_vfprintf_r+0x1408>
   14c18:	058a0063          	beq	s4,s8,14c58 <_vfprintf_r+0x1408>
   14c1c:	000d9463          	bnez	s11,14c24 <_vfprintf_r+0x13d4>
   14c20:	039afc63          	bleu	s9,s5,14c58 <_vfprintf_r+0x1408>
   14c24:	03012783          	lw	a5,48(sp)
   14c28:	03812583          	lw	a1,56(sp)
   14c2c:	00000a13          	li	s4,0
   14c30:	40f484b3          	sub	s1,s1,a5
   14c34:	00078613          	mv	a2,a5
   14c38:	00048513          	mv	a0,s1
   14c3c:	27c060ef          	jal	ra,1aeb8 <strncpy>
   14c40:	01012783          	lw	a5,16(sp)
   14c44:	0017c783          	lbu	a5,1(a5)
   14c48:	00078863          	beqz	a5,14c58 <_vfprintf_r+0x1408>
   14c4c:	01012783          	lw	a5,16(sp)
   14c50:	00178793          	addi	a5,a5,1
   14c54:	00f12823          	sw	a5,16(sp)
   14c58:	00a00613          	li	a2,10
   14c5c:	00000693          	li	a3,0
   14c60:	000c8513          	mv	a0,s9
   14c64:	000d8593          	mv	a1,s11
   14c68:	1c90a0ef          	jal	ra,1f630 <__udivdi3>
   14c6c:	000d9463          	bnez	s11,14c74 <_vfprintf_r+0x1424>
   14c70:	f39af4e3          	bleu	s9,s5,14b98 <_vfprintf_r+0x1348>
   14c74:	00050c93          	mv	s9,a0
   14c78:	00058d93          	mv	s11,a1
   14c7c:	00048793          	mv	a5,s1
   14c80:	f59ff06f          	j	14bd8 <_vfprintf_r+0x1388>
   14c84:	1a010493          	addi	s1,sp,416
   14c88:	04012703          	lw	a4,64(sp)
   14c8c:	00fcf793          	andi	a5,s9,15
   14c90:	fff48493          	addi	s1,s1,-1
   14c94:	00f707b3          	add	a5,a4,a5
   14c98:	0007c783          	lbu	a5,0(a5)
   14c9c:	004cdc93          	srli	s9,s9,0x4
   14ca0:	00f48023          	sb	a5,0(s1)
   14ca4:	01cd9793          	slli	a5,s11,0x1c
   14ca8:	0197ecb3          	or	s9,a5,s9
   14cac:	004ddd93          	srli	s11,s11,0x4
   14cb0:	01bce7b3          	or	a5,s9,s11
   14cb4:	fc079ae3          	bnez	a5,14c88 <_vfprintf_r+0x1438>
   14cb8:	ee1ff06f          	j	14b98 <_vfprintf_r+0x1348>
   14cbc:	1a010493          	addi	s1,sp,416
   14cc0:	ec079ce3          	bnez	a5,14b98 <_vfprintf_r+0x1348>
   14cc4:	00177713          	andi	a4,a4,1
   14cc8:	ec0708e3          	beqz	a4,14b98 <_vfprintf_r+0x1348>
   14ccc:	03000793          	li	a5,48
   14cd0:	18f10fa3          	sb	a5,415(sp)
   14cd4:	3290006f          	j	157fc <_vfprintf_r+0x1fac>
   14cd8:	2e0b04e3          	beqz	s6,157c0 <_vfprintf_r+0x1f70>
   14cdc:	13610e23          	sb	s6,316(sp)
   14ce0:	0a010ba3          	sb	zero,183(sp)
   14ce4:	01512c23          	sw	s5,24(sp)
   14ce8:	f79fe06f          	j	13c60 <_vfprintf_r+0x410>
   14cec:	01058593          	addi	a1,a1,16
   14cf0:	01cba223          	sw	t3,4(s7)
   14cf4:	0cb12e23          	sw	a1,220(sp)
   14cf8:	0cc12c23          	sw	a2,216(sp)
   14cfc:	02cede63          	ble	a2,t4,14d38 <_vfprintf_r+0x14e8>
   14d00:	0d410613          	addi	a2,sp,212
   14d04:	00090593          	mv	a1,s2
   14d08:	00098513          	mv	a0,s3
   14d0c:	04e12823          	sw	a4,80(sp)
   14d10:	04d12423          	sw	a3,72(sp)
   14d14:	134080ef          	jal	ra,1ce48 <__sprint_r>
   14d18:	240512e3          	bnez	a0,1575c <_vfprintf_r+0x1f0c>
   14d1c:	05012703          	lw	a4,80(sp)
   14d20:	04812683          	lw	a3,72(sp)
   14d24:	000247b7          	lui	a5,0x24
   14d28:	0fc10513          	addi	a0,sp,252
   14d2c:	00700e93          	li	t4,7
   14d30:	48c78813          	addi	a6,a5,1164 # 2448c <blanks.4513>
   14d34:	01000e13          	li	t3,16
   14d38:	ff068693          	addi	a3,a3,-16
   14d3c:	00050b93          	mv	s7,a0
   14d40:	f9dfe06f          	j	13cdc <_vfprintf_r+0x48c>
   14d44:	01060613          	addi	a2,a2,16
   14d48:	010ba223          	sw	a6,4(s7)
   14d4c:	0cc12e23          	sw	a2,220(sp)
   14d50:	0cd12c23          	sw	a3,216(sp)
   14d54:	02de5663          	ble	a3,t3,14d80 <_vfprintf_r+0x1530>
   14d58:	0d410613          	addi	a2,sp,212
   14d5c:	00090593          	mv	a1,s2
   14d60:	00098513          	mv	a0,s3
   14d64:	04e12223          	sw	a4,68(sp)
   14d68:	0e0080ef          	jal	ra,1ce48 <__sprint_r>
   14d6c:	1e0518e3          	bnez	a0,1575c <_vfprintf_r+0x1f0c>
   14d70:	04412703          	lw	a4,68(sp)
   14d74:	0fc10593          	addi	a1,sp,252
   14d78:	00700e13          	li	t3,7
   14d7c:	01000813          	li	a6,16
   14d80:	ff0a8a93          	addi	s5,s5,-16
   14d84:	00058b93          	mv	s7,a1
   14d88:	890ff06f          	j	13e18 <_vfprintf_r+0x5c8>
   14d8c:	01070713          	addi	a4,a4,16
   14d90:	010ba223          	sw	a6,4(s7)
   14d94:	0ce12e23          	sw	a4,220(sp)
   14d98:	0cd12c23          	sw	a3,216(sp)
   14d9c:	02de5263          	ble	a3,t3,14dc0 <_vfprintf_r+0x1570>
   14da0:	0d410613          	addi	a2,sp,212
   14da4:	00090593          	mv	a1,s2
   14da8:	00098513          	mv	a0,s3
   14dac:	09c080ef          	jal	ra,1ce48 <__sprint_r>
   14db0:	1a0516e3          	bnez	a0,1575c <_vfprintf_r+0x1f0c>
   14db4:	0fc10613          	addi	a2,sp,252
   14db8:	00700e13          	li	t3,7
   14dbc:	01000813          	li	a6,16
   14dc0:	ff0a8a93          	addi	s5,s5,-16
   14dc4:	00060b93          	mv	s7,a2
   14dc8:	8bcff06f          	j	13e84 <_vfprintf_r+0x634>
   14dcc:	06500693          	li	a3,101
   14dd0:	7366d463          	ble	s6,a3,154f8 <_vfprintf_r+0x1ca8>
   14dd4:	0e012683          	lw	a3,224(sp)
   14dd8:	09010593          	addi	a1,sp,144
   14ddc:	0a010513          	addi	a0,sp,160
   14de0:	0ad12023          	sw	a3,160(sp)
   14de4:	0e412683          	lw	a3,228(sp)
   14de8:	04e12223          	sw	a4,68(sp)
   14dec:	08012823          	sw	zero,144(sp)
   14df0:	0ad12223          	sw	a3,164(sp)
   14df4:	0e812683          	lw	a3,232(sp)
   14df8:	08012a23          	sw	zero,148(sp)
   14dfc:	08012c23          	sw	zero,152(sp)
   14e00:	0ad12423          	sw	a3,168(sp)
   14e04:	0ec12683          	lw	a3,236(sp)
   14e08:	08012e23          	sw	zero,156(sp)
   14e0c:	0ad12623          	sw	a3,172(sp)
   14e10:	1590b0ef          	jal	ra,20768 <__eqtf2>
   14e14:	04412703          	lw	a4,68(sp)
   14e18:	12051a63          	bnez	a0,14f4c <_vfprintf_r+0x16fc>
   14e1c:	000247b7          	lui	a5,0x24
   14e20:	4e478793          	addi	a5,a5,1252 # 244e4 <zeroes.4514+0x48>
   14e24:	00fba023          	sw	a5,0(s7)
   14e28:	00100793          	li	a5,1
   14e2c:	00fba223          	sw	a5,4(s7)
   14e30:	0d812783          	lw	a5,216(sp)
   14e34:	00170713          	addi	a4,a4,1
   14e38:	0ce12e23          	sw	a4,220(sp)
   14e3c:	00178793          	addi	a5,a5,1
   14e40:	0cf12c23          	sw	a5,216(sp)
   14e44:	00700713          	li	a4,7
   14e48:	008b8b93          	addi	s7,s7,8
   14e4c:	00f75e63          	ble	a5,a4,14e68 <_vfprintf_r+0x1618>
   14e50:	0d410613          	addi	a2,sp,212
   14e54:	00090593          	mv	a1,s2
   14e58:	00098513          	mv	a0,s3
   14e5c:	7ed070ef          	jal	ra,1ce48 <__sprint_r>
   14e60:	0e051ee3          	bnez	a0,1575c <_vfprintf_r+0x1f0c>
   14e64:	0fc10b93          	addi	s7,sp,252
   14e68:	0bc12783          	lw	a5,188(sp)
   14e6c:	0147c663          	blt	a5,s4,14e78 <_vfprintf_r+0x1628>
   14e70:	00147793          	andi	a5,s0,1
   14e74:	22078063          	beqz	a5,15094 <_vfprintf_r+0x1844>
   14e78:	03412783          	lw	a5,52(sp)
   14e7c:	02012703          	lw	a4,32(sp)
   14e80:	008b8b93          	addi	s7,s7,8
   14e84:	fefbac23          	sw	a5,-8(s7)
   14e88:	02012783          	lw	a5,32(sp)
   14e8c:	fefbae23          	sw	a5,-4(s7)
   14e90:	0dc12783          	lw	a5,220(sp)
   14e94:	00e787b3          	add	a5,a5,a4
   14e98:	0cf12e23          	sw	a5,220(sp)
   14e9c:	0d812783          	lw	a5,216(sp)
   14ea0:	00700713          	li	a4,7
   14ea4:	00178793          	addi	a5,a5,1
   14ea8:	0cf12c23          	sw	a5,216(sp)
   14eac:	00f75e63          	ble	a5,a4,14ec8 <_vfprintf_r+0x1678>
   14eb0:	0d410613          	addi	a2,sp,212
   14eb4:	00090593          	mv	a1,s2
   14eb8:	00098513          	mv	a0,s3
   14ebc:	78d070ef          	jal	ra,1ce48 <__sprint_r>
   14ec0:	08051ee3          	bnez	a0,1575c <_vfprintf_r+0x1f0c>
   14ec4:	0fc10b93          	addi	s7,sp,252
   14ec8:	fffa0493          	addi	s1,s4,-1
   14ecc:	1c905463          	blez	s1,15094 <_vfprintf_r+0x1844>
   14ed0:	01000a93          	li	s5,16
   14ed4:	00700b13          	li	s6,7
   14ed8:	01412603          	lw	a2,20(sp)
   14edc:	0d812783          	lw	a5,216(sp)
   14ee0:	0dc12703          	lw	a4,220(sp)
   14ee4:	00cba023          	sw	a2,0(s7)
   14ee8:	00178793          	addi	a5,a5,1
   14eec:	008b8693          	addi	a3,s7,8
   14ef0:	029ac263          	blt	s5,s1,14f14 <_vfprintf_r+0x16c4>
   14ef4:	009ba223          	sw	s1,4(s7)
   14ef8:	00e484b3          	add	s1,s1,a4
   14efc:	0c912e23          	sw	s1,220(sp)
   14f00:	0cf12c23          	sw	a5,216(sp)
   14f04:	00700713          	li	a4,7
   14f08:	00068b93          	mv	s7,a3
   14f0c:	18f75463          	ble	a5,a4,15094 <_vfprintf_r+0x1844>
   14f10:	800ff06f          	j	13f10 <_vfprintf_r+0x6c0>
   14f14:	01070713          	addi	a4,a4,16
   14f18:	015ba223          	sw	s5,4(s7)
   14f1c:	0ce12e23          	sw	a4,220(sp)
   14f20:	0cf12c23          	sw	a5,216(sp)
   14f24:	00fb5e63          	ble	a5,s6,14f40 <_vfprintf_r+0x16f0>
   14f28:	0d410613          	addi	a2,sp,212
   14f2c:	00090593          	mv	a1,s2
   14f30:	00098513          	mv	a0,s3
   14f34:	715070ef          	jal	ra,1ce48 <__sprint_r>
   14f38:	020512e3          	bnez	a0,1575c <_vfprintf_r+0x1f0c>
   14f3c:	0fc10693          	addi	a3,sp,252
   14f40:	ff048493          	addi	s1,s1,-16
   14f44:	00068b93          	mv	s7,a3
   14f48:	f91ff06f          	j	14ed8 <_vfprintf_r+0x1688>
   14f4c:	0bc12683          	lw	a3,188(sp)
   14f50:	1cd04863          	bgtz	a3,15120 <_vfprintf_r+0x18d0>
   14f54:	000247b7          	lui	a5,0x24
   14f58:	4e478793          	addi	a5,a5,1252 # 244e4 <zeroes.4514+0x48>
   14f5c:	00fba023          	sw	a5,0(s7)
   14f60:	00100793          	li	a5,1
   14f64:	00fba223          	sw	a5,4(s7)
   14f68:	0d812783          	lw	a5,216(sp)
   14f6c:	00170713          	addi	a4,a4,1
   14f70:	0ce12e23          	sw	a4,220(sp)
   14f74:	00178793          	addi	a5,a5,1
   14f78:	0cf12c23          	sw	a5,216(sp)
   14f7c:	00700713          	li	a4,7
   14f80:	008b8b93          	addi	s7,s7,8
   14f84:	00f75e63          	ble	a5,a4,14fa0 <_vfprintf_r+0x1750>
   14f88:	0d410613          	addi	a2,sp,212
   14f8c:	00090593          	mv	a1,s2
   14f90:	00098513          	mv	a0,s3
   14f94:	6b5070ef          	jal	ra,1ce48 <__sprint_r>
   14f98:	7c051263          	bnez	a0,1575c <_vfprintf_r+0x1f0c>
   14f9c:	0fc10b93          	addi	s7,sp,252
   14fa0:	0bc12783          	lw	a5,188(sp)
   14fa4:	00147693          	andi	a3,s0,1
   14fa8:	0dc12703          	lw	a4,220(sp)
   14fac:	00fa67b3          	or	a5,s4,a5
   14fb0:	00d7e7b3          	or	a5,a5,a3
   14fb4:	0e078063          	beqz	a5,15094 <_vfprintf_r+0x1844>
   14fb8:	03412783          	lw	a5,52(sp)
   14fbc:	008b8893          	addi	a7,s7,8
   14fc0:	00fba023          	sw	a5,0(s7)
   14fc4:	02012783          	lw	a5,32(sp)
   14fc8:	00fba223          	sw	a5,4(s7)
   14fcc:	00e787b3          	add	a5,a5,a4
   14fd0:	0cf12e23          	sw	a5,220(sp)
   14fd4:	0d812783          	lw	a5,216(sp)
   14fd8:	00700713          	li	a4,7
   14fdc:	00178793          	addi	a5,a5,1
   14fe0:	0cf12c23          	sw	a5,216(sp)
   14fe4:	00f75e63          	ble	a5,a4,15000 <_vfprintf_r+0x17b0>
   14fe8:	0d410613          	addi	a2,sp,212
   14fec:	00090593          	mv	a1,s2
   14ff0:	00098513          	mv	a0,s3
   14ff4:	655070ef          	jal	ra,1ce48 <__sprint_r>
   14ff8:	76051263          	bnez	a0,1575c <_vfprintf_r+0x1f0c>
   14ffc:	0fc10893          	addi	a7,sp,252
   15000:	0bc12a83          	lw	s5,188(sp)
   15004:	060ad063          	bgez	s5,15064 <_vfprintf_r+0x1814>
   15008:	41500ab3          	neg	s5,s5
   1500c:	00088713          	mv	a4,a7
   15010:	01000b13          	li	s6,16
   15014:	00700c13          	li	s8,7
   15018:	01412603          	lw	a2,20(sp)
   1501c:	0d812783          	lw	a5,216(sp)
   15020:	0dc12683          	lw	a3,220(sp)
   15024:	00c72023          	sw	a2,0(a4)
   15028:	00178793          	addi	a5,a5,1
   1502c:	00888893          	addi	a7,a7,8
   15030:	0b5b4c63          	blt	s6,s5,150e8 <_vfprintf_r+0x1898>
   15034:	01572223          	sw	s5,4(a4)
   15038:	00da8ab3          	add	s5,s5,a3
   1503c:	0d512e23          	sw	s5,220(sp)
   15040:	0cf12c23          	sw	a5,216(sp)
   15044:	00700713          	li	a4,7
   15048:	00f75e63          	ble	a5,a4,15064 <_vfprintf_r+0x1814>
   1504c:	0d410613          	addi	a2,sp,212
   15050:	00090593          	mv	a1,s2
   15054:	00098513          	mv	a0,s3
   15058:	5f1070ef          	jal	ra,1ce48 <__sprint_r>
   1505c:	70051063          	bnez	a0,1575c <_vfprintf_r+0x1f0c>
   15060:	0fc10893          	addi	a7,sp,252
   15064:	0dc12783          	lw	a5,220(sp)
   15068:	0098a023          	sw	s1,0(a7)
   1506c:	0148a223          	sw	s4,4(a7)
   15070:	014787b3          	add	a5,a5,s4
   15074:	0cf12e23          	sw	a5,220(sp)
   15078:	0d812783          	lw	a5,216(sp)
   1507c:	00700713          	li	a4,7
   15080:	00888b93          	addi	s7,a7,8
   15084:	00178793          	addi	a5,a5,1
   15088:	0cf12c23          	sw	a5,216(sp)
   1508c:	00f75463          	ble	a5,a4,15094 <_vfprintf_r+0x1844>
   15090:	e81fe06f          	j	13f10 <_vfprintf_r+0x6c0>
   15094:	00447413          	andi	s0,s0,4
   15098:	66041263          	bnez	s0,156fc <_vfprintf_r+0x1eac>
   1509c:	02812b03          	lw	s6,40(sp)
   150a0:	02c12783          	lw	a5,44(sp)
   150a4:	00fb5463          	ble	a5,s6,150ac <_vfprintf_r+0x185c>
   150a8:	00078b13          	mv	s6,a5
   150ac:	02412783          	lw	a5,36(sp)
   150b0:	016787b3          	add	a5,a5,s6
   150b4:	02f12223          	sw	a5,36(sp)
   150b8:	0dc12783          	lw	a5,220(sp)
   150bc:	00078c63          	beqz	a5,150d4 <_vfprintf_r+0x1884>
   150c0:	0d410613          	addi	a2,sp,212
   150c4:	00090593          	mv	a1,s2
   150c8:	00098513          	mv	a0,s3
   150cc:	57d070ef          	jal	ra,1ce48 <__sprint_r>
   150d0:	68051663          	bnez	a0,1575c <_vfprintf_r+0x1f0c>
   150d4:	00c12783          	lw	a5,12(sp)
   150d8:	0c012c23          	sw	zero,216(sp)
   150dc:	6c079a63          	bnez	a5,157b0 <_vfprintf_r+0x1f60>
   150e0:	0fc10b93          	addi	s7,sp,252
   150e4:	811ff06f          	j	148f4 <_vfprintf_r+0x10a4>
   150e8:	01068693          	addi	a3,a3,16
   150ec:	01672223          	sw	s6,4(a4)
   150f0:	0cd12e23          	sw	a3,220(sp)
   150f4:	0cf12c23          	sw	a5,216(sp)
   150f8:	00fc5e63          	ble	a5,s8,15114 <_vfprintf_r+0x18c4>
   150fc:	0d410613          	addi	a2,sp,212
   15100:	00090593          	mv	a1,s2
   15104:	00098513          	mv	a0,s3
   15108:	541070ef          	jal	ra,1ce48 <__sprint_r>
   1510c:	64051863          	bnez	a0,1575c <_vfprintf_r+0x1f0c>
   15110:	0fc10893          	addi	a7,sp,252
   15114:	ff0a8a93          	addi	s5,s5,-16
   15118:	00088713          	mv	a4,a7
   1511c:	efdff06f          	j	15018 <_vfprintf_r+0x17c8>
   15120:	000d8a93          	mv	s5,s11
   15124:	01ba5463          	ble	s11,s4,1512c <_vfprintf_r+0x18dc>
   15128:	000a0a93          	mv	s5,s4
   1512c:	05505263          	blez	s5,15170 <_vfprintf_r+0x1920>
   15130:	00ea8733          	add	a4,s5,a4
   15134:	0ce12e23          	sw	a4,220(sp)
   15138:	0d812703          	lw	a4,216(sp)
   1513c:	009ba023          	sw	s1,0(s7)
   15140:	015ba223          	sw	s5,4(s7)
   15144:	00170713          	addi	a4,a4,1
   15148:	0ce12c23          	sw	a4,216(sp)
   1514c:	00700693          	li	a3,7
   15150:	008b8b93          	addi	s7,s7,8
   15154:	00e6de63          	ble	a4,a3,15170 <_vfprintf_r+0x1920>
   15158:	0d410613          	addi	a2,sp,212
   1515c:	00090593          	mv	a1,s2
   15160:	00098513          	mv	a0,s3
   15164:	4e5070ef          	jal	ra,1ce48 <__sprint_r>
   15168:	5e051a63          	bnez	a0,1575c <_vfprintf_r+0x1f0c>
   1516c:	0fc10b93          	addi	s7,sp,252
   15170:	000ad463          	bgez	s5,15178 <_vfprintf_r+0x1928>
   15174:	00000a93          	li	s5,0
   15178:	415d8ab3          	sub	s5,s11,s5
   1517c:	05505e63          	blez	s5,151d8 <_vfprintf_r+0x1988>
   15180:	01000b13          	li	s6,16
   15184:	00700d13          	li	s10,7
   15188:	01412783          	lw	a5,20(sp)
   1518c:	0d812703          	lw	a4,216(sp)
   15190:	0dc12683          	lw	a3,220(sp)
   15194:	00fba023          	sw	a5,0(s7)
   15198:	00170713          	addi	a4,a4,1
   1519c:	008b8613          	addi	a2,s7,8
   151a0:	195b4c63          	blt	s6,s5,15338 <_vfprintf_r+0x1ae8>
   151a4:	015ba223          	sw	s5,4(s7)
   151a8:	00da8ab3          	add	s5,s5,a3
   151ac:	0d512e23          	sw	s5,220(sp)
   151b0:	0ce12c23          	sw	a4,216(sp)
   151b4:	00700693          	li	a3,7
   151b8:	00060b93          	mv	s7,a2
   151bc:	00e6de63          	ble	a4,a3,151d8 <_vfprintf_r+0x1988>
   151c0:	0d410613          	addi	a2,sp,212
   151c4:	00090593          	mv	a1,s2
   151c8:	00098513          	mv	a0,s3
   151cc:	47d070ef          	jal	ra,1ce48 <__sprint_r>
   151d0:	58051663          	bnez	a0,1575c <_vfprintf_r+0x1f0c>
   151d4:	0fc10b93          	addi	s7,sp,252
   151d8:	40047793          	andi	a5,s0,1024
   151dc:	01b48ab3          	add	s5,s1,s11
   151e0:	02078063          	beqz	a5,15200 <_vfprintf_r+0x19b0>
   151e4:	00700b13          	li	s6,7
   151e8:	01448d33          	add	s10,s1,s4
   151ec:	180c1263          	bnez	s8,15370 <_vfprintf_r+0x1b20>
   151f0:	180c9263          	bnez	s9,15374 <_vfprintf_r+0x1b24>
   151f4:	014487b3          	add	a5,s1,s4
   151f8:	0157f463          	bleu	s5,a5,15200 <_vfprintf_r+0x19b0>
   151fc:	00078a93          	mv	s5,a5
   15200:	0bc12783          	lw	a5,188(sp)
   15204:	0147c663          	blt	a5,s4,15210 <_vfprintf_r+0x19c0>
   15208:	00147793          	andi	a5,s0,1
   1520c:	04078a63          	beqz	a5,15260 <_vfprintf_r+0x1a10>
   15210:	03412783          	lw	a5,52(sp)
   15214:	02012703          	lw	a4,32(sp)
   15218:	008b8b93          	addi	s7,s7,8
   1521c:	fefbac23          	sw	a5,-8(s7)
   15220:	02012783          	lw	a5,32(sp)
   15224:	fefbae23          	sw	a5,-4(s7)
   15228:	0dc12783          	lw	a5,220(sp)
   1522c:	00e787b3          	add	a5,a5,a4
   15230:	0cf12e23          	sw	a5,220(sp)
   15234:	0d812783          	lw	a5,216(sp)
   15238:	00700713          	li	a4,7
   1523c:	00178793          	addi	a5,a5,1
   15240:	0cf12c23          	sw	a5,216(sp)
   15244:	00f75e63          	ble	a5,a4,15260 <_vfprintf_r+0x1a10>
   15248:	0d410613          	addi	a2,sp,212
   1524c:	00090593          	mv	a1,s2
   15250:	00098513          	mv	a0,s3
   15254:	3f5070ef          	jal	ra,1ce48 <__sprint_r>
   15258:	50051263          	bnez	a0,1575c <_vfprintf_r+0x1f0c>
   1525c:	0fc10b93          	addi	s7,sp,252
   15260:	014484b3          	add	s1,s1,s4
   15264:	415487b3          	sub	a5,s1,s5
   15268:	0bc12483          	lw	s1,188(sp)
   1526c:	409a04b3          	sub	s1,s4,s1
   15270:	0097d463          	ble	s1,a5,15278 <_vfprintf_r+0x1a28>
   15274:	00078493          	mv	s1,a5
   15278:	04905463          	blez	s1,152c0 <_vfprintf_r+0x1a70>
   1527c:	0dc12783          	lw	a5,220(sp)
   15280:	015ba023          	sw	s5,0(s7)
   15284:	009ba223          	sw	s1,4(s7)
   15288:	00f487b3          	add	a5,s1,a5
   1528c:	0cf12e23          	sw	a5,220(sp)
   15290:	0d812783          	lw	a5,216(sp)
   15294:	00700713          	li	a4,7
   15298:	008b8b93          	addi	s7,s7,8
   1529c:	00178793          	addi	a5,a5,1
   152a0:	0cf12c23          	sw	a5,216(sp)
   152a4:	00f75e63          	ble	a5,a4,152c0 <_vfprintf_r+0x1a70>
   152a8:	0d410613          	addi	a2,sp,212
   152ac:	00090593          	mv	a1,s2
   152b0:	00098513          	mv	a0,s3
   152b4:	395070ef          	jal	ra,1ce48 <__sprint_r>
   152b8:	4a051263          	bnez	a0,1575c <_vfprintf_r+0x1f0c>
   152bc:	0fc10b93          	addi	s7,sp,252
   152c0:	00048793          	mv	a5,s1
   152c4:	0004d463          	bgez	s1,152cc <_vfprintf_r+0x1a7c>
   152c8:	00000793          	li	a5,0
   152cc:	0bc12483          	lw	s1,188(sp)
   152d0:	409a04b3          	sub	s1,s4,s1
   152d4:	40f484b3          	sub	s1,s1,a5
   152d8:	da905ee3          	blez	s1,15094 <_vfprintf_r+0x1844>
   152dc:	01000a93          	li	s5,16
   152e0:	00700b13          	li	s6,7
   152e4:	01412603          	lw	a2,20(sp)
   152e8:	0d812783          	lw	a5,216(sp)
   152ec:	0dc12703          	lw	a4,220(sp)
   152f0:	00cba023          	sw	a2,0(s7)
   152f4:	00178793          	addi	a5,a5,1
   152f8:	008b8693          	addi	a3,s7,8
   152fc:	be9adce3          	ble	s1,s5,14ef4 <_vfprintf_r+0x16a4>
   15300:	01070713          	addi	a4,a4,16
   15304:	015ba223          	sw	s5,4(s7)
   15308:	0ce12e23          	sw	a4,220(sp)
   1530c:	0cf12c23          	sw	a5,216(sp)
   15310:	00fb5e63          	ble	a5,s6,1532c <_vfprintf_r+0x1adc>
   15314:	0d410613          	addi	a2,sp,212
   15318:	00090593          	mv	a1,s2
   1531c:	00098513          	mv	a0,s3
   15320:	329070ef          	jal	ra,1ce48 <__sprint_r>
   15324:	42051c63          	bnez	a0,1575c <_vfprintf_r+0x1f0c>
   15328:	0fc10693          	addi	a3,sp,252
   1532c:	ff048493          	addi	s1,s1,-16
   15330:	00068b93          	mv	s7,a3
   15334:	fb1ff06f          	j	152e4 <_vfprintf_r+0x1a94>
   15338:	01068693          	addi	a3,a3,16
   1533c:	016ba223          	sw	s6,4(s7)
   15340:	0cd12e23          	sw	a3,220(sp)
   15344:	0ce12c23          	sw	a4,216(sp)
   15348:	00ed5e63          	ble	a4,s10,15364 <_vfprintf_r+0x1b14>
   1534c:	0d410613          	addi	a2,sp,212
   15350:	00090593          	mv	a1,s2
   15354:	00098513          	mv	a0,s3
   15358:	2f1070ef          	jal	ra,1ce48 <__sprint_r>
   1535c:	40051063          	bnez	a0,1575c <_vfprintf_r+0x1f0c>
   15360:	0fc10613          	addi	a2,sp,252
   15364:	ff0a8a93          	addi	s5,s5,-16
   15368:	00060b93          	mv	s7,a2
   1536c:	e1dff06f          	j	15188 <_vfprintf_r+0x1938>
   15370:	0e0c8263          	beqz	s9,15454 <_vfprintf_r+0x1c04>
   15374:	fffc8c93          	addi	s9,s9,-1
   15378:	03812783          	lw	a5,56(sp)
   1537c:	03012703          	lw	a4,48(sp)
   15380:	008b8b93          	addi	s7,s7,8
   15384:	fefbac23          	sw	a5,-8(s7)
   15388:	03012783          	lw	a5,48(sp)
   1538c:	fefbae23          	sw	a5,-4(s7)
   15390:	0dc12783          	lw	a5,220(sp)
   15394:	00e787b3          	add	a5,a5,a4
   15398:	0cf12e23          	sw	a5,220(sp)
   1539c:	0d812783          	lw	a5,216(sp)
   153a0:	00178793          	addi	a5,a5,1
   153a4:	0cf12c23          	sw	a5,216(sp)
   153a8:	00fb5e63          	ble	a5,s6,153c4 <_vfprintf_r+0x1b74>
   153ac:	0d410613          	addi	a2,sp,212
   153b0:	00090593          	mv	a1,s2
   153b4:	00098513          	mv	a0,s3
   153b8:	291070ef          	jal	ra,1ce48 <__sprint_r>
   153bc:	3a051063          	bnez	a0,1575c <_vfprintf_r+0x1f0c>
   153c0:	0fc10b93          	addi	s7,sp,252
   153c4:	01012783          	lw	a5,16(sp)
   153c8:	415d0733          	sub	a4,s10,s5
   153cc:	0007c783          	lbu	a5,0(a5)
   153d0:	00f75463          	ble	a5,a4,153d8 <_vfprintf_r+0x1b88>
   153d4:	00070793          	mv	a5,a4
   153d8:	04f05663          	blez	a5,15424 <_vfprintf_r+0x1bd4>
   153dc:	0dc12703          	lw	a4,220(sp)
   153e0:	015ba023          	sw	s5,0(s7)
   153e4:	00fba223          	sw	a5,4(s7)
   153e8:	00e78733          	add	a4,a5,a4
   153ec:	0ce12e23          	sw	a4,220(sp)
   153f0:	0d812703          	lw	a4,216(sp)
   153f4:	008b8b93          	addi	s7,s7,8
   153f8:	00170713          	addi	a4,a4,1
   153fc:	0ce12c23          	sw	a4,216(sp)
   15400:	02eb5263          	ble	a4,s6,15424 <_vfprintf_r+0x1bd4>
   15404:	0d410613          	addi	a2,sp,212
   15408:	00090593          	mv	a1,s2
   1540c:	00098513          	mv	a0,s3
   15410:	04f12223          	sw	a5,68(sp)
   15414:	235070ef          	jal	ra,1ce48 <__sprint_r>
   15418:	34051263          	bnez	a0,1575c <_vfprintf_r+0x1f0c>
   1541c:	04412783          	lw	a5,68(sp)
   15420:	0fc10b93          	addi	s7,sp,252
   15424:	00078713          	mv	a4,a5
   15428:	0007d463          	bgez	a5,15430 <_vfprintf_r+0x1be0>
   1542c:	00000713          	li	a4,0
   15430:	01012783          	lw	a5,16(sp)
   15434:	01000813          	li	a6,16
   15438:	0007c783          	lbu	a5,0(a5)
   1543c:	40e787b3          	sub	a5,a5,a4
   15440:	06f04463          	bgtz	a5,154a8 <_vfprintf_r+0x1c58>
   15444:	01012783          	lw	a5,16(sp)
   15448:	0007c783          	lbu	a5,0(a5)
   1544c:	00fa8ab3          	add	s5,s5,a5
   15450:	d9dff06f          	j	151ec <_vfprintf_r+0x199c>
   15454:	01012783          	lw	a5,16(sp)
   15458:	fffc0c13          	addi	s8,s8,-1
   1545c:	fff78793          	addi	a5,a5,-1
   15460:	00f12823          	sw	a5,16(sp)
   15464:	f15ff06f          	j	15378 <_vfprintf_r+0x1b28>
   15468:	01068693          	addi	a3,a3,16
   1546c:	010ba223          	sw	a6,4(s7)
   15470:	0cd12e23          	sw	a3,220(sp)
   15474:	0ce12c23          	sw	a4,216(sp)
   15478:	02eb5463          	ble	a4,s6,154a0 <_vfprintf_r+0x1c50>
   1547c:	0d410613          	addi	a2,sp,212
   15480:	00090593          	mv	a1,s2
   15484:	00098513          	mv	a0,s3
   15488:	04f12223          	sw	a5,68(sp)
   1548c:	1bd070ef          	jal	ra,1ce48 <__sprint_r>
   15490:	2c051663          	bnez	a0,1575c <_vfprintf_r+0x1f0c>
   15494:	04412783          	lw	a5,68(sp)
   15498:	0fc10613          	addi	a2,sp,252
   1549c:	01000813          	li	a6,16
   154a0:	ff078793          	addi	a5,a5,-16
   154a4:	00060b93          	mv	s7,a2
   154a8:	01412583          	lw	a1,20(sp)
   154ac:	0d812703          	lw	a4,216(sp)
   154b0:	0dc12683          	lw	a3,220(sp)
   154b4:	00bba023          	sw	a1,0(s7)
   154b8:	00170713          	addi	a4,a4,1
   154bc:	008b8613          	addi	a2,s7,8
   154c0:	faf844e3          	blt	a6,a5,15468 <_vfprintf_r+0x1c18>
   154c4:	00fba223          	sw	a5,4(s7)
   154c8:	00d787b3          	add	a5,a5,a3
   154cc:	0cf12e23          	sw	a5,220(sp)
   154d0:	0ce12c23          	sw	a4,216(sp)
   154d4:	00060b93          	mv	s7,a2
   154d8:	f6eb56e3          	ble	a4,s6,15444 <_vfprintf_r+0x1bf4>
   154dc:	0d410613          	addi	a2,sp,212
   154e0:	00090593          	mv	a1,s2
   154e4:	00098513          	mv	a0,s3
   154e8:	161070ef          	jal	ra,1ce48 <__sprint_r>
   154ec:	26051863          	bnez	a0,1575c <_vfprintf_r+0x1f0c>
   154f0:	0fc10b93          	addi	s7,sp,252
   154f4:	f51ff06f          	j	15444 <_vfprintf_r+0x1bf4>
   154f8:	0d812783          	lw	a5,216(sp)
   154fc:	00100693          	li	a3,1
   15500:	009ba023          	sw	s1,0(s7)
   15504:	00170713          	addi	a4,a4,1
   15508:	00178793          	addi	a5,a5,1
   1550c:	008b8a93          	addi	s5,s7,8
   15510:	0146c663          	blt	a3,s4,1551c <_vfprintf_r+0x1ccc>
   15514:	00147613          	andi	a2,s0,1
   15518:	1c060663          	beqz	a2,156e4 <_vfprintf_r+0x1e94>
   1551c:	00100693          	li	a3,1
   15520:	0ce12e23          	sw	a4,220(sp)
   15524:	00dba223          	sw	a3,4(s7)
   15528:	0cf12c23          	sw	a5,216(sp)
   1552c:	00700713          	li	a4,7
   15530:	00f75e63          	ble	a5,a4,1554c <_vfprintf_r+0x1cfc>
   15534:	0d410613          	addi	a2,sp,212
   15538:	00090593          	mv	a1,s2
   1553c:	00098513          	mv	a0,s3
   15540:	109070ef          	jal	ra,1ce48 <__sprint_r>
   15544:	20051c63          	bnez	a0,1575c <_vfprintf_r+0x1f0c>
   15548:	0fc10a93          	addi	s5,sp,252
   1554c:	03412783          	lw	a5,52(sp)
   15550:	02012703          	lw	a4,32(sp)
   15554:	008a8a93          	addi	s5,s5,8
   15558:	fefaac23          	sw	a5,-8(s5)
   1555c:	02012783          	lw	a5,32(sp)
   15560:	fefaae23          	sw	a5,-4(s5)
   15564:	0dc12783          	lw	a5,220(sp)
   15568:	00e787b3          	add	a5,a5,a4
   1556c:	0cf12e23          	sw	a5,220(sp)
   15570:	0d812783          	lw	a5,216(sp)
   15574:	00700713          	li	a4,7
   15578:	00178793          	addi	a5,a5,1
   1557c:	0cf12c23          	sw	a5,216(sp)
   15580:	00f75e63          	ble	a5,a4,1559c <_vfprintf_r+0x1d4c>
   15584:	0d410613          	addi	a2,sp,212
   15588:	00090593          	mv	a1,s2
   1558c:	00098513          	mv	a0,s3
   15590:	0b9070ef          	jal	ra,1ce48 <__sprint_r>
   15594:	1c051463          	bnez	a0,1575c <_vfprintf_r+0x1f0c>
   15598:	0fc10a93          	addi	s5,sp,252
   1559c:	0e012783          	lw	a5,224(sp)
   155a0:	09010593          	addi	a1,sp,144
   155a4:	0a010513          	addi	a0,sp,160
   155a8:	0af12023          	sw	a5,160(sp)
   155ac:	0e412783          	lw	a5,228(sp)
   155b0:	fffa0b13          	addi	s6,s4,-1
   155b4:	08012823          	sw	zero,144(sp)
   155b8:	0af12223          	sw	a5,164(sp)
   155bc:	0e812783          	lw	a5,232(sp)
   155c0:	08012a23          	sw	zero,148(sp)
   155c4:	08012c23          	sw	zero,152(sp)
   155c8:	0af12423          	sw	a5,168(sp)
   155cc:	0ec12783          	lw	a5,236(sp)
   155d0:	08012e23          	sw	zero,156(sp)
   155d4:	0af12623          	sw	a5,172(sp)
   155d8:	1900b0ef          	jal	ra,20768 <__eqtf2>
   155dc:	08050663          	beqz	a0,15668 <_vfprintf_r+0x1e18>
   155e0:	0dc12783          	lw	a5,220(sp)
   155e4:	0d812703          	lw	a4,216(sp)
   155e8:	00148493          	addi	s1,s1,1
   155ec:	fff78793          	addi	a5,a5,-1
   155f0:	014787b3          	add	a5,a5,s4
   155f4:	00170713          	addi	a4,a4,1
   155f8:	009aa023          	sw	s1,0(s5)
   155fc:	016aa223          	sw	s6,4(s5)
   15600:	0cf12e23          	sw	a5,220(sp)
   15604:	0ce12c23          	sw	a4,216(sp)
   15608:	00700793          	li	a5,7
   1560c:	008a8a93          	addi	s5,s5,8
   15610:	00e7de63          	ble	a4,a5,1562c <_vfprintf_r+0x1ddc>
   15614:	0d410613          	addi	a2,sp,212
   15618:	00090593          	mv	a1,s2
   1561c:	00098513          	mv	a0,s3
   15620:	029070ef          	jal	ra,1ce48 <__sprint_r>
   15624:	12051c63          	bnez	a0,1575c <_vfprintf_r+0x1f0c>
   15628:	0fc10a93          	addi	s5,sp,252
   1562c:	0c410793          	addi	a5,sp,196
   15630:	00faa023          	sw	a5,0(s5)
   15634:	03c12783          	lw	a5,60(sp)
   15638:	03c12703          	lw	a4,60(sp)
   1563c:	008a8b93          	addi	s7,s5,8
   15640:	00faa223          	sw	a5,4(s5)
   15644:	0dc12783          	lw	a5,220(sp)
   15648:	00e787b3          	add	a5,a5,a4
   1564c:	0cf12e23          	sw	a5,220(sp)
   15650:	0d812783          	lw	a5,216(sp)
   15654:	00700713          	li	a4,7
   15658:	00178793          	addi	a5,a5,1
   1565c:	0cf12c23          	sw	a5,216(sp)
   15660:	a2f75ae3          	ble	a5,a4,15094 <_vfprintf_r+0x1844>
   15664:	8adfe06f          	j	13f10 <_vfprintf_r+0x6c0>
   15668:	fd6052e3          	blez	s6,1562c <_vfprintf_r+0x1ddc>
   1566c:	01000493          	li	s1,16
   15670:	00700c13          	li	s8,7
   15674:	01412603          	lw	a2,20(sp)
   15678:	0d812703          	lw	a4,216(sp)
   1567c:	0dc12783          	lw	a5,220(sp)
   15680:	00caa023          	sw	a2,0(s5)
   15684:	00170713          	addi	a4,a4,1
   15688:	008a8693          	addi	a3,s5,8
   1568c:	0364c063          	blt	s1,s6,156ac <_vfprintf_r+0x1e5c>
   15690:	00fb07b3          	add	a5,s6,a5
   15694:	016aa223          	sw	s6,4(s5)
   15698:	0cf12e23          	sw	a5,220(sp)
   1569c:	0ce12c23          	sw	a4,216(sp)
   156a0:	00700793          	li	a5,7
   156a4:	00068a93          	mv	s5,a3
   156a8:	f69ff06f          	j	15610 <_vfprintf_r+0x1dc0>
   156ac:	01078793          	addi	a5,a5,16
   156b0:	009aa223          	sw	s1,4(s5)
   156b4:	0cf12e23          	sw	a5,220(sp)
   156b8:	0ce12c23          	sw	a4,216(sp)
   156bc:	00ec5e63          	ble	a4,s8,156d8 <_vfprintf_r+0x1e88>
   156c0:	0d410613          	addi	a2,sp,212
   156c4:	00090593          	mv	a1,s2
   156c8:	00098513          	mv	a0,s3
   156cc:	77c070ef          	jal	ra,1ce48 <__sprint_r>
   156d0:	08051663          	bnez	a0,1575c <_vfprintf_r+0x1f0c>
   156d4:	0fc10693          	addi	a3,sp,252
   156d8:	ff0b0b13          	addi	s6,s6,-16
   156dc:	00068a93          	mv	s5,a3
   156e0:	f95ff06f          	j	15674 <_vfprintf_r+0x1e24>
   156e4:	0ce12e23          	sw	a4,220(sp)
   156e8:	00dba223          	sw	a3,4(s7)
   156ec:	0cf12c23          	sw	a5,216(sp)
   156f0:	00700713          	li	a4,7
   156f4:	f2f75ce3          	ble	a5,a4,1562c <_vfprintf_r+0x1ddc>
   156f8:	f1dff06f          	j	15614 <_vfprintf_r+0x1dc4>
   156fc:	02812783          	lw	a5,40(sp)
   15700:	02c12703          	lw	a4,44(sp)
   15704:	40e78433          	sub	s0,a5,a4
   15708:	98805ae3          	blez	s0,1509c <_vfprintf_r+0x184c>
   1570c:	000247b7          	lui	a5,0x24
   15710:	01000a93          	li	s5,16
   15714:	48c78493          	addi	s1,a5,1164 # 2448c <blanks.4513>
   15718:	00700b13          	li	s6,7
   1571c:	0d812783          	lw	a5,216(sp)
   15720:	009ba023          	sw	s1,0(s7)
   15724:	0dc12703          	lw	a4,220(sp)
   15728:	00178793          	addi	a5,a5,1
   1572c:	048ac663          	blt	s5,s0,15778 <_vfprintf_r+0x1f28>
   15730:	008ba223          	sw	s0,4(s7)
   15734:	00e40433          	add	s0,s0,a4
   15738:	0c812e23          	sw	s0,220(sp)
   1573c:	0cf12c23          	sw	a5,216(sp)
   15740:	00700713          	li	a4,7
   15744:	94f75ce3          	ble	a5,a4,1509c <_vfprintf_r+0x184c>
   15748:	0d410613          	addi	a2,sp,212
   1574c:	00090593          	mv	a1,s2
   15750:	00098513          	mv	a0,s3
   15754:	6f4070ef          	jal	ra,1ce48 <__sprint_r>
   15758:	940502e3          	beqz	a0,1509c <_vfprintf_r+0x184c>
   1575c:	00c12783          	lw	a5,12(sp)
   15760:	00079463          	bnez	a5,15768 <_vfprintf_r+0x1f18>
   15764:	a11fe06f          	j	14174 <_vfprintf_r+0x924>
   15768:	00078593          	mv	a1,a5
   1576c:	00098513          	mv	a0,s3
   15770:	3ad000ef          	jal	ra,1631c <_free_r>
   15774:	a01fe06f          	j	14174 <_vfprintf_r+0x924>
   15778:	01070713          	addi	a4,a4,16
   1577c:	015ba223          	sw	s5,4(s7)
   15780:	0ce12e23          	sw	a4,220(sp)
   15784:	0cf12c23          	sw	a5,216(sp)
   15788:	008b8b93          	addi	s7,s7,8
   1578c:	00fb5e63          	ble	a5,s6,157a8 <_vfprintf_r+0x1f58>
   15790:	0d410613          	addi	a2,sp,212
   15794:	00090593          	mv	a1,s2
   15798:	00098513          	mv	a0,s3
   1579c:	6ac070ef          	jal	ra,1ce48 <__sprint_r>
   157a0:	fa051ee3          	bnez	a0,1575c <_vfprintf_r+0x1f0c>
   157a4:	0fc10b93          	addi	s7,sp,252
   157a8:	ff040413          	addi	s0,s0,-16
   157ac:	f71ff06f          	j	1571c <_vfprintf_r+0x1ecc>
   157b0:	00c12583          	lw	a1,12(sp)
   157b4:	00098513          	mv	a0,s3
   157b8:	365000ef          	jal	ra,1631c <_free_r>
   157bc:	925ff06f          	j	150e0 <_vfprintf_r+0x1890>
   157c0:	0dc12783          	lw	a5,220(sp)
   157c4:	00079463          	bnez	a5,157cc <_vfprintf_r+0x1f7c>
   157c8:	9adfe06f          	j	14174 <_vfprintf_r+0x924>
   157cc:	0d410613          	addi	a2,sp,212
   157d0:	00090593          	mv	a1,s2
   157d4:	00098513          	mv	a0,s3
   157d8:	670070ef          	jal	ra,1ce48 <__sprint_r>
   157dc:	999fe06f          	j	14174 <_vfprintf_r+0x924>
   157e0:	fff00793          	li	a5,-1
   157e4:	b4fd1a63          	bne	s10,a5,14b38 <_vfprintf_r+0x12e8>
   157e8:	bc0d9c63          	bnez	s11,14bc0 <_vfprintf_r+0x1370>
   157ec:	00900793          	li	a5,9
   157f0:	bd97e863          	bltu	a5,s9,14bc0 <_vfprintf_r+0x1370>
   157f4:	030c8c93          	addi	s9,s9,48
   157f8:	19910fa3          	sb	s9,415(sp)
   157fc:	19f10493          	addi	s1,sp,415
   15800:	b98ff06f          	j	14b98 <_vfprintf_r+0x1348>

00015804 <vfprintf>:
   15804:	00060693          	mv	a3,a2
   15808:	00058613          	mv	a2,a1
   1580c:	00050593          	mv	a1,a0
   15810:	8301a503          	lw	a0,-2000(gp) # 25aa0 <_impure_ptr>
   15814:	83cfe06f          	j	13850 <_vfprintf_r>

00015818 <__sbprintf>:
   15818:	00c5d783          	lhu	a5,12(a1)
   1581c:	b8010113          	addi	sp,sp,-1152
   15820:	46812c23          	sw	s0,1144(sp)
   15824:	ffd7f793          	andi	a5,a5,-3
   15828:	00f11a23          	sh	a5,20(sp)
   1582c:	0645a783          	lw	a5,100(a1)
   15830:	00058413          	mv	s0,a1
   15834:	46912a23          	sw	s1,1140(sp)
   15838:	06f12623          	sw	a5,108(sp)
   1583c:	00e5d783          	lhu	a5,14(a1)
   15840:	47212823          	sw	s2,1136(sp)
   15844:	46112e23          	sw	ra,1148(sp)
   15848:	00f11b23          	sh	a5,22(sp)
   1584c:	01c5a783          	lw	a5,28(a1)
   15850:	00050913          	mv	s2,a0
   15854:	02012023          	sw	zero,32(sp)
   15858:	02f12223          	sw	a5,36(sp)
   1585c:	0245a783          	lw	a5,36(a1)
   15860:	00810593          	addi	a1,sp,8
   15864:	02f12623          	sw	a5,44(sp)
   15868:	07010793          	addi	a5,sp,112
   1586c:	00f12423          	sw	a5,8(sp)
   15870:	00f12c23          	sw	a5,24(sp)
   15874:	40000793          	li	a5,1024
   15878:	00f12823          	sw	a5,16(sp)
   1587c:	00f12e23          	sw	a5,28(sp)
   15880:	fd1fd0ef          	jal	ra,13850 <_vfprintf_r>
   15884:	00050493          	mv	s1,a0
   15888:	00054c63          	bltz	a0,158a0 <__sbprintf+0x88>
   1588c:	00810593          	addi	a1,sp,8
   15890:	00090513          	mv	a0,s2
   15894:	644000ef          	jal	ra,15ed8 <_fflush_r>
   15898:	00050463          	beqz	a0,158a0 <__sbprintf+0x88>
   1589c:	fff00493          	li	s1,-1
   158a0:	01415783          	lhu	a5,20(sp)
   158a4:	0407f793          	andi	a5,a5,64
   158a8:	00078863          	beqz	a5,158b8 <__sbprintf+0xa0>
   158ac:	00c45783          	lhu	a5,12(s0)
   158b0:	0407e793          	ori	a5,a5,64
   158b4:	00f41623          	sh	a5,12(s0)
   158b8:	47c12083          	lw	ra,1148(sp)
   158bc:	47812403          	lw	s0,1144(sp)
   158c0:	00048513          	mv	a0,s1
   158c4:	47012903          	lw	s2,1136(sp)
   158c8:	47412483          	lw	s1,1140(sp)
   158cc:	48010113          	addi	sp,sp,1152
   158d0:	00008067          	ret

000158d4 <__swbuf_r>:
   158d4:	fe010113          	addi	sp,sp,-32
   158d8:	00812c23          	sw	s0,24(sp)
   158dc:	00912a23          	sw	s1,20(sp)
   158e0:	01212823          	sw	s2,16(sp)
   158e4:	00112e23          	sw	ra,28(sp)
   158e8:	01312623          	sw	s3,12(sp)
   158ec:	00050913          	mv	s2,a0
   158f0:	00058493          	mv	s1,a1
   158f4:	00060413          	mv	s0,a2
   158f8:	00050863          	beqz	a0,15908 <__swbuf_r+0x34>
   158fc:	03852783          	lw	a5,56(a0)
   15900:	00079463          	bnez	a5,15908 <__swbuf_r+0x34>
   15904:	770000ef          	jal	ra,16074 <__sinit>
   15908:	01842783          	lw	a5,24(s0)
   1590c:	00f42423          	sw	a5,8(s0)
   15910:	00c45783          	lhu	a5,12(s0)
   15914:	0087f793          	andi	a5,a5,8
   15918:	0a078863          	beqz	a5,159c8 <__swbuf_r+0xf4>
   1591c:	01042783          	lw	a5,16(s0)
   15920:	0a078463          	beqz	a5,159c8 <__swbuf_r+0xf4>
   15924:	00c41783          	lh	a5,12(s0)
   15928:	0ff4f993          	andi	s3,s1,255
   1592c:	0ff4f493          	andi	s1,s1,255
   15930:	01279713          	slli	a4,a5,0x12
   15934:	0a075663          	bgez	a4,159e0 <__swbuf_r+0x10c>
   15938:	01042783          	lw	a5,16(s0)
   1593c:	00042503          	lw	a0,0(s0)
   15940:	40f50533          	sub	a0,a0,a5
   15944:	01442783          	lw	a5,20(s0)
   15948:	00f54a63          	blt	a0,a5,1595c <__swbuf_r+0x88>
   1594c:	00040593          	mv	a1,s0
   15950:	00090513          	mv	a0,s2
   15954:	584000ef          	jal	ra,15ed8 <_fflush_r>
   15958:	08051063          	bnez	a0,159d8 <__swbuf_r+0x104>
   1595c:	00842783          	lw	a5,8(s0)
   15960:	00150513          	addi	a0,a0,1
   15964:	fff78793          	addi	a5,a5,-1
   15968:	00f42423          	sw	a5,8(s0)
   1596c:	00042783          	lw	a5,0(s0)
   15970:	00178713          	addi	a4,a5,1
   15974:	00e42023          	sw	a4,0(s0)
   15978:	01378023          	sb	s3,0(a5)
   1597c:	01442783          	lw	a5,20(s0)
   15980:	00a78c63          	beq	a5,a0,15998 <__swbuf_r+0xc4>
   15984:	00c45783          	lhu	a5,12(s0)
   15988:	0017f793          	andi	a5,a5,1
   1598c:	00078e63          	beqz	a5,159a8 <__swbuf_r+0xd4>
   15990:	00a00793          	li	a5,10
   15994:	00f49a63          	bne	s1,a5,159a8 <__swbuf_r+0xd4>
   15998:	00040593          	mv	a1,s0
   1599c:	00090513          	mv	a0,s2
   159a0:	538000ef          	jal	ra,15ed8 <_fflush_r>
   159a4:	02051a63          	bnez	a0,159d8 <__swbuf_r+0x104>
   159a8:	01c12083          	lw	ra,28(sp)
   159ac:	01812403          	lw	s0,24(sp)
   159b0:	00048513          	mv	a0,s1
   159b4:	01012903          	lw	s2,16(sp)
   159b8:	01412483          	lw	s1,20(sp)
   159bc:	00c12983          	lw	s3,12(sp)
   159c0:	02010113          	addi	sp,sp,32
   159c4:	00008067          	ret
   159c8:	00040593          	mv	a1,s0
   159cc:	00090513          	mv	a0,s2
   159d0:	044000ef          	jal	ra,15a14 <__swsetup_r>
   159d4:	f40508e3          	beqz	a0,15924 <__swbuf_r+0x50>
   159d8:	fff00493          	li	s1,-1
   159dc:	fcdff06f          	j	159a8 <__swbuf_r+0xd4>
   159e0:	00002737          	lui	a4,0x2
   159e4:	00e7e7b3          	or	a5,a5,a4
   159e8:	00f41623          	sh	a5,12(s0)
   159ec:	06442783          	lw	a5,100(s0)
   159f0:	ffffe737          	lui	a4,0xffffe
   159f4:	fff70713          	addi	a4,a4,-1 # ffffdfff <__global_pointer$+0xfffd7d8f>
   159f8:	00e7f7b3          	and	a5,a5,a4
   159fc:	06f42223          	sw	a5,100(s0)
   15a00:	f39ff06f          	j	15938 <__swbuf_r+0x64>

00015a04 <__swbuf>:
   15a04:	00058613          	mv	a2,a1
   15a08:	00050593          	mv	a1,a0
   15a0c:	8301a503          	lw	a0,-2000(gp) # 25aa0 <_impure_ptr>
   15a10:	ec5ff06f          	j	158d4 <__swbuf_r>

00015a14 <__swsetup_r>:
   15a14:	ff010113          	addi	sp,sp,-16
   15a18:	00912223          	sw	s1,4(sp)
   15a1c:	00050493          	mv	s1,a0
   15a20:	8301a503          	lw	a0,-2000(gp) # 25aa0 <_impure_ptr>
   15a24:	00812423          	sw	s0,8(sp)
   15a28:	00112623          	sw	ra,12(sp)
   15a2c:	00058413          	mv	s0,a1
   15a30:	00050863          	beqz	a0,15a40 <__swsetup_r+0x2c>
   15a34:	03852783          	lw	a5,56(a0)
   15a38:	00079463          	bnez	a5,15a40 <__swsetup_r+0x2c>
   15a3c:	638000ef          	jal	ra,16074 <__sinit>
   15a40:	00c41703          	lh	a4,12(s0)
   15a44:	01071793          	slli	a5,a4,0x10
   15a48:	0107d793          	srli	a5,a5,0x10
   15a4c:	0087f693          	andi	a3,a5,8
   15a50:	06069e63          	bnez	a3,15acc <__swsetup_r+0xb8>
   15a54:	0107f693          	andi	a3,a5,16
   15a58:	02069663          	bnez	a3,15a84 <__swsetup_r+0x70>
   15a5c:	00900793          	li	a5,9
   15a60:	00f4a023          	sw	a5,0(s1)
   15a64:	04076713          	ori	a4,a4,64
   15a68:	00e41623          	sh	a4,12(s0)
   15a6c:	fff00513          	li	a0,-1
   15a70:	00c12083          	lw	ra,12(sp)
   15a74:	00812403          	lw	s0,8(sp)
   15a78:	00412483          	lw	s1,4(sp)
   15a7c:	01010113          	addi	sp,sp,16
   15a80:	00008067          	ret
   15a84:	0047f793          	andi	a5,a5,4
   15a88:	02078c63          	beqz	a5,15ac0 <__swsetup_r+0xac>
   15a8c:	03042583          	lw	a1,48(s0)
   15a90:	00058c63          	beqz	a1,15aa8 <__swsetup_r+0x94>
   15a94:	04040793          	addi	a5,s0,64
   15a98:	00f58663          	beq	a1,a5,15aa4 <__swsetup_r+0x90>
   15a9c:	00048513          	mv	a0,s1
   15aa0:	07d000ef          	jal	ra,1631c <_free_r>
   15aa4:	02042823          	sw	zero,48(s0)
   15aa8:	00c45783          	lhu	a5,12(s0)
   15aac:	00042223          	sw	zero,4(s0)
   15ab0:	fdb7f793          	andi	a5,a5,-37
   15ab4:	00f41623          	sh	a5,12(s0)
   15ab8:	01042783          	lw	a5,16(s0)
   15abc:	00f42023          	sw	a5,0(s0)
   15ac0:	00c45783          	lhu	a5,12(s0)
   15ac4:	0087e793          	ori	a5,a5,8
   15ac8:	00f41623          	sh	a5,12(s0)
   15acc:	01042783          	lw	a5,16(s0)
   15ad0:	02079063          	bnez	a5,15af0 <__swsetup_r+0xdc>
   15ad4:	00c45783          	lhu	a5,12(s0)
   15ad8:	20000713          	li	a4,512
   15adc:	2807f793          	andi	a5,a5,640
   15ae0:	00e78863          	beq	a5,a4,15af0 <__swsetup_r+0xdc>
   15ae4:	00040593          	mv	a1,s0
   15ae8:	00048513          	mv	a0,s1
   15aec:	184030ef          	jal	ra,18c70 <__smakebuf_r>
   15af0:	00c45783          	lhu	a5,12(s0)
   15af4:	0017f713          	andi	a4,a5,1
   15af8:	02070c63          	beqz	a4,15b30 <__swsetup_r+0x11c>
   15afc:	01442783          	lw	a5,20(s0)
   15b00:	00042423          	sw	zero,8(s0)
   15b04:	40f007b3          	neg	a5,a5
   15b08:	00f42c23          	sw	a5,24(s0)
   15b0c:	01042783          	lw	a5,16(s0)
   15b10:	00000513          	li	a0,0
   15b14:	f4079ee3          	bnez	a5,15a70 <__swsetup_r+0x5c>
   15b18:	00c41783          	lh	a5,12(s0)
   15b1c:	0807f713          	andi	a4,a5,128
   15b20:	f40708e3          	beqz	a4,15a70 <__swsetup_r+0x5c>
   15b24:	0407e793          	ori	a5,a5,64
   15b28:	00f41623          	sh	a5,12(s0)
   15b2c:	f41ff06f          	j	15a6c <__swsetup_r+0x58>
   15b30:	0027f793          	andi	a5,a5,2
   15b34:	00000713          	li	a4,0
   15b38:	00079463          	bnez	a5,15b40 <__swsetup_r+0x12c>
   15b3c:	01442703          	lw	a4,20(s0)
   15b40:	00e42423          	sw	a4,8(s0)
   15b44:	fc9ff06f          	j	15b0c <__swsetup_r+0xf8>

00015b48 <__register_exitproc>:
   15b48:	8201a703          	lw	a4,-2016(gp) # 25a90 <_global_impure_ptr>
   15b4c:	00050313          	mv	t1,a0
   15b50:	14872783          	lw	a5,328(a4)
   15b54:	00079663          	bnez	a5,15b60 <__register_exitproc+0x18>
   15b58:	14c70793          	addi	a5,a4,332
   15b5c:	14f72423          	sw	a5,328(a4)
   15b60:	0047a703          	lw	a4,4(a5)
   15b64:	01f00813          	li	a6,31
   15b68:	fff00513          	li	a0,-1
   15b6c:	04e84a63          	blt	a6,a4,15bc0 <__register_exitproc+0x78>
   15b70:	00271893          	slli	a7,a4,0x2
   15b74:	02030c63          	beqz	t1,15bac <__register_exitproc+0x64>
   15b78:	01178533          	add	a0,a5,a7
   15b7c:	08c52423          	sw	a2,136(a0)
   15b80:	1887a803          	lw	a6,392(a5)
   15b84:	00100613          	li	a2,1
   15b88:	00e61633          	sll	a2,a2,a4
   15b8c:	00c86833          	or	a6,a6,a2
   15b90:	1907a423          	sw	a6,392(a5)
   15b94:	10d52423          	sw	a3,264(a0)
   15b98:	00200693          	li	a3,2
   15b9c:	00d31863          	bne	t1,a3,15bac <__register_exitproc+0x64>
   15ba0:	18c7a683          	lw	a3,396(a5)
   15ba4:	00c6e633          	or	a2,a3,a2
   15ba8:	18c7a623          	sw	a2,396(a5)
   15bac:	00170713          	addi	a4,a4,1
   15bb0:	00e7a223          	sw	a4,4(a5)
   15bb4:	011787b3          	add	a5,a5,a7
   15bb8:	00b7a423          	sw	a1,8(a5)
   15bbc:	00000513          	li	a0,0
   15bc0:	00008067          	ret

00015bc4 <__call_exitprocs>:
   15bc4:	fd010113          	addi	sp,sp,-48
   15bc8:	01312e23          	sw	s3,28(sp)
   15bcc:	8201a983          	lw	s3,-2016(gp) # 25a90 <_global_impure_ptr>
   15bd0:	01412c23          	sw	s4,24(sp)
   15bd4:	01512a23          	sw	s5,20(sp)
   15bd8:	01612823          	sw	s6,16(sp)
   15bdc:	02112623          	sw	ra,44(sp)
   15be0:	02812423          	sw	s0,40(sp)
   15be4:	02912223          	sw	s1,36(sp)
   15be8:	03212023          	sw	s2,32(sp)
   15bec:	01712623          	sw	s7,12(sp)
   15bf0:	00050a93          	mv	s5,a0
   15bf4:	00058a13          	mv	s4,a1
   15bf8:	00100b13          	li	s6,1
   15bfc:	1489a483          	lw	s1,328(s3)
   15c00:	00048c63          	beqz	s1,15c18 <__call_exitprocs+0x54>
   15c04:	0044a403          	lw	s0,4(s1)
   15c08:	fff40913          	addi	s2,s0,-1
   15c0c:	00241413          	slli	s0,s0,0x2
   15c10:	00848433          	add	s0,s1,s0
   15c14:	02095863          	bgez	s2,15c44 <__call_exitprocs+0x80>
   15c18:	02c12083          	lw	ra,44(sp)
   15c1c:	02812403          	lw	s0,40(sp)
   15c20:	02412483          	lw	s1,36(sp)
   15c24:	02012903          	lw	s2,32(sp)
   15c28:	01c12983          	lw	s3,28(sp)
   15c2c:	01812a03          	lw	s4,24(sp)
   15c30:	01412a83          	lw	s5,20(sp)
   15c34:	01012b03          	lw	s6,16(sp)
   15c38:	00c12b83          	lw	s7,12(sp)
   15c3c:	03010113          	addi	sp,sp,48
   15c40:	00008067          	ret
   15c44:	000a0c63          	beqz	s4,15c5c <__call_exitprocs+0x98>
   15c48:	10442783          	lw	a5,260(s0)
   15c4c:	01478863          	beq	a5,s4,15c5c <__call_exitprocs+0x98>
   15c50:	fff90913          	addi	s2,s2,-1
   15c54:	ffc40413          	addi	s0,s0,-4
   15c58:	fbdff06f          	j	15c14 <__call_exitprocs+0x50>
   15c5c:	0044a703          	lw	a4,4(s1)
   15c60:	00442783          	lw	a5,4(s0)
   15c64:	fff70713          	addi	a4,a4,-1
   15c68:	03271c63          	bne	a4,s2,15ca0 <__call_exitprocs+0xdc>
   15c6c:	0124a223          	sw	s2,4(s1)
   15c70:	fe0780e3          	beqz	a5,15c50 <__call_exitprocs+0x8c>
   15c74:	1884a683          	lw	a3,392(s1)
   15c78:	012b1733          	sll	a4,s6,s2
   15c7c:	0044ab83          	lw	s7,4(s1)
   15c80:	00d776b3          	and	a3,a4,a3
   15c84:	02069263          	bnez	a3,15ca8 <__call_exitprocs+0xe4>
   15c88:	000780e7          	jalr	a5
   15c8c:	0044a783          	lw	a5,4(s1)
   15c90:	f77796e3          	bne	a5,s7,15bfc <__call_exitprocs+0x38>
   15c94:	1489a783          	lw	a5,328(s3)
   15c98:	fa978ce3          	beq	a5,s1,15c50 <__call_exitprocs+0x8c>
   15c9c:	f61ff06f          	j	15bfc <__call_exitprocs+0x38>
   15ca0:	00042223          	sw	zero,4(s0)
   15ca4:	fcdff06f          	j	15c70 <__call_exitprocs+0xac>
   15ca8:	18c4a683          	lw	a3,396(s1)
   15cac:	08442583          	lw	a1,132(s0)
   15cb0:	00d77733          	and	a4,a4,a3
   15cb4:	00071863          	bnez	a4,15cc4 <__call_exitprocs+0x100>
   15cb8:	000a8513          	mv	a0,s5
   15cbc:	000780e7          	jalr	a5
   15cc0:	fcdff06f          	j	15c8c <__call_exitprocs+0xc8>
   15cc4:	00058513          	mv	a0,a1
   15cc8:	000780e7          	jalr	a5
   15ccc:	fc1ff06f          	j	15c8c <__call_exitprocs+0xc8>

00015cd0 <__sflush_r>:
   15cd0:	00c59783          	lh	a5,12(a1)
   15cd4:	fe010113          	addi	sp,sp,-32
   15cd8:	00812c23          	sw	s0,24(sp)
   15cdc:	01079713          	slli	a4,a5,0x10
   15ce0:	01075713          	srli	a4,a4,0x10
   15ce4:	00912a23          	sw	s1,20(sp)
   15ce8:	00112e23          	sw	ra,28(sp)
   15cec:	01212823          	sw	s2,16(sp)
   15cf0:	01312623          	sw	s3,12(sp)
   15cf4:	00877693          	andi	a3,a4,8
   15cf8:	00050493          	mv	s1,a0
   15cfc:	00058413          	mv	s0,a1
   15d00:	16069c63          	bnez	a3,15e78 <__sflush_r+0x1a8>
   15d04:	00001737          	lui	a4,0x1
   15d08:	80070713          	addi	a4,a4,-2048 # 800 <main-0xf874>
   15d0c:	00e7e7b3          	or	a5,a5,a4
   15d10:	0045a703          	lw	a4,4(a1)
   15d14:	00f59623          	sh	a5,12(a1)
   15d18:	02e04663          	bgtz	a4,15d44 <__sflush_r+0x74>
   15d1c:	03c5a703          	lw	a4,60(a1)
   15d20:	02e04263          	bgtz	a4,15d44 <__sflush_r+0x74>
   15d24:	00000513          	li	a0,0
   15d28:	01c12083          	lw	ra,28(sp)
   15d2c:	01812403          	lw	s0,24(sp)
   15d30:	01412483          	lw	s1,20(sp)
   15d34:	01012903          	lw	s2,16(sp)
   15d38:	00c12983          	lw	s3,12(sp)
   15d3c:	02010113          	addi	sp,sp,32
   15d40:	00008067          	ret
   15d44:	02842703          	lw	a4,40(s0)
   15d48:	fc070ee3          	beqz	a4,15d24 <__sflush_r+0x54>
   15d4c:	0004a903          	lw	s2,0(s1)
   15d50:	01379693          	slli	a3,a5,0x13
   15d54:	0004a023          	sw	zero,0(s1)
   15d58:	0c06d863          	bgez	a3,15e28 <__sflush_r+0x158>
   15d5c:	05042603          	lw	a2,80(s0)
   15d60:	00c45783          	lhu	a5,12(s0)
   15d64:	0047f793          	andi	a5,a5,4
   15d68:	00078e63          	beqz	a5,15d84 <__sflush_r+0xb4>
   15d6c:	00442783          	lw	a5,4(s0)
   15d70:	40f60633          	sub	a2,a2,a5
   15d74:	03042783          	lw	a5,48(s0)
   15d78:	00078663          	beqz	a5,15d84 <__sflush_r+0xb4>
   15d7c:	03c42783          	lw	a5,60(s0)
   15d80:	40f60633          	sub	a2,a2,a5
   15d84:	02842783          	lw	a5,40(s0)
   15d88:	01c42583          	lw	a1,28(s0)
   15d8c:	00000693          	li	a3,0
   15d90:	00048513          	mv	a0,s1
   15d94:	000780e7          	jalr	a5
   15d98:	fff00793          	li	a5,-1
   15d9c:	00c45683          	lhu	a3,12(s0)
   15da0:	02f51263          	bne	a0,a5,15dc4 <__sflush_r+0xf4>
   15da4:	0004a783          	lw	a5,0(s1)
   15da8:	01d00713          	li	a4,29
   15dac:	0af76e63          	bltu	a4,a5,15e68 <__sflush_r+0x198>
   15db0:	20400737          	lui	a4,0x20400
   15db4:	00170713          	addi	a4,a4,1 # 20400001 <__global_pointer$+0x203d9d91>
   15db8:	00f75733          	srl	a4,a4,a5
   15dbc:	00177713          	andi	a4,a4,1
   15dc0:	0a070463          	beqz	a4,15e68 <__sflush_r+0x198>
   15dc4:	fffff7b7          	lui	a5,0xfffff
   15dc8:	7ff78793          	addi	a5,a5,2047 # fffff7ff <__global_pointer$+0xfffd958f>
   15dcc:	01042703          	lw	a4,16(s0)
   15dd0:	00d7f7b3          	and	a5,a5,a3
   15dd4:	01079793          	slli	a5,a5,0x10
   15dd8:	4107d793          	srai	a5,a5,0x10
   15ddc:	00e42023          	sw	a4,0(s0)
   15de0:	00f41623          	sh	a5,12(s0)
   15de4:	00042223          	sw	zero,4(s0)
   15de8:	01379713          	slli	a4,a5,0x13
   15dec:	00075c63          	bgez	a4,15e04 <__sflush_r+0x134>
   15df0:	fff00793          	li	a5,-1
   15df4:	00f51663          	bne	a0,a5,15e00 <__sflush_r+0x130>
   15df8:	0004a783          	lw	a5,0(s1)
   15dfc:	00079463          	bnez	a5,15e04 <__sflush_r+0x134>
   15e00:	04a42823          	sw	a0,80(s0)
   15e04:	03042583          	lw	a1,48(s0)
   15e08:	0124a023          	sw	s2,0(s1)
   15e0c:	f0058ce3          	beqz	a1,15d24 <__sflush_r+0x54>
   15e10:	04040793          	addi	a5,s0,64
   15e14:	00f58663          	beq	a1,a5,15e20 <__sflush_r+0x150>
   15e18:	00048513          	mv	a0,s1
   15e1c:	500000ef          	jal	ra,1631c <_free_r>
   15e20:	02042823          	sw	zero,48(s0)
   15e24:	f01ff06f          	j	15d24 <__sflush_r+0x54>
   15e28:	01c42583          	lw	a1,28(s0)
   15e2c:	00000613          	li	a2,0
   15e30:	00100693          	li	a3,1
   15e34:	00048513          	mv	a0,s1
   15e38:	000700e7          	jalr	a4
   15e3c:	fff00793          	li	a5,-1
   15e40:	00050613          	mv	a2,a0
   15e44:	f0f51ee3          	bne	a0,a5,15d60 <__sflush_r+0x90>
   15e48:	0004a783          	lw	a5,0(s1)
   15e4c:	f0078ae3          	beqz	a5,15d60 <__sflush_r+0x90>
   15e50:	01d00713          	li	a4,29
   15e54:	00e78663          	beq	a5,a4,15e60 <__sflush_r+0x190>
   15e58:	01600713          	li	a4,22
   15e5c:	06e79263          	bne	a5,a4,15ec0 <__sflush_r+0x1f0>
   15e60:	0124a023          	sw	s2,0(s1)
   15e64:	ec1ff06f          	j	15d24 <__sflush_r+0x54>
   15e68:	0406e793          	ori	a5,a3,64
   15e6c:	00f41623          	sh	a5,12(s0)
   15e70:	fff00513          	li	a0,-1
   15e74:	eb5ff06f          	j	15d28 <__sflush_r+0x58>
   15e78:	0105a983          	lw	s3,16(a1)
   15e7c:	ea0984e3          	beqz	s3,15d24 <__sflush_r+0x54>
   15e80:	0005a903          	lw	s2,0(a1)
   15e84:	00377713          	andi	a4,a4,3
   15e88:	0135a023          	sw	s3,0(a1)
   15e8c:	41390933          	sub	s2,s2,s3
   15e90:	00000793          	li	a5,0
   15e94:	00071463          	bnez	a4,15e9c <__sflush_r+0x1cc>
   15e98:	0145a783          	lw	a5,20(a1)
   15e9c:	00f42423          	sw	a5,8(s0)
   15ea0:	e92052e3          	blez	s2,15d24 <__sflush_r+0x54>
   15ea4:	02442783          	lw	a5,36(s0)
   15ea8:	01c42583          	lw	a1,28(s0)
   15eac:	00090693          	mv	a3,s2
   15eb0:	00098613          	mv	a2,s3
   15eb4:	00048513          	mv	a0,s1
   15eb8:	000780e7          	jalr	a5
   15ebc:	00a04863          	bgtz	a0,15ecc <__sflush_r+0x1fc>
   15ec0:	00c45783          	lhu	a5,12(s0)
   15ec4:	0407e793          	ori	a5,a5,64
   15ec8:	fa5ff06f          	j	15e6c <__sflush_r+0x19c>
   15ecc:	00a989b3          	add	s3,s3,a0
   15ed0:	40a90933          	sub	s2,s2,a0
   15ed4:	fcdff06f          	j	15ea0 <__sflush_r+0x1d0>

00015ed8 <_fflush_r>:
   15ed8:	fe010113          	addi	sp,sp,-32
   15edc:	00812c23          	sw	s0,24(sp)
   15ee0:	00112e23          	sw	ra,28(sp)
   15ee4:	00050413          	mv	s0,a0
   15ee8:	00050c63          	beqz	a0,15f00 <_fflush_r+0x28>
   15eec:	03852783          	lw	a5,56(a0)
   15ef0:	00079863          	bnez	a5,15f00 <_fflush_r+0x28>
   15ef4:	00b12623          	sw	a1,12(sp)
   15ef8:	17c000ef          	jal	ra,16074 <__sinit>
   15efc:	00c12583          	lw	a1,12(sp)
   15f00:	00c59783          	lh	a5,12(a1)
   15f04:	00078c63          	beqz	a5,15f1c <_fflush_r+0x44>
   15f08:	00040513          	mv	a0,s0
   15f0c:	01812403          	lw	s0,24(sp)
   15f10:	01c12083          	lw	ra,28(sp)
   15f14:	02010113          	addi	sp,sp,32
   15f18:	db9ff06f          	j	15cd0 <__sflush_r>
   15f1c:	01c12083          	lw	ra,28(sp)
   15f20:	01812403          	lw	s0,24(sp)
   15f24:	00000513          	li	a0,0
   15f28:	02010113          	addi	sp,sp,32
   15f2c:	00008067          	ret

00015f30 <fflush>:
   15f30:	00050593          	mv	a1,a0
   15f34:	00051a63          	bnez	a0,15f48 <fflush+0x18>
   15f38:	8201a503          	lw	a0,-2016(gp) # 25a90 <_global_impure_ptr>
   15f3c:	000165b7          	lui	a1,0x16
   15f40:	ed858593          	addi	a1,a1,-296 # 15ed8 <_fflush_r>
   15f44:	3350006f          	j	16a78 <_fwalk_reent>
   15f48:	8301a503          	lw	a0,-2000(gp) # 25aa0 <_impure_ptr>
   15f4c:	f8dff06f          	j	15ed8 <_fflush_r>

00015f50 <__fp_lock>:
   15f50:	00000513          	li	a0,0
   15f54:	00008067          	ret

00015f58 <std>:
   15f58:	ff010113          	addi	sp,sp,-16
   15f5c:	00812423          	sw	s0,8(sp)
   15f60:	00112623          	sw	ra,12(sp)
   15f64:	00050413          	mv	s0,a0
   15f68:	00b51623          	sh	a1,12(a0)
   15f6c:	00c51723          	sh	a2,14(a0)
   15f70:	00052023          	sw	zero,0(a0)
   15f74:	00052223          	sw	zero,4(a0)
   15f78:	00052423          	sw	zero,8(a0)
   15f7c:	06052223          	sw	zero,100(a0)
   15f80:	00052823          	sw	zero,16(a0)
   15f84:	00052a23          	sw	zero,20(a0)
   15f88:	00052c23          	sw	zero,24(a0)
   15f8c:	00800613          	li	a2,8
   15f90:	00000593          	li	a1,0
   15f94:	05c50513          	addi	a0,a0,92
   15f98:	da0fd0ef          	jal	ra,13538 <memset>
   15f9c:	0001b7b7          	lui	a5,0x1b
   15fa0:	be478793          	addi	a5,a5,-1052 # 1abe4 <__sread>
   15fa4:	02f42023          	sw	a5,32(s0)
   15fa8:	0001b7b7          	lui	a5,0x1b
   15fac:	c3c78793          	addi	a5,a5,-964 # 1ac3c <__swrite>
   15fb0:	02f42223          	sw	a5,36(s0)
   15fb4:	0001b7b7          	lui	a5,0x1b
   15fb8:	cc078793          	addi	a5,a5,-832 # 1acc0 <__sseek>
   15fbc:	02f42423          	sw	a5,40(s0)
   15fc0:	0001b7b7          	lui	a5,0x1b
   15fc4:	d1878793          	addi	a5,a5,-744 # 1ad18 <__sclose>
   15fc8:	00842e23          	sw	s0,28(s0)
   15fcc:	02f42623          	sw	a5,44(s0)
   15fd0:	00c12083          	lw	ra,12(sp)
   15fd4:	00812403          	lw	s0,8(sp)
   15fd8:	01010113          	addi	sp,sp,16
   15fdc:	00008067          	ret

00015fe0 <_cleanup_r>:
   15fe0:	0001e5b7          	lui	a1,0x1e
   15fe4:	e3458593          	addi	a1,a1,-460 # 1de34 <_fclose_r>
   15fe8:	2910006f          	j	16a78 <_fwalk_reent>

00015fec <__fp_unlock>:
   15fec:	00000513          	li	a0,0
   15ff0:	00008067          	ret

00015ff4 <__sfmoreglue>:
   15ff4:	ff010113          	addi	sp,sp,-16
   15ff8:	fff58613          	addi	a2,a1,-1
   15ffc:	00812423          	sw	s0,8(sp)
   16000:	00161413          	slli	s0,a2,0x1
   16004:	00c40433          	add	s0,s0,a2
   16008:	00241413          	slli	s0,s0,0x2
   1600c:	00c40433          	add	s0,s0,a2
   16010:	00341413          	slli	s0,s0,0x3
   16014:	01212023          	sw	s2,0(sp)
   16018:	00058913          	mv	s2,a1
   1601c:	07440593          	addi	a1,s0,116
   16020:	00912223          	sw	s1,4(sp)
   16024:	00112623          	sw	ra,12(sp)
   16028:	539020ef          	jal	ra,18d60 <_malloc_r>
   1602c:	00050493          	mv	s1,a0
   16030:	02050063          	beqz	a0,16050 <__sfmoreglue+0x5c>
   16034:	00052023          	sw	zero,0(a0)
   16038:	01252223          	sw	s2,4(a0)
   1603c:	00c50513          	addi	a0,a0,12
   16040:	00a4a423          	sw	a0,8(s1)
   16044:	06840613          	addi	a2,s0,104
   16048:	00000593          	li	a1,0
   1604c:	cecfd0ef          	jal	ra,13538 <memset>
   16050:	00c12083          	lw	ra,12(sp)
   16054:	00812403          	lw	s0,8(sp)
   16058:	00048513          	mv	a0,s1
   1605c:	00012903          	lw	s2,0(sp)
   16060:	00412483          	lw	s1,4(sp)
   16064:	01010113          	addi	sp,sp,16
   16068:	00008067          	ret

0001606c <_cleanup>:
   1606c:	8201a503          	lw	a0,-2016(gp) # 25a90 <_global_impure_ptr>
   16070:	f71ff06f          	j	15fe0 <_cleanup_r>

00016074 <__sinit>:
   16074:	03852783          	lw	a5,56(a0)
   16078:	06079e63          	bnez	a5,160f4 <__sinit+0x80>
   1607c:	ff010113          	addi	sp,sp,-16
   16080:	000167b7          	lui	a5,0x16
   16084:	00112623          	sw	ra,12(sp)
   16088:	00812423          	sw	s0,8(sp)
   1608c:	fe078793          	addi	a5,a5,-32 # 15fe0 <_cleanup_r>
   16090:	02f52e23          	sw	a5,60(a0)
   16094:	00300793          	li	a5,3
   16098:	2ef52223          	sw	a5,740(a0)
   1609c:	2ec50793          	addi	a5,a0,748
   160a0:	00050413          	mv	s0,a0
   160a4:	2ef52423          	sw	a5,744(a0)
   160a8:	2e052023          	sw	zero,736(a0)
   160ac:	00452503          	lw	a0,4(a0)
   160b0:	00000613          	li	a2,0
   160b4:	00400593          	li	a1,4
   160b8:	ea1ff0ef          	jal	ra,15f58 <std>
   160bc:	00842503          	lw	a0,8(s0)
   160c0:	00100613          	li	a2,1
   160c4:	00900593          	li	a1,9
   160c8:	e91ff0ef          	jal	ra,15f58 <std>
   160cc:	00c42503          	lw	a0,12(s0)
   160d0:	00200613          	li	a2,2
   160d4:	01200593          	li	a1,18
   160d8:	e81ff0ef          	jal	ra,15f58 <std>
   160dc:	00100793          	li	a5,1
   160e0:	02f42c23          	sw	a5,56(s0)
   160e4:	00c12083          	lw	ra,12(sp)
   160e8:	00812403          	lw	s0,8(sp)
   160ec:	01010113          	addi	sp,sp,16
   160f0:	00008067          	ret
   160f4:	00008067          	ret

000160f8 <__sfp>:
   160f8:	ff010113          	addi	sp,sp,-16
   160fc:	00912223          	sw	s1,4(sp)
   16100:	8201a483          	lw	s1,-2016(gp) # 25a90 <_global_impure_ptr>
   16104:	01212023          	sw	s2,0(sp)
   16108:	00112623          	sw	ra,12(sp)
   1610c:	0384a783          	lw	a5,56(s1)
   16110:	00812423          	sw	s0,8(sp)
   16114:	00050913          	mv	s2,a0
   16118:	00079663          	bnez	a5,16124 <__sfp+0x2c>
   1611c:	00048513          	mv	a0,s1
   16120:	f55ff0ef          	jal	ra,16074 <__sinit>
   16124:	2e048493          	addi	s1,s1,736
   16128:	0084a403          	lw	s0,8(s1)
   1612c:	0044a783          	lw	a5,4(s1)
   16130:	fff78793          	addi	a5,a5,-1
   16134:	0007da63          	bgez	a5,16148 <__sfp+0x50>
   16138:	0004a783          	lw	a5,0(s1)
   1613c:	08078063          	beqz	a5,161bc <__sfp+0xc4>
   16140:	0004a483          	lw	s1,0(s1)
   16144:	fe5ff06f          	j	16128 <__sfp+0x30>
   16148:	00c41703          	lh	a4,12(s0)
   1614c:	06071463          	bnez	a4,161b4 <__sfp+0xbc>
   16150:	ffff07b7          	lui	a5,0xffff0
   16154:	00178793          	addi	a5,a5,1 # ffff0001 <__global_pointer$+0xfffc9d91>
   16158:	06042223          	sw	zero,100(s0)
   1615c:	00042023          	sw	zero,0(s0)
   16160:	00042223          	sw	zero,4(s0)
   16164:	00042423          	sw	zero,8(s0)
   16168:	00f42623          	sw	a5,12(s0)
   1616c:	00042823          	sw	zero,16(s0)
   16170:	00042a23          	sw	zero,20(s0)
   16174:	00042c23          	sw	zero,24(s0)
   16178:	00800613          	li	a2,8
   1617c:	00000593          	li	a1,0
   16180:	05c40513          	addi	a0,s0,92
   16184:	bb4fd0ef          	jal	ra,13538 <memset>
   16188:	02042823          	sw	zero,48(s0)
   1618c:	02042a23          	sw	zero,52(s0)
   16190:	04042223          	sw	zero,68(s0)
   16194:	04042423          	sw	zero,72(s0)
   16198:	00040513          	mv	a0,s0
   1619c:	00c12083          	lw	ra,12(sp)
   161a0:	00812403          	lw	s0,8(sp)
   161a4:	00412483          	lw	s1,4(sp)
   161a8:	00012903          	lw	s2,0(sp)
   161ac:	01010113          	addi	sp,sp,16
   161b0:	00008067          	ret
   161b4:	06840413          	addi	s0,s0,104
   161b8:	f79ff06f          	j	16130 <__sfp+0x38>
   161bc:	00400593          	li	a1,4
   161c0:	00090513          	mv	a0,s2
   161c4:	e31ff0ef          	jal	ra,15ff4 <__sfmoreglue>
   161c8:	00a4a023          	sw	a0,0(s1)
   161cc:	f6051ae3          	bnez	a0,16140 <__sfp+0x48>
   161d0:	00c00793          	li	a5,12
   161d4:	00f92023          	sw	a5,0(s2)
   161d8:	00000413          	li	s0,0
   161dc:	fbdff06f          	j	16198 <__sfp+0xa0>

000161e0 <__sfp_lock_acquire>:
   161e0:	00008067          	ret

000161e4 <__sfp_lock_release>:
   161e4:	00008067          	ret

000161e8 <__sinit_lock_acquire>:
   161e8:	00008067          	ret

000161ec <__sinit_lock_release>:
   161ec:	00008067          	ret

000161f0 <__fp_lock_all>:
   161f0:	8301a503          	lw	a0,-2000(gp) # 25aa0 <_impure_ptr>
   161f4:	000165b7          	lui	a1,0x16
   161f8:	f5058593          	addi	a1,a1,-176 # 15f50 <__fp_lock>
   161fc:	7dc0006f          	j	169d8 <_fwalk>

00016200 <__fp_unlock_all>:
   16200:	8301a503          	lw	a0,-2000(gp) # 25aa0 <_impure_ptr>
   16204:	000165b7          	lui	a1,0x16
   16208:	fec58593          	addi	a1,a1,-20 # 15fec <__fp_unlock>
   1620c:	7cc0006f          	j	169d8 <_fwalk>

00016210 <_malloc_trim_r>:
   16210:	fe010113          	addi	sp,sp,-32
   16214:	01212823          	sw	s2,16(sp)
   16218:	00025937          	lui	s2,0x25
   1621c:	00812c23          	sw	s0,24(sp)
   16220:	00912a23          	sw	s1,20(sp)
   16224:	01312623          	sw	s3,12(sp)
   16228:	00058413          	mv	s0,a1
   1622c:	00112e23          	sw	ra,28(sp)
   16230:	00050993          	mv	s3,a0
   16234:	66490913          	addi	s2,s2,1636 # 25664 <__malloc_av_>
   16238:	358030ef          	jal	ra,19590 <__malloc_lock>
   1623c:	00892783          	lw	a5,8(s2)
   16240:	00001737          	lui	a4,0x1
   16244:	0047a483          	lw	s1,4(a5)
   16248:	fef70793          	addi	a5,a4,-17 # fef <main-0xf085>
   1624c:	40878433          	sub	s0,a5,s0
   16250:	ffc4f493          	andi	s1,s1,-4
   16254:	00940433          	add	s0,s0,s1
   16258:	00c45413          	srli	s0,s0,0xc
   1625c:	fff40413          	addi	s0,s0,-1
   16260:	00c41413          	slli	s0,s0,0xc
   16264:	02e45663          	ble	a4,s0,16290 <_malloc_trim_r+0x80>
   16268:	00098513          	mv	a0,s3
   1626c:	328030ef          	jal	ra,19594 <__malloc_unlock>
   16270:	00000513          	li	a0,0
   16274:	01c12083          	lw	ra,28(sp)
   16278:	01812403          	lw	s0,24(sp)
   1627c:	01412483          	lw	s1,20(sp)
   16280:	01012903          	lw	s2,16(sp)
   16284:	00c12983          	lw	s3,12(sp)
   16288:	02010113          	addi	sp,sp,32
   1628c:	00008067          	ret
   16290:	00000593          	li	a1,0
   16294:	00098513          	mv	a0,s3
   16298:	780040ef          	jal	ra,1aa18 <_sbrk_r>
   1629c:	00892783          	lw	a5,8(s2)
   162a0:	009787b3          	add	a5,a5,s1
   162a4:	fcf512e3          	bne	a0,a5,16268 <_malloc_trim_r+0x58>
   162a8:	408005b3          	neg	a1,s0
   162ac:	00098513          	mv	a0,s3
   162b0:	768040ef          	jal	ra,1aa18 <_sbrk_r>
   162b4:	fff00793          	li	a5,-1
   162b8:	02f51c63          	bne	a0,a5,162f0 <_malloc_trim_r+0xe0>
   162bc:	00000593          	li	a1,0
   162c0:	00098513          	mv	a0,s3
   162c4:	754040ef          	jal	ra,1aa18 <_sbrk_r>
   162c8:	00892703          	lw	a4,8(s2)
   162cc:	00f00693          	li	a3,15
   162d0:	40e507b3          	sub	a5,a0,a4
   162d4:	f8f6dae3          	ble	a5,a3,16268 <_malloc_trim_r+0x58>
   162d8:	8341a683          	lw	a3,-1996(gp) # 25aa4 <__malloc_sbrk_base>
   162dc:	0017e793          	ori	a5,a5,1
   162e0:	00f72223          	sw	a5,4(a4)
   162e4:	40d50533          	sub	a0,a0,a3
   162e8:	88a1a223          	sw	a0,-1916(gp) # 25af4 <__malloc_current_mallinfo>
   162ec:	f7dff06f          	j	16268 <_malloc_trim_r+0x58>
   162f0:	00892783          	lw	a5,8(s2)
   162f4:	408484b3          	sub	s1,s1,s0
   162f8:	0014e493          	ori	s1,s1,1
   162fc:	0097a223          	sw	s1,4(a5)
   16300:	8841a783          	lw	a5,-1916(gp) # 25af4 <__malloc_current_mallinfo>
   16304:	00098513          	mv	a0,s3
   16308:	40878433          	sub	s0,a5,s0
   1630c:	8881a223          	sw	s0,-1916(gp) # 25af4 <__malloc_current_mallinfo>
   16310:	284030ef          	jal	ra,19594 <__malloc_unlock>
   16314:	00100513          	li	a0,1
   16318:	f5dff06f          	j	16274 <_malloc_trim_r+0x64>

0001631c <_free_r>:
   1631c:	24058c63          	beqz	a1,16574 <_free_r+0x258>
   16320:	ff010113          	addi	sp,sp,-16
   16324:	00812423          	sw	s0,8(sp)
   16328:	00912223          	sw	s1,4(sp)
   1632c:	00050413          	mv	s0,a0
   16330:	00058493          	mv	s1,a1
   16334:	00112623          	sw	ra,12(sp)
   16338:	258030ef          	jal	ra,19590 <__malloc_lock>
   1633c:	ffc4a503          	lw	a0,-4(s1)
   16340:	00025637          	lui	a2,0x25
   16344:	ff848693          	addi	a3,s1,-8
   16348:	ffe57793          	andi	a5,a0,-2
   1634c:	66460813          	addi	a6,a2,1636 # 25664 <__malloc_av_>
   16350:	00f685b3          	add	a1,a3,a5
   16354:	0045a703          	lw	a4,4(a1)
   16358:	00882803          	lw	a6,8(a6)
   1635c:	66460613          	addi	a2,a2,1636
   16360:	ffc77713          	andi	a4,a4,-4
   16364:	00157513          	andi	a0,a0,1
   16368:	06b81063          	bne	a6,a1,163c8 <_free_r+0xac>
   1636c:	00e787b3          	add	a5,a5,a4
   16370:	02051063          	bnez	a0,16390 <_free_r+0x74>
   16374:	ff84a703          	lw	a4,-8(s1)
   16378:	40e686b3          	sub	a3,a3,a4
   1637c:	0086a583          	lw	a1,8(a3)
   16380:	00e787b3          	add	a5,a5,a4
   16384:	00c6a703          	lw	a4,12(a3)
   16388:	00e5a623          	sw	a4,12(a1)
   1638c:	00b72423          	sw	a1,8(a4)
   16390:	0017e713          	ori	a4,a5,1
   16394:	00e6a223          	sw	a4,4(a3)
   16398:	8381a703          	lw	a4,-1992(gp) # 25aa8 <__malloc_trim_threshold>
   1639c:	00d62423          	sw	a3,8(a2)
   163a0:	00e7e863          	bltu	a5,a4,163b0 <_free_r+0x94>
   163a4:	8601a583          	lw	a1,-1952(gp) # 25ad0 <__malloc_top_pad>
   163a8:	00040513          	mv	a0,s0
   163ac:	e65ff0ef          	jal	ra,16210 <_malloc_trim_r>
   163b0:	00040513          	mv	a0,s0
   163b4:	00812403          	lw	s0,8(sp)
   163b8:	00c12083          	lw	ra,12(sp)
   163bc:	00412483          	lw	s1,4(sp)
   163c0:	01010113          	addi	sp,sp,16
   163c4:	1d00306f          	j	19594 <__malloc_unlock>
   163c8:	00e5a223          	sw	a4,4(a1)
   163cc:	00000813          	li	a6,0
   163d0:	02051663          	bnez	a0,163fc <_free_r+0xe0>
   163d4:	ff84a503          	lw	a0,-8(s1)
   163d8:	000258b7          	lui	a7,0x25
   163dc:	66c88893          	addi	a7,a7,1644 # 2566c <__malloc_av_+0x8>
   163e0:	40a686b3          	sub	a3,a3,a0
   163e4:	00a787b3          	add	a5,a5,a0
   163e8:	0086a503          	lw	a0,8(a3)
   163ec:	0b150663          	beq	a0,a7,16498 <_free_r+0x17c>
   163f0:	00c6a883          	lw	a7,12(a3)
   163f4:	01152623          	sw	a7,12(a0)
   163f8:	00a8a423          	sw	a0,8(a7)
   163fc:	00e58533          	add	a0,a1,a4
   16400:	00452503          	lw	a0,4(a0)
   16404:	00157513          	andi	a0,a0,1
   16408:	02051863          	bnez	a0,16438 <_free_r+0x11c>
   1640c:	00e787b3          	add	a5,a5,a4
   16410:	0085a703          	lw	a4,8(a1)
   16414:	08081663          	bnez	a6,164a0 <_free_r+0x184>
   16418:	00025537          	lui	a0,0x25
   1641c:	66c50513          	addi	a0,a0,1644 # 2566c <__malloc_av_+0x8>
   16420:	08a71063          	bne	a4,a0,164a0 <_free_r+0x184>
   16424:	00d62a23          	sw	a3,20(a2)
   16428:	00d62823          	sw	a3,16(a2)
   1642c:	00e6a623          	sw	a4,12(a3)
   16430:	00e6a423          	sw	a4,8(a3)
   16434:	00100813          	li	a6,1
   16438:	0017e713          	ori	a4,a5,1
   1643c:	00e6a223          	sw	a4,4(a3)
   16440:	00f68733          	add	a4,a3,a5
   16444:	00f72023          	sw	a5,0(a4)
   16448:	f60814e3          	bnez	a6,163b0 <_free_r+0x94>
   1644c:	1ff00713          	li	a4,511
   16450:	06f76063          	bltu	a4,a5,164b0 <_free_r+0x194>
   16454:	0037d793          	srli	a5,a5,0x3
   16458:	4027d593          	srai	a1,a5,0x2
   1645c:	00100713          	li	a4,1
   16460:	00b71733          	sll	a4,a4,a1
   16464:	00462583          	lw	a1,4(a2)
   16468:	00178793          	addi	a5,a5,1
   1646c:	00379793          	slli	a5,a5,0x3
   16470:	00f607b3          	add	a5,a2,a5
   16474:	00b76733          	or	a4,a4,a1
   16478:	00e62223          	sw	a4,4(a2)
   1647c:	0007a703          	lw	a4,0(a5)
   16480:	ff878613          	addi	a2,a5,-8
   16484:	00c6a623          	sw	a2,12(a3)
   16488:	00e6a423          	sw	a4,8(a3)
   1648c:	00d7a023          	sw	a3,0(a5)
   16490:	00d72623          	sw	a3,12(a4)
   16494:	f1dff06f          	j	163b0 <_free_r+0x94>
   16498:	00100813          	li	a6,1
   1649c:	f61ff06f          	j	163fc <_free_r+0xe0>
   164a0:	00c5a583          	lw	a1,12(a1)
   164a4:	00b72623          	sw	a1,12(a4)
   164a8:	00e5a423          	sw	a4,8(a1)
   164ac:	f8dff06f          	j	16438 <_free_r+0x11c>
   164b0:	0097d593          	srli	a1,a5,0x9
   164b4:	00400713          	li	a4,4
   164b8:	04b76863          	bltu	a4,a1,16508 <_free_r+0x1ec>
   164bc:	0067d713          	srli	a4,a5,0x6
   164c0:	03870713          	addi	a4,a4,56
   164c4:	00170593          	addi	a1,a4,1
   164c8:	00359593          	slli	a1,a1,0x3
   164cc:	00b605b3          	add	a1,a2,a1
   164d0:	ff858513          	addi	a0,a1,-8
   164d4:	0005a583          	lw	a1,0(a1)
   164d8:	08b51463          	bne	a0,a1,16560 <_free_r+0x244>
   164dc:	00100793          	li	a5,1
   164e0:	40275713          	srai	a4,a4,0x2
   164e4:	00e79733          	sll	a4,a5,a4
   164e8:	00462783          	lw	a5,4(a2)
   164ec:	00f76733          	or	a4,a4,a5
   164f0:	00e62223          	sw	a4,4(a2)
   164f4:	00a6a623          	sw	a0,12(a3)
   164f8:	00b6a423          	sw	a1,8(a3)
   164fc:	00d52423          	sw	a3,8(a0)
   16500:	00d5a623          	sw	a3,12(a1)
   16504:	eadff06f          	j	163b0 <_free_r+0x94>
   16508:	01400713          	li	a4,20
   1650c:	00b76663          	bltu	a4,a1,16518 <_free_r+0x1fc>
   16510:	05b58713          	addi	a4,a1,91
   16514:	fb1ff06f          	j	164c4 <_free_r+0x1a8>
   16518:	05400713          	li	a4,84
   1651c:	00b76863          	bltu	a4,a1,1652c <_free_r+0x210>
   16520:	00c7d713          	srli	a4,a5,0xc
   16524:	06e70713          	addi	a4,a4,110
   16528:	f9dff06f          	j	164c4 <_free_r+0x1a8>
   1652c:	15400713          	li	a4,340
   16530:	00b76863          	bltu	a4,a1,16540 <_free_r+0x224>
   16534:	00f7d713          	srli	a4,a5,0xf
   16538:	07770713          	addi	a4,a4,119
   1653c:	f89ff06f          	j	164c4 <_free_r+0x1a8>
   16540:	55400513          	li	a0,1364
   16544:	07e00713          	li	a4,126
   16548:	f6b56ee3          	bltu	a0,a1,164c4 <_free_r+0x1a8>
   1654c:	0127d713          	srli	a4,a5,0x12
   16550:	07c70713          	addi	a4,a4,124
   16554:	f71ff06f          	j	164c4 <_free_r+0x1a8>
   16558:	0085a583          	lw	a1,8(a1)
   1655c:	00b50863          	beq	a0,a1,1656c <_free_r+0x250>
   16560:	0045a703          	lw	a4,4(a1)
   16564:	ffc77713          	andi	a4,a4,-4
   16568:	fee7e8e3          	bltu	a5,a4,16558 <_free_r+0x23c>
   1656c:	00c5a503          	lw	a0,12(a1)
   16570:	f85ff06f          	j	164f4 <_free_r+0x1d8>
   16574:	00008067          	ret

00016578 <__sfvwrite_r>:
   16578:	00862783          	lw	a5,8(a2)
   1657c:	00079863          	bnez	a5,1658c <__sfvwrite_r+0x14>
   16580:	00000793          	li	a5,0
   16584:	00078513          	mv	a0,a5
   16588:	00008067          	ret
   1658c:	00c5d783          	lhu	a5,12(a1)
   16590:	fc010113          	addi	sp,sp,-64
   16594:	02812c23          	sw	s0,56(sp)
   16598:	03212823          	sw	s2,48(sp)
   1659c:	03612023          	sw	s6,32(sp)
   165a0:	02112e23          	sw	ra,60(sp)
   165a4:	02912a23          	sw	s1,52(sp)
   165a8:	03312623          	sw	s3,44(sp)
   165ac:	03412423          	sw	s4,40(sp)
   165b0:	03512223          	sw	s5,36(sp)
   165b4:	01712e23          	sw	s7,28(sp)
   165b8:	01812c23          	sw	s8,24(sp)
   165bc:	01912a23          	sw	s9,20(sp)
   165c0:	01a12823          	sw	s10,16(sp)
   165c4:	01b12623          	sw	s11,12(sp)
   165c8:	0087f793          	andi	a5,a5,8
   165cc:	00060b13          	mv	s6,a2
   165d0:	00058413          	mv	s0,a1
   165d4:	00050913          	mv	s2,a0
   165d8:	0e078263          	beqz	a5,166bc <__sfvwrite_r+0x144>
   165dc:	0105a783          	lw	a5,16(a1)
   165e0:	0c078e63          	beqz	a5,166bc <__sfvwrite_r+0x144>
   165e4:	00c45783          	lhu	a5,12(s0)
   165e8:	000b2a03          	lw	s4,0(s6)
   165ec:	0027f713          	andi	a4,a5,2
   165f0:	16071a63          	bnez	a4,16764 <__sfvwrite_r+0x1ec>
   165f4:	0017f793          	andi	a5,a5,1
   165f8:	00000b93          	li	s7,0
   165fc:	20078a63          	beqz	a5,16810 <__sfvwrite_r+0x298>
   16600:	00000513          	li	a0,0
   16604:	00000a93          	li	s5,0
   16608:	00000993          	li	s3,0
   1660c:	36098463          	beqz	s3,16974 <__sfvwrite_r+0x3fc>
   16610:	02051263          	bnez	a0,16634 <__sfvwrite_r+0xbc>
   16614:	00098613          	mv	a2,s3
   16618:	00a00593          	li	a1,10
   1661c:	000a8513          	mv	a0,s5
   16620:	619020ef          	jal	ra,19438 <memchr>
   16624:	00198b93          	addi	s7,s3,1
   16628:	00050663          	beqz	a0,16634 <__sfvwrite_r+0xbc>
   1662c:	00150513          	addi	a0,a0,1
   16630:	41550bb3          	sub	s7,a0,s5
   16634:	000b8c13          	mv	s8,s7
   16638:	0179f463          	bleu	s7,s3,16640 <__sfvwrite_r+0xc8>
   1663c:	00098c13          	mv	s8,s3
   16640:	00042503          	lw	a0,0(s0)
   16644:	01042783          	lw	a5,16(s0)
   16648:	01442683          	lw	a3,20(s0)
   1664c:	32a7fe63          	bleu	a0,a5,16988 <__sfvwrite_r+0x410>
   16650:	00842483          	lw	s1,8(s0)
   16654:	009684b3          	add	s1,a3,s1
   16658:	3384d863          	ble	s8,s1,16988 <__sfvwrite_r+0x410>
   1665c:	000a8593          	mv	a1,s5
   16660:	00048613          	mv	a2,s1
   16664:	6d1020ef          	jal	ra,19534 <memmove>
   16668:	00042783          	lw	a5,0(s0)
   1666c:	00040593          	mv	a1,s0
   16670:	00090513          	mv	a0,s2
   16674:	009787b3          	add	a5,a5,s1
   16678:	00f42023          	sw	a5,0(s0)
   1667c:	85dff0ef          	jal	ra,15ed8 <_fflush_r>
   16680:	16051e63          	bnez	a0,167fc <__sfvwrite_r+0x284>
   16684:	409b8bb3          	sub	s7,s7,s1
   16688:	00100513          	li	a0,1
   1668c:	000b9a63          	bnez	s7,166a0 <__sfvwrite_r+0x128>
   16690:	00040593          	mv	a1,s0
   16694:	00090513          	mv	a0,s2
   16698:	841ff0ef          	jal	ra,15ed8 <_fflush_r>
   1669c:	16051063          	bnez	a0,167fc <__sfvwrite_r+0x284>
   166a0:	008b2783          	lw	a5,8(s6)
   166a4:	009a8ab3          	add	s5,s5,s1
   166a8:	409989b3          	sub	s3,s3,s1
   166ac:	409784b3          	sub	s1,a5,s1
   166b0:	009b2423          	sw	s1,8(s6)
   166b4:	f4049ce3          	bnez	s1,1660c <__sfvwrite_r+0x94>
   166b8:	0680006f          	j	16720 <__sfvwrite_r+0x1a8>
   166bc:	00040593          	mv	a1,s0
   166c0:	00090513          	mv	a0,s2
   166c4:	b50ff0ef          	jal	ra,15a14 <__swsetup_r>
   166c8:	fff00793          	li	a5,-1
   166cc:	f0050ce3          	beqz	a0,165e4 <__sfvwrite_r+0x6c>
   166d0:	0540006f          	j	16724 <__sfvwrite_r+0x1ac>
   166d4:	000a2983          	lw	s3,0(s4)
   166d8:	004a2483          	lw	s1,4(s4)
   166dc:	008a0a13          	addi	s4,s4,8
   166e0:	fe048ae3          	beqz	s1,166d4 <__sfvwrite_r+0x15c>
   166e4:	00048693          	mv	a3,s1
   166e8:	009af463          	bleu	s1,s5,166f0 <__sfvwrite_r+0x178>
   166ec:	000a8693          	mv	a3,s5
   166f0:	02442783          	lw	a5,36(s0)
   166f4:	01c42583          	lw	a1,28(s0)
   166f8:	00098613          	mv	a2,s3
   166fc:	00090513          	mv	a0,s2
   16700:	000780e7          	jalr	a5
   16704:	0ea05c63          	blez	a0,167fc <__sfvwrite_r+0x284>
   16708:	008b2783          	lw	a5,8(s6)
   1670c:	00a989b3          	add	s3,s3,a0
   16710:	40a484b3          	sub	s1,s1,a0
   16714:	40a78533          	sub	a0,a5,a0
   16718:	00ab2423          	sw	a0,8(s6)
   1671c:	fc0512e3          	bnez	a0,166e0 <__sfvwrite_r+0x168>
   16720:	00000793          	li	a5,0
   16724:	03c12083          	lw	ra,60(sp)
   16728:	03812403          	lw	s0,56(sp)
   1672c:	03412483          	lw	s1,52(sp)
   16730:	03012903          	lw	s2,48(sp)
   16734:	02c12983          	lw	s3,44(sp)
   16738:	02812a03          	lw	s4,40(sp)
   1673c:	02412a83          	lw	s5,36(sp)
   16740:	02012b03          	lw	s6,32(sp)
   16744:	01c12b83          	lw	s7,28(sp)
   16748:	01812c03          	lw	s8,24(sp)
   1674c:	01412c83          	lw	s9,20(sp)
   16750:	01012d03          	lw	s10,16(sp)
   16754:	00c12d83          	lw	s11,12(sp)
   16758:	00078513          	mv	a0,a5
   1675c:	04010113          	addi	sp,sp,64
   16760:	00008067          	ret
   16764:	80000ab7          	lui	s5,0x80000
   16768:	00000993          	li	s3,0
   1676c:	00000493          	li	s1,0
   16770:	c00aca93          	xori	s5,s5,-1024
   16774:	f6dff06f          	j	166e0 <__sfvwrite_r+0x168>
   16778:	000a2b83          	lw	s7,0(s4)
   1677c:	004a2483          	lw	s1,4(s4)
   16780:	008a0a13          	addi	s4,s4,8
   16784:	fe048ae3          	beqz	s1,16778 <__sfvwrite_r+0x200>
   16788:	00c45783          	lhu	a5,12(s0)
   1678c:	00842d83          	lw	s11,8(s0)
   16790:	00042503          	lw	a0,0(s0)
   16794:	2007f713          	andi	a4,a5,512
   16798:	14070263          	beqz	a4,168dc <__sfvwrite_r+0x364>
   1679c:	0db4e063          	bltu	s1,s11,1685c <__sfvwrite_r+0x2e4>
   167a0:	4807f713          	andi	a4,a5,1152
   167a4:	0a070c63          	beqz	a4,1685c <__sfvwrite_r+0x2e4>
   167a8:	01442703          	lw	a4,20(s0)
   167ac:	01042583          	lw	a1,16(s0)
   167b0:	00171a93          	slli	s5,a4,0x1
   167b4:	00ea8733          	add	a4,s5,a4
   167b8:	01f75a93          	srli	s5,a4,0x1f
   167bc:	40b50d33          	sub	s10,a0,a1
   167c0:	00ea8ab3          	add	s5,s5,a4
   167c4:	001d0713          	addi	a4,s10,1
   167c8:	401ada93          	srai	s5,s5,0x1
   167cc:	00970733          	add	a4,a4,s1
   167d0:	00eaf463          	bleu	a4,s5,167d8 <__sfvwrite_r+0x260>
   167d4:	00070a93          	mv	s5,a4
   167d8:	4007f793          	andi	a5,a5,1024
   167dc:	0c078863          	beqz	a5,168ac <__sfvwrite_r+0x334>
   167e0:	000a8593          	mv	a1,s5
   167e4:	00090513          	mv	a0,s2
   167e8:	578020ef          	jal	ra,18d60 <_malloc_r>
   167ec:	00050993          	mv	s3,a0
   167f0:	02051a63          	bnez	a0,16824 <__sfvwrite_r+0x2ac>
   167f4:	00c00793          	li	a5,12
   167f8:	00f92023          	sw	a5,0(s2)
   167fc:	00c45783          	lhu	a5,12(s0)
   16800:	0407e793          	ori	a5,a5,64
   16804:	00f41623          	sh	a5,12(s0)
   16808:	fff00793          	li	a5,-1
   1680c:	f19ff06f          	j	16724 <__sfvwrite_r+0x1ac>
   16810:	80000c37          	lui	s8,0x80000
   16814:	ffec4c93          	xori	s9,s8,-2
   16818:	00000493          	li	s1,0
   1681c:	fffc4c13          	not	s8,s8
   16820:	f65ff06f          	j	16784 <__sfvwrite_r+0x20c>
   16824:	01042583          	lw	a1,16(s0)
   16828:	000d0613          	mv	a2,s10
   1682c:	431020ef          	jal	ra,1945c <memcpy>
   16830:	00c45783          	lhu	a5,12(s0)
   16834:	b7f7f793          	andi	a5,a5,-1153
   16838:	0807e793          	ori	a5,a5,128
   1683c:	00f41623          	sh	a5,12(s0)
   16840:	01342823          	sw	s3,16(s0)
   16844:	01542a23          	sw	s5,20(s0)
   16848:	01a989b3          	add	s3,s3,s10
   1684c:	41aa8ab3          	sub	s5,s5,s10
   16850:	01342023          	sw	s3,0(s0)
   16854:	00048d93          	mv	s11,s1
   16858:	01542423          	sw	s5,8(s0)
   1685c:	00048993          	mv	s3,s1
   16860:	01b4f463          	bleu	s11,s1,16868 <__sfvwrite_r+0x2f0>
   16864:	00048d93          	mv	s11,s1
   16868:	00042503          	lw	a0,0(s0)
   1686c:	000d8613          	mv	a2,s11
   16870:	000b8593          	mv	a1,s7
   16874:	4c1020ef          	jal	ra,19534 <memmove>
   16878:	00842783          	lw	a5,8(s0)
   1687c:	41b787b3          	sub	a5,a5,s11
   16880:	00f42423          	sw	a5,8(s0)
   16884:	00042783          	lw	a5,0(s0)
   16888:	01b78db3          	add	s11,a5,s11
   1688c:	01b42023          	sw	s11,0(s0)
   16890:	008b2783          	lw	a5,8(s6)
   16894:	013b8bb3          	add	s7,s7,s3
   16898:	413484b3          	sub	s1,s1,s3
   1689c:	413789b3          	sub	s3,a5,s3
   168a0:	013b2423          	sw	s3,8(s6)
   168a4:	ee0990e3          	bnez	s3,16784 <__sfvwrite_r+0x20c>
   168a8:	e79ff06f          	j	16720 <__sfvwrite_r+0x1a8>
   168ac:	000a8613          	mv	a2,s5
   168b0:	00090513          	mv	a0,s2
   168b4:	40d030ef          	jal	ra,1a4c0 <_realloc_r>
   168b8:	00050993          	mv	s3,a0
   168bc:	f80512e3          	bnez	a0,16840 <__sfvwrite_r+0x2c8>
   168c0:	01042583          	lw	a1,16(s0)
   168c4:	00090513          	mv	a0,s2
   168c8:	a55ff0ef          	jal	ra,1631c <_free_r>
   168cc:	00c45783          	lhu	a5,12(s0)
   168d0:	f7f7f793          	andi	a5,a5,-129
   168d4:	00f41623          	sh	a5,12(s0)
   168d8:	f1dff06f          	j	167f4 <__sfvwrite_r+0x27c>
   168dc:	01042783          	lw	a5,16(s0)
   168e0:	00a7e663          	bltu	a5,a0,168ec <__sfvwrite_r+0x374>
   168e4:	01442983          	lw	s3,20(s0)
   168e8:	0534f663          	bleu	s3,s1,16934 <__sfvwrite_r+0x3bc>
   168ec:	000d8993          	mv	s3,s11
   168f0:	01b4f463          	bleu	s11,s1,168f8 <__sfvwrite_r+0x380>
   168f4:	00048993          	mv	s3,s1
   168f8:	00098613          	mv	a2,s3
   168fc:	000b8593          	mv	a1,s7
   16900:	435020ef          	jal	ra,19534 <memmove>
   16904:	00842783          	lw	a5,8(s0)
   16908:	00042703          	lw	a4,0(s0)
   1690c:	413787b3          	sub	a5,a5,s3
   16910:	01370733          	add	a4,a4,s3
   16914:	00f42423          	sw	a5,8(s0)
   16918:	00e42023          	sw	a4,0(s0)
   1691c:	f6079ae3          	bnez	a5,16890 <__sfvwrite_r+0x318>
   16920:	00040593          	mv	a1,s0
   16924:	00090513          	mv	a0,s2
   16928:	db0ff0ef          	jal	ra,15ed8 <_fflush_r>
   1692c:	f60502e3          	beqz	a0,16890 <__sfvwrite_r+0x318>
   16930:	ecdff06f          	j	167fc <__sfvwrite_r+0x284>
   16934:	00048513          	mv	a0,s1
   16938:	009cf463          	bleu	s1,s9,16940 <__sfvwrite_r+0x3c8>
   1693c:	000c0513          	mv	a0,s8
   16940:	00098593          	mv	a1,s3
   16944:	969fc0ef          	jal	ra,132ac <__divsi3>
   16948:	00098593          	mv	a1,s3
   1694c:	93dfc0ef          	jal	ra,13288 <__mulsi3>
   16950:	02442783          	lw	a5,36(s0)
   16954:	01c42583          	lw	a1,28(s0)
   16958:	00050693          	mv	a3,a0
   1695c:	000b8613          	mv	a2,s7
   16960:	00090513          	mv	a0,s2
   16964:	000780e7          	jalr	a5
   16968:	00050993          	mv	s3,a0
   1696c:	f2a042e3          	bgtz	a0,16890 <__sfvwrite_r+0x318>
   16970:	e8dff06f          	j	167fc <__sfvwrite_r+0x284>
   16974:	000a2a83          	lw	s5,0(s4)
   16978:	004a2983          	lw	s3,4(s4)
   1697c:	00000513          	li	a0,0
   16980:	008a0a13          	addi	s4,s4,8
   16984:	c89ff06f          	j	1660c <__sfvwrite_r+0x94>
   16988:	02dc4263          	blt	s8,a3,169ac <__sfvwrite_r+0x434>
   1698c:	02442783          	lw	a5,36(s0)
   16990:	01c42583          	lw	a1,28(s0)
   16994:	000a8613          	mv	a2,s5
   16998:	00090513          	mv	a0,s2
   1699c:	000780e7          	jalr	a5
   169a0:	00050493          	mv	s1,a0
   169a4:	cea040e3          	bgtz	a0,16684 <__sfvwrite_r+0x10c>
   169a8:	e55ff06f          	j	167fc <__sfvwrite_r+0x284>
   169ac:	000c0613          	mv	a2,s8
   169b0:	000a8593          	mv	a1,s5
   169b4:	381020ef          	jal	ra,19534 <memmove>
   169b8:	00842783          	lw	a5,8(s0)
   169bc:	000c0493          	mv	s1,s8
   169c0:	418787b3          	sub	a5,a5,s8
   169c4:	00f42423          	sw	a5,8(s0)
   169c8:	00042783          	lw	a5,0(s0)
   169cc:	018787b3          	add	a5,a5,s8
   169d0:	00f42023          	sw	a5,0(s0)
   169d4:	cb1ff06f          	j	16684 <__sfvwrite_r+0x10c>

000169d8 <_fwalk>:
   169d8:	fd010113          	addi	sp,sp,-48
   169dc:	02812423          	sw	s0,40(sp)
   169e0:	03212023          	sw	s2,32(sp)
   169e4:	01412c23          	sw	s4,24(sp)
   169e8:	01512a23          	sw	s5,20(sp)
   169ec:	02112623          	sw	ra,44(sp)
   169f0:	02912223          	sw	s1,36(sp)
   169f4:	01312e23          	sw	s3,28(sp)
   169f8:	2e050413          	addi	s0,a0,736
   169fc:	00000913          	li	s2,0
   16a00:	00100a13          	li	s4,1
   16a04:	fff00a93          	li	s5,-1
   16a08:	02041663          	bnez	s0,16a34 <_fwalk+0x5c>
   16a0c:	02c12083          	lw	ra,44(sp)
   16a10:	02812403          	lw	s0,40(sp)
   16a14:	00090513          	mv	a0,s2
   16a18:	02412483          	lw	s1,36(sp)
   16a1c:	02012903          	lw	s2,32(sp)
   16a20:	01c12983          	lw	s3,28(sp)
   16a24:	01812a03          	lw	s4,24(sp)
   16a28:	01412a83          	lw	s5,20(sp)
   16a2c:	03010113          	addi	sp,sp,48
   16a30:	00008067          	ret
   16a34:	00842483          	lw	s1,8(s0)
   16a38:	00442983          	lw	s3,4(s0)
   16a3c:	fff98993          	addi	s3,s3,-1
   16a40:	0009d663          	bgez	s3,16a4c <_fwalk+0x74>
   16a44:	00042403          	lw	s0,0(s0)
   16a48:	fc1ff06f          	j	16a08 <_fwalk+0x30>
   16a4c:	00c4d783          	lhu	a5,12(s1)
   16a50:	02fa7063          	bleu	a5,s4,16a70 <_fwalk+0x98>
   16a54:	00e49783          	lh	a5,14(s1)
   16a58:	01578c63          	beq	a5,s5,16a70 <_fwalk+0x98>
   16a5c:	00048513          	mv	a0,s1
   16a60:	00b12623          	sw	a1,12(sp)
   16a64:	000580e7          	jalr	a1
   16a68:	00c12583          	lw	a1,12(sp)
   16a6c:	00a96933          	or	s2,s2,a0
   16a70:	06848493          	addi	s1,s1,104
   16a74:	fc9ff06f          	j	16a3c <_fwalk+0x64>

00016a78 <_fwalk_reent>:
   16a78:	fd010113          	addi	sp,sp,-48
   16a7c:	02812423          	sw	s0,40(sp)
   16a80:	03212023          	sw	s2,32(sp)
   16a84:	01412c23          	sw	s4,24(sp)
   16a88:	01512a23          	sw	s5,20(sp)
   16a8c:	01612823          	sw	s6,16(sp)
   16a90:	01712623          	sw	s7,12(sp)
   16a94:	02112623          	sw	ra,44(sp)
   16a98:	02912223          	sw	s1,36(sp)
   16a9c:	01312e23          	sw	s3,28(sp)
   16aa0:	00050a13          	mv	s4,a0
   16aa4:	00058a93          	mv	s5,a1
   16aa8:	2e050413          	addi	s0,a0,736
   16aac:	00000913          	li	s2,0
   16ab0:	00100b13          	li	s6,1
   16ab4:	fff00b93          	li	s7,-1
   16ab8:	02041a63          	bnez	s0,16aec <_fwalk_reent+0x74>
   16abc:	02c12083          	lw	ra,44(sp)
   16ac0:	02812403          	lw	s0,40(sp)
   16ac4:	00090513          	mv	a0,s2
   16ac8:	02412483          	lw	s1,36(sp)
   16acc:	02012903          	lw	s2,32(sp)
   16ad0:	01c12983          	lw	s3,28(sp)
   16ad4:	01812a03          	lw	s4,24(sp)
   16ad8:	01412a83          	lw	s5,20(sp)
   16adc:	01012b03          	lw	s6,16(sp)
   16ae0:	00c12b83          	lw	s7,12(sp)
   16ae4:	03010113          	addi	sp,sp,48
   16ae8:	00008067          	ret
   16aec:	00842483          	lw	s1,8(s0)
   16af0:	00442983          	lw	s3,4(s0)
   16af4:	fff98993          	addi	s3,s3,-1
   16af8:	0009d663          	bgez	s3,16b04 <_fwalk_reent+0x8c>
   16afc:	00042403          	lw	s0,0(s0)
   16b00:	fb9ff06f          	j	16ab8 <_fwalk_reent+0x40>
   16b04:	00c4d783          	lhu	a5,12(s1)
   16b08:	00fb7e63          	bleu	a5,s6,16b24 <_fwalk_reent+0xac>
   16b0c:	00e49783          	lh	a5,14(s1)
   16b10:	01778a63          	beq	a5,s7,16b24 <_fwalk_reent+0xac>
   16b14:	00048593          	mv	a1,s1
   16b18:	000a0513          	mv	a0,s4
   16b1c:	000a80e7          	jalr	s5 # 80000000 <__global_pointer$+0x7ffd9d90>
   16b20:	00a96933          	or	s2,s2,a0
   16b24:	06848493          	addi	s1,s1,104
   16b28:	fcdff06f          	j	16af4 <_fwalk_reent+0x7c>

00016b2c <eclear>:
   16b2c:	01450793          	addi	a5,a0,20
   16b30:	00250513          	addi	a0,a0,2
   16b34:	fe051f23          	sh	zero,-2(a0)
   16b38:	fef51ce3          	bne	a0,a5,16b30 <eclear+0x4>
   16b3c:	00008067          	ret

00016b40 <emov>:
   16b40:	00000793          	li	a5,0
   16b44:	01400713          	li	a4,20
   16b48:	00f506b3          	add	a3,a0,a5
   16b4c:	0006d603          	lhu	a2,0(a3)
   16b50:	00f586b3          	add	a3,a1,a5
   16b54:	00278793          	addi	a5,a5,2
   16b58:	00c69023          	sh	a2,0(a3)
   16b5c:	fee796e3          	bne	a5,a4,16b48 <emov+0x8>
   16b60:	00008067          	ret

00016b64 <ecleaz>:
   16b64:	01a50793          	addi	a5,a0,26
   16b68:	00250513          	addi	a0,a0,2
   16b6c:	fe051f23          	sh	zero,-2(a0)
   16b70:	fef51ce3          	bne	a0,a5,16b68 <ecleaz+0x4>
   16b74:	00008067          	ret

00016b78 <emovz>:
   16b78:	00000793          	li	a5,0
   16b7c:	01800713          	li	a4,24
   16b80:	00f506b3          	add	a3,a0,a5
   16b84:	0006d603          	lhu	a2,0(a3)
   16b88:	00f586b3          	add	a3,a1,a5
   16b8c:	00278793          	addi	a5,a5,2
   16b90:	00c69023          	sh	a2,0(a3)
   16b94:	fee796e3          	bne	a5,a4,16b80 <emovz+0x8>
   16b98:	00059c23          	sh	zero,24(a1)
   16b9c:	00008067          	ret

00016ba0 <ecmpm>:
   16ba0:	00400793          	li	a5,4
   16ba4:	01a00613          	li	a2,26
   16ba8:	00f50733          	add	a4,a0,a5
   16bac:	00075683          	lhu	a3,0(a4)
   16bb0:	00f58733          	add	a4,a1,a5
   16bb4:	00075703          	lhu	a4,0(a4)
   16bb8:	00e68a63          	beq	a3,a4,16bcc <ecmpm+0x2c>
   16bbc:	00100513          	li	a0,1
   16bc0:	00d76c63          	bltu	a4,a3,16bd8 <ecmpm+0x38>
   16bc4:	fff00513          	li	a0,-1
   16bc8:	00008067          	ret
   16bcc:	00278793          	addi	a5,a5,2
   16bd0:	fcc79ce3          	bne	a5,a2,16ba8 <ecmpm+0x8>
   16bd4:	00000513          	li	a0,0
   16bd8:	00008067          	ret

00016bdc <eshdn1>:
   16bdc:	00450693          	addi	a3,a0,4
   16be0:	00000793          	li	a5,0
   16be4:	01a50513          	addi	a0,a0,26
   16be8:	ffff8637          	lui	a2,0xffff8
   16bec:	0006d703          	lhu	a4,0(a3)
   16bf0:	00177593          	andi	a1,a4,1
   16bf4:	00058463          	beqz	a1,16bfc <eshdn1+0x20>
   16bf8:	0017e793          	ori	a5,a5,1
   16bfc:	0027f593          	andi	a1,a5,2
   16c00:	00175713          	srli	a4,a4,0x1
   16c04:	02059063          	bnez	a1,16c24 <eshdn1+0x48>
   16c08:	00179793          	slli	a5,a5,0x1
   16c0c:	00e69023          	sh	a4,0(a3)
   16c10:	01079793          	slli	a5,a5,0x10
   16c14:	00268693          	addi	a3,a3,2
   16c18:	0107d793          	srli	a5,a5,0x10
   16c1c:	fcd518e3          	bne	a0,a3,16bec <eshdn1+0x10>
   16c20:	00008067          	ret
   16c24:	00c76733          	or	a4,a4,a2
   16c28:	fe1ff06f          	j	16c08 <eshdn1+0x2c>

00016c2c <eshup1>:
   16c2c:	01650693          	addi	a3,a0,22
   16c30:	00000713          	li	a4,0
   16c34:	0026d783          	lhu	a5,2(a3)
   16c38:	01079613          	slli	a2,a5,0x10
   16c3c:	41065613          	srai	a2,a2,0x10
   16c40:	00065463          	bgez	a2,16c48 <eshup1+0x1c>
   16c44:	00176713          	ori	a4,a4,1
   16c48:	00179793          	slli	a5,a5,0x1
   16c4c:	01079793          	slli	a5,a5,0x10
   16c50:	00277613          	andi	a2,a4,2
   16c54:	0107d793          	srli	a5,a5,0x10
   16c58:	02061063          	bnez	a2,16c78 <eshup1+0x4c>
   16c5c:	00171713          	slli	a4,a4,0x1
   16c60:	00f69123          	sh	a5,2(a3)
   16c64:	01071713          	slli	a4,a4,0x10
   16c68:	ffe68693          	addi	a3,a3,-2
   16c6c:	01075713          	srli	a4,a4,0x10
   16c70:	fcd512e3          	bne	a0,a3,16c34 <eshup1+0x8>
   16c74:	00008067          	ret
   16c78:	0017e793          	ori	a5,a5,1
   16c7c:	fe1ff06f          	j	16c5c <eshup1+0x30>

00016c80 <eshdn8>:
   16c80:	00450793          	addi	a5,a0,4
   16c84:	00000713          	li	a4,0
   16c88:	01a50513          	addi	a0,a0,26
   16c8c:	0007d683          	lhu	a3,0(a5)
   16c90:	00278793          	addi	a5,a5,2
   16c94:	0086d613          	srli	a2,a3,0x8
   16c98:	00c76733          	or	a4,a4,a2
   16c9c:	fee79f23          	sh	a4,-2(a5)
   16ca0:	00869713          	slli	a4,a3,0x8
   16ca4:	01071713          	slli	a4,a4,0x10
   16ca8:	01075713          	srli	a4,a4,0x10
   16cac:	fef510e3          	bne	a0,a5,16c8c <eshdn8+0xc>
   16cb0:	00008067          	ret

00016cb4 <eshup8>:
   16cb4:	01650793          	addi	a5,a0,22
   16cb8:	00000713          	li	a4,0
   16cbc:	0027d683          	lhu	a3,2(a5)
   16cc0:	ffe78793          	addi	a5,a5,-2
   16cc4:	00869613          	slli	a2,a3,0x8
   16cc8:	00c76733          	or	a4,a4,a2
   16ccc:	00e79223          	sh	a4,4(a5)
   16cd0:	0086d713          	srli	a4,a3,0x8
   16cd4:	fef514e3          	bne	a0,a5,16cbc <eshup8+0x8>
   16cd8:	00008067          	ret

00016cdc <eshup6>:
   16cdc:	00450793          	addi	a5,a0,4
   16ce0:	01850713          	addi	a4,a0,24
   16ce4:	00278793          	addi	a5,a5,2
   16ce8:	0007d683          	lhu	a3,0(a5)
   16cec:	fed79f23          	sh	a3,-2(a5)
   16cf0:	fef71ae3          	bne	a4,a5,16ce4 <eshup6+0x8>
   16cf4:	00051c23          	sh	zero,24(a0)
   16cf8:	00008067          	ret

00016cfc <eshdn6>:
   16cfc:	01850793          	addi	a5,a0,24
   16d00:	00450713          	addi	a4,a0,4
   16d04:	ffe78793          	addi	a5,a5,-2
   16d08:	0007d683          	lhu	a3,0(a5)
   16d0c:	00d79123          	sh	a3,2(a5)
   16d10:	fef71ae3          	bne	a4,a5,16d04 <eshdn6+0x8>
   16d14:	00051223          	sh	zero,4(a0)
   16d18:	00008067          	ret

00016d1c <eaddm>:
   16d1c:	01858593          	addi	a1,a1,24
   16d20:	01650713          	addi	a4,a0,22
   16d24:	00000693          	li	a3,0
   16d28:	00275783          	lhu	a5,2(a4)
   16d2c:	0005d603          	lhu	a2,0(a1)
   16d30:	ffe70713          	addi	a4,a4,-2
   16d34:	ffe58593          	addi	a1,a1,-2
   16d38:	00c787b3          	add	a5,a5,a2
   16d3c:	00d787b3          	add	a5,a5,a3
   16d40:	00f59123          	sh	a5,2(a1)
   16d44:	0107d793          	srli	a5,a5,0x10
   16d48:	0017f693          	andi	a3,a5,1
   16d4c:	fce51ee3          	bne	a0,a4,16d28 <eaddm+0xc>
   16d50:	00008067          	ret

00016d54 <esubm>:
   16d54:	01858593          	addi	a1,a1,24
   16d58:	01650713          	addi	a4,a0,22
   16d5c:	00000693          	li	a3,0
   16d60:	0005d783          	lhu	a5,0(a1)
   16d64:	ffe70713          	addi	a4,a4,-2
   16d68:	ffe58593          	addi	a1,a1,-2
   16d6c:	40d787b3          	sub	a5,a5,a3
   16d70:	00475683          	lhu	a3,4(a4)
   16d74:	40d787b3          	sub	a5,a5,a3
   16d78:	00f59123          	sh	a5,2(a1)
   16d7c:	0107d793          	srli	a5,a5,0x10
   16d80:	0017f693          	andi	a3,a5,1
   16d84:	fce51ee3          	bne	a0,a4,16d60 <esubm+0xc>
   16d88:	00008067          	ret

00016d8c <m16m>:
   16d8c:	fb010113          	addi	sp,sp,-80
   16d90:	03312e23          	sw	s3,60(sp)
   16d94:	000109b7          	lui	s3,0x10
   16d98:	04812423          	sw	s0,72(sp)
   16d9c:	04912223          	sw	s1,68(sp)
   16da0:	05212023          	sw	s2,64(sp)
   16da4:	03412c23          	sw	s4,56(sp)
   16da8:	04112623          	sw	ra,76(sp)
   16dac:	00050a13          	mv	s4,a0
   16db0:	02011523          	sh	zero,42(sp)
   16db4:	02011623          	sh	zero,44(sp)
   16db8:	01858493          	addi	s1,a1,24
   16dbc:	00458913          	addi	s2,a1,4
   16dc0:	02c10413          	addi	s0,sp,44
   16dc4:	fff98993          	addi	s3,s3,-1 # ffff <main-0x75>
   16dc8:	0004d503          	lhu	a0,0(s1)
   16dcc:	ffe40413          	addi	s0,s0,-2
   16dd0:	ffe48493          	addi	s1,s1,-2
   16dd4:	04051863          	bnez	a0,16e24 <m16m+0x98>
   16dd8:	fe041f23          	sh	zero,-2(s0)
   16ddc:	fe9916e3          	bne	s2,s1,16dc8 <m16m+0x3c>
   16de0:	00400793          	li	a5,4
   16de4:	01a00713          	li	a4,26
   16de8:	01410593          	addi	a1,sp,20
   16dec:	00f585b3          	add	a1,a1,a5
   16df0:	0005d583          	lhu	a1,0(a1)
   16df4:	00f606b3          	add	a3,a2,a5
   16df8:	00278793          	addi	a5,a5,2
   16dfc:	00b69023          	sh	a1,0(a3)
   16e00:	fee794e3          	bne	a5,a4,16de8 <m16m+0x5c>
   16e04:	04c12083          	lw	ra,76(sp)
   16e08:	04812403          	lw	s0,72(sp)
   16e0c:	04412483          	lw	s1,68(sp)
   16e10:	04012903          	lw	s2,64(sp)
   16e14:	03c12983          	lw	s3,60(sp)
   16e18:	03812a03          	lw	s4,56(sp)
   16e1c:	05010113          	addi	sp,sp,80
   16e20:	00008067          	ret
   16e24:	000a0593          	mv	a1,s4
   16e28:	00c12623          	sw	a2,12(sp)
   16e2c:	c5cfc0ef          	jal	ra,13288 <__mulsi3>
   16e30:	00245703          	lhu	a4,2(s0)
   16e34:	013577b3          	and	a5,a0,s3
   16e38:	01055513          	srli	a0,a0,0x10
   16e3c:	00e787b3          	add	a5,a5,a4
   16e40:	00045703          	lhu	a4,0(s0)
   16e44:	00f41123          	sh	a5,2(s0)
   16e48:	0107d793          	srli	a5,a5,0x10
   16e4c:	00e50533          	add	a0,a0,a4
   16e50:	00f50533          	add	a0,a0,a5
   16e54:	00a41023          	sh	a0,0(s0)
   16e58:	01055513          	srli	a0,a0,0x10
   16e5c:	fea41f23          	sh	a0,-2(s0)
   16e60:	00c12603          	lw	a2,12(sp)
   16e64:	f79ff06f          	j	16ddc <m16m+0x50>

00016e68 <eisnan>:
   16e68:	01255783          	lhu	a5,18(a0)
   16e6c:	fff7c793          	not	a5,a5
   16e70:	01179713          	slli	a4,a5,0x11
   16e74:	00071c63          	bnez	a4,16e8c <eisnan+0x24>
   16e78:	01250793          	addi	a5,a0,18
   16e7c:	00250513          	addi	a0,a0,2
   16e80:	ffe55703          	lhu	a4,-2(a0)
   16e84:	00071863          	bnez	a4,16e94 <eisnan+0x2c>
   16e88:	fea79ae3          	bne	a5,a0,16e7c <eisnan+0x14>
   16e8c:	00000513          	li	a0,0
   16e90:	00008067          	ret
   16e94:	00100513          	li	a0,1
   16e98:	00008067          	ret

00016e9c <eisneg>:
   16e9c:	ff010113          	addi	sp,sp,-16
   16ea0:	00812423          	sw	s0,8(sp)
   16ea4:	00112623          	sw	ra,12(sp)
   16ea8:	00050413          	mv	s0,a0
   16eac:	fbdff0ef          	jal	ra,16e68 <eisnan>
   16eb0:	00051e63          	bnez	a0,16ecc <eisneg+0x30>
   16eb4:	01241503          	lh	a0,18(s0)
   16eb8:	01f55513          	srli	a0,a0,0x1f
   16ebc:	00c12083          	lw	ra,12(sp)
   16ec0:	00812403          	lw	s0,8(sp)
   16ec4:	01010113          	addi	sp,sp,16
   16ec8:	00008067          	ret
   16ecc:	00000513          	li	a0,0
   16ed0:	fedff06f          	j	16ebc <eisneg+0x20>

00016ed4 <emovi>:
   16ed4:	01251783          	lh	a5,18(a0)
   16ed8:	ff010113          	addi	sp,sp,-16
   16edc:	00112623          	sw	ra,12(sp)
   16ee0:	00812423          	sw	s0,8(sp)
   16ee4:	00912223          	sw	s1,4(sp)
   16ee8:	01212023          	sw	s2,0(sp)
   16eec:	0607d863          	bgez	a5,16f5c <emovi+0x88>
   16ef0:	fff00793          	li	a5,-1
   16ef4:	00f59023          	sh	a5,0(a1)
   16ef8:	01255703          	lhu	a4,18(a0)
   16efc:	000087b7          	lui	a5,0x8
   16f00:	fff78793          	addi	a5,a5,-1 # 7fff <main-0x8075>
   16f04:	00e7f733          	and	a4,a5,a4
   16f08:	00e59123          	sh	a4,2(a1)
   16f0c:	01050913          	addi	s2,a0,16
   16f10:	06f71663          	bne	a4,a5,16f7c <emovi+0xa8>
   16f14:	00058413          	mv	s0,a1
   16f18:	00050493          	mv	s1,a0
   16f1c:	f4dff0ef          	jal	ra,16e68 <eisnan>
   16f20:	04050263          	beqz	a0,16f64 <emovi+0x90>
   16f24:	00640793          	addi	a5,s0,6
   16f28:	00041223          	sh	zero,4(s0)
   16f2c:	ffc48513          	addi	a0,s1,-4
   16f30:	ffe90913          	addi	s2,s2,-2
   16f34:	00295703          	lhu	a4,2(s2)
   16f38:	00278793          	addi	a5,a5,2
   16f3c:	fee79f23          	sh	a4,-2(a5)
   16f40:	fea918e3          	bne	s2,a0,16f30 <emovi+0x5c>
   16f44:	00c12083          	lw	ra,12(sp)
   16f48:	00812403          	lw	s0,8(sp)
   16f4c:	00412483          	lw	s1,4(sp)
   16f50:	00012903          	lw	s2,0(sp)
   16f54:	01010113          	addi	sp,sp,16
   16f58:	00008067          	ret
   16f5c:	00059023          	sh	zero,0(a1)
   16f60:	f99ff06f          	j	16ef8 <emovi+0x24>
   16f64:	00440793          	addi	a5,s0,4
   16f68:	01a40593          	addi	a1,s0,26
   16f6c:	00278793          	addi	a5,a5,2
   16f70:	fe079f23          	sh	zero,-2(a5)
   16f74:	feb79ce3          	bne	a5,a1,16f6c <emovi+0x98>
   16f78:	fcdff06f          	j	16f44 <emovi+0x70>
   16f7c:	00658793          	addi	a5,a1,6
   16f80:	00059223          	sh	zero,4(a1)
   16f84:	ffe50513          	addi	a0,a0,-2
   16f88:	ffe90913          	addi	s2,s2,-2
   16f8c:	00295703          	lhu	a4,2(s2)
   16f90:	00278793          	addi	a5,a5,2
   16f94:	fee79f23          	sh	a4,-2(a5)
   16f98:	fea918e3          	bne	s2,a0,16f88 <emovi+0xb4>
   16f9c:	00059c23          	sh	zero,24(a1)
   16fa0:	fa5ff06f          	j	16f44 <emovi+0x70>

00016fa4 <ecmp>:
   16fa4:	fb010113          	addi	sp,sp,-80
   16fa8:	04912223          	sw	s1,68(sp)
   16fac:	05212023          	sw	s2,64(sp)
   16fb0:	04112623          	sw	ra,76(sp)
   16fb4:	04812423          	sw	s0,72(sp)
   16fb8:	00050913          	mv	s2,a0
   16fbc:	00058493          	mv	s1,a1
   16fc0:	ea9ff0ef          	jal	ra,16e68 <eisnan>
   16fc4:	0e051063          	bnez	a0,170a4 <ecmp+0x100>
   16fc8:	00048513          	mv	a0,s1
   16fcc:	e9dff0ef          	jal	ra,16e68 <eisnan>
   16fd0:	00050413          	mv	s0,a0
   16fd4:	0c051863          	bnez	a0,170a4 <ecmp+0x100>
   16fd8:	00810593          	addi	a1,sp,8
   16fdc:	00090513          	mv	a0,s2
   16fe0:	ef5ff0ef          	jal	ra,16ed4 <emovi>
   16fe4:	02410593          	addi	a1,sp,36
   16fe8:	00048513          	mv	a0,s1
   16fec:	ee9ff0ef          	jal	ra,16ed4 <emovi>
   16ff0:	00815703          	lhu	a4,8(sp)
   16ff4:	02415783          	lhu	a5,36(sp)
   16ff8:	06e78063          	beq	a5,a4,17058 <ecmp+0xb4>
   16ffc:	00200793          	li	a5,2
   17000:	01800693          	li	a3,24
   17004:	00810613          	addi	a2,sp,8
   17008:	00f60633          	add	a2,a2,a5
   1700c:	00065603          	lhu	a2,0(a2) # ffff8000 <__global_pointer$+0xfffd1d90>
   17010:	02061c63          	bnez	a2,17048 <ecmp+0xa4>
   17014:	02410613          	addi	a2,sp,36
   17018:	00f60633          	add	a2,a2,a5
   1701c:	00065603          	lhu	a2,0(a2)
   17020:	02061463          	bnez	a2,17048 <ecmp+0xa4>
   17024:	00278793          	addi	a5,a5,2
   17028:	fcd79ee3          	bne	a5,a3,17004 <ecmp+0x60>
   1702c:	00040513          	mv	a0,s0
   17030:	04c12083          	lw	ra,76(sp)
   17034:	04812403          	lw	s0,72(sp)
   17038:	04412483          	lw	s1,68(sp)
   1703c:	04012903          	lw	s2,64(sp)
   17040:	05010113          	addi	sp,sp,80
   17044:	00008067          	ret
   17048:	00100413          	li	s0,1
   1704c:	fe0700e3          	beqz	a4,1702c <ecmp+0x88>
   17050:	fff00413          	li	s0,-1
   17054:	fd9ff06f          	j	1702c <ecmp+0x88>
   17058:	00100713          	li	a4,1
   1705c:	00078463          	beqz	a5,17064 <ecmp+0xc0>
   17060:	fff00713          	li	a4,-1
   17064:	00000793          	li	a5,0
   17068:	01800593          	li	a1,24
   1706c:	00810693          	addi	a3,sp,8
   17070:	00f686b3          	add	a3,a3,a5
   17074:	0006d603          	lhu	a2,0(a3)
   17078:	02410693          	addi	a3,sp,36
   1707c:	00f686b3          	add	a3,a3,a5
   17080:	0006d683          	lhu	a3,0(a3)
   17084:	00d60a63          	beq	a2,a3,17098 <ecmp+0xf4>
   17088:	00070413          	mv	s0,a4
   1708c:	fac6e0e3          	bltu	a3,a2,1702c <ecmp+0x88>
   17090:	40e00433          	neg	s0,a4
   17094:	f99ff06f          	j	1702c <ecmp+0x88>
   17098:	00278793          	addi	a5,a5,2
   1709c:	fcb798e3          	bne	a5,a1,1706c <ecmp+0xc8>
   170a0:	f8dff06f          	j	1702c <ecmp+0x88>
   170a4:	ffe00413          	li	s0,-2
   170a8:	f85ff06f          	j	1702c <ecmp+0x88>

000170ac <eisinf>:
   170ac:	01255783          	lhu	a5,18(a0)
   170b0:	fff7c793          	not	a5,a5
   170b4:	01179713          	slli	a4,a5,0x11
   170b8:	02071063          	bnez	a4,170d8 <eisinf+0x2c>
   170bc:	ff010113          	addi	sp,sp,-16
   170c0:	00112623          	sw	ra,12(sp)
   170c4:	da5ff0ef          	jal	ra,16e68 <eisnan>
   170c8:	00c12083          	lw	ra,12(sp)
   170cc:	00153513          	seqz	a0,a0
   170d0:	01010113          	addi	sp,sp,16
   170d4:	00008067          	ret
   170d8:	00000513          	li	a0,0
   170dc:	00008067          	ret

000170e0 <einfin.isra.2>:
   170e0:	01250713          	addi	a4,a0,18
   170e4:	00050793          	mv	a5,a0
   170e8:	00278793          	addi	a5,a5,2
   170ec:	fe079f23          	sh	zero,-2(a5)
   170f0:	fee79ce3          	bne	a5,a4,170e8 <einfin.isra.2+0x8>
   170f4:	01255783          	lhu	a5,18(a0)
   170f8:	00008737          	lui	a4,0x8
   170fc:	fff70713          	addi	a4,a4,-1 # 7fff <main-0x8075>
   17100:	00e7e7b3          	or	a5,a5,a4
   17104:	00f51923          	sh	a5,18(a0)
   17108:	00008067          	ret

0001710c <eshift.part.3>:
   1710c:	fe010113          	addi	sp,sp,-32
   17110:	01212823          	sw	s2,16(sp)
   17114:	01412423          	sw	s4,8(sp)
   17118:	00112e23          	sw	ra,28(sp)
   1711c:	00812c23          	sw	s0,24(sp)
   17120:	00912a23          	sw	s1,20(sp)
   17124:	01312623          	sw	s3,12(sp)
   17128:	01512223          	sw	s5,4(sp)
   1712c:	00050a13          	mv	s4,a0
   17130:	00058913          	mv	s2,a1
   17134:	0e05d663          	bgez	a1,17220 <eshift.part.3+0x114>
   17138:	40b004b3          	neg	s1,a1
   1713c:	00048413          	mv	s0,s1
   17140:	00000993          	li	s3,0
   17144:	00f00a93          	li	s5,15
   17148:	028ac863          	blt	s5,s0,17178 <eshift.part.3+0x6c>
   1714c:	0044d413          	srli	s0,s1,0x4
   17150:	40800433          	neg	s0,s0
   17154:	00441413          	slli	s0,s0,0x4
   17158:	41240433          	sub	s0,s0,s2
   1715c:	00040493          	mv	s1,s0
   17160:	00700913          	li	s2,7
   17164:	02994663          	blt	s2,s1,17190 <eshift.part.3+0x84>
   17168:	00747413          	andi	s0,s0,7
   1716c:	02041e63          	bnez	s0,171a8 <eshift.part.3+0x9c>
   17170:	01303533          	snez	a0,s3
   17174:	0880006f          	j	171fc <eshift.part.3+0xf0>
   17178:	018a5783          	lhu	a5,24(s4)
   1717c:	000a0513          	mv	a0,s4
   17180:	ff040413          	addi	s0,s0,-16
   17184:	00f9e9b3          	or	s3,s3,a5
   17188:	b75ff0ef          	jal	ra,16cfc <eshdn6>
   1718c:	fbdff06f          	j	17148 <eshift.part.3+0x3c>
   17190:	018a4783          	lbu	a5,24(s4)
   17194:	000a0513          	mv	a0,s4
   17198:	ff848493          	addi	s1,s1,-8
   1719c:	0137e9b3          	or	s3,a5,s3
   171a0:	ae1ff0ef          	jal	ra,16c80 <eshdn8>
   171a4:	fc1ff06f          	j	17164 <eshift.part.3+0x58>
   171a8:	018a5783          	lhu	a5,24(s4)
   171ac:	000a0513          	mv	a0,s4
   171b0:	fff40413          	addi	s0,s0,-1
   171b4:	0017f793          	andi	a5,a5,1
   171b8:	0137e9b3          	or	s3,a5,s3
   171bc:	a21ff0ef          	jal	ra,16bdc <eshdn1>
   171c0:	fadff06f          	j	1716c <eshift.part.3+0x60>
   171c4:	000a0513          	mv	a0,s4
   171c8:	b15ff0ef          	jal	ra,16cdc <eshup6>
   171cc:	ff040413          	addi	s0,s0,-16
   171d0:	fe84cae3          	blt	s1,s0,171c4 <eshift.part.3+0xb8>
   171d4:	00f97413          	andi	s0,s2,15
   171d8:	00040493          	mv	s1,s0
   171dc:	00700913          	li	s2,7
   171e0:	04994663          	blt	s2,s1,1722c <eshift.part.3+0x120>
   171e4:	00345913          	srli	s2,s0,0x3
   171e8:	41200933          	neg	s2,s2
   171ec:	00391913          	slli	s2,s2,0x3
   171f0:	01240433          	add	s0,s0,s2
   171f4:	04041463          	bnez	s0,1723c <eshift.part.3+0x130>
   171f8:	00000513          	li	a0,0
   171fc:	01c12083          	lw	ra,28(sp)
   17200:	01812403          	lw	s0,24(sp)
   17204:	01412483          	lw	s1,20(sp)
   17208:	01012903          	lw	s2,16(sp)
   1720c:	00c12983          	lw	s3,12(sp)
   17210:	00812a03          	lw	s4,8(sp)
   17214:	00412a83          	lw	s5,4(sp)
   17218:	02010113          	addi	sp,sp,32
   1721c:	00008067          	ret
   17220:	00058413          	mv	s0,a1
   17224:	00f00493          	li	s1,15
   17228:	fa9ff06f          	j	171d0 <eshift.part.3+0xc4>
   1722c:	000a0513          	mv	a0,s4
   17230:	a85ff0ef          	jal	ra,16cb4 <eshup8>
   17234:	ff848493          	addi	s1,s1,-8
   17238:	fa9ff06f          	j	171e0 <eshift.part.3+0xd4>
   1723c:	000a0513          	mv	a0,s4
   17240:	9edff0ef          	jal	ra,16c2c <eshup1>
   17244:	fff40413          	addi	s0,s0,-1
   17248:	fadff06f          	j	171f4 <eshift.part.3+0xe8>

0001724c <enormlz>:
   1724c:	00455783          	lhu	a5,4(a0)
   17250:	ff010113          	addi	sp,sp,-16
   17254:	00912223          	sw	s1,4(sp)
   17258:	00112623          	sw	ra,12(sp)
   1725c:	00812423          	sw	s0,8(sp)
   17260:	01212023          	sw	s2,0(sp)
   17264:	00050493          	mv	s1,a0
   17268:	02078063          	beqz	a5,17288 <enormlz+0x3c>
   1726c:	f007f793          	andi	a5,a5,-256
   17270:	00000413          	li	s0,0
   17274:	00078663          	beqz	a5,17280 <enormlz+0x34>
   17278:	a09ff0ef          	jal	ra,16c80 <eshdn8>
   1727c:	ff800413          	li	s0,-8
   17280:	f6f00913          	li	s2,-145
   17284:	0940006f          	j	17318 <enormlz+0xcc>
   17288:	00651783          	lh	a5,6(a0)
   1728c:	00000413          	li	s0,0
   17290:	0a000913          	li	s2,160
   17294:	0207d863          	bgez	a5,172c4 <enormlz+0x78>
   17298:	00040513          	mv	a0,s0
   1729c:	00c12083          	lw	ra,12(sp)
   172a0:	00812403          	lw	s0,8(sp)
   172a4:	00412483          	lw	s1,4(sp)
   172a8:	00012903          	lw	s2,0(sp)
   172ac:	01010113          	addi	sp,sp,16
   172b0:	00008067          	ret
   172b4:	00048513          	mv	a0,s1
   172b8:	01040413          	addi	s0,s0,16
   172bc:	a21ff0ef          	jal	ra,16cdc <eshup6>
   172c0:	fd240ce3          	beq	s0,s2,17298 <enormlz+0x4c>
   172c4:	0064d783          	lhu	a5,6(s1)
   172c8:	fe0786e3          	beqz	a5,172b4 <enormlz+0x68>
   172cc:	0064d783          	lhu	a5,6(s1)
   172d0:	f007f793          	andi	a5,a5,-256
   172d4:	02078263          	beqz	a5,172f8 <enormlz+0xac>
   172d8:	0a000913          	li	s2,160
   172dc:	00649783          	lh	a5,6(s1)
   172e0:	fa07cce3          	bltz	a5,17298 <enormlz+0x4c>
   172e4:	00048513          	mv	a0,s1
   172e8:	00140413          	addi	s0,s0,1
   172ec:	941ff0ef          	jal	ra,16c2c <eshup1>
   172f0:	fe8956e3          	ble	s0,s2,172dc <enormlz+0x90>
   172f4:	fa5ff06f          	j	17298 <enormlz+0x4c>
   172f8:	00048513          	mv	a0,s1
   172fc:	9b9ff0ef          	jal	ra,16cb4 <eshup8>
   17300:	00840413          	addi	s0,s0,8
   17304:	fc9ff06f          	j	172cc <enormlz+0x80>
   17308:	00048513          	mv	a0,s1
   1730c:	fff40413          	addi	s0,s0,-1
   17310:	8cdff0ef          	jal	ra,16bdc <eshdn1>
   17314:	f92402e3          	beq	s0,s2,17298 <enormlz+0x4c>
   17318:	0044d783          	lhu	a5,4(s1)
   1731c:	fe0796e3          	bnez	a5,17308 <enormlz+0xbc>
   17320:	f79ff06f          	j	17298 <enormlz+0x4c>

00017324 <enan.constprop.12>:
   17324:	01050713          	addi	a4,a0,16
   17328:	00050793          	mv	a5,a0
   1732c:	00278793          	addi	a5,a5,2
   17330:	fe079f23          	sh	zero,-2(a5)
   17334:	fee79ce3          	bne	a5,a4,1732c <enan.constprop.12+0x8>
   17338:	7fffc7b7          	lui	a5,0x7fffc
   1733c:	00f52823          	sw	a5,16(a0)
   17340:	00008067          	ret

00017344 <emovo.isra.6>:
   17344:	00050713          	mv	a4,a0
   17348:	00075683          	lhu	a3,0(a4)
   1734c:	00058513          	mv	a0,a1
   17350:	00275783          	lhu	a5,2(a4)
   17354:	00068663          	beqz	a3,17360 <emovo.isra.6+0x1c>
   17358:	ffff86b7          	lui	a3,0xffff8
   1735c:	00d7e7b3          	or	a5,a5,a3
   17360:	00f51923          	sh	a5,18(a0)
   17364:	00275603          	lhu	a2,2(a4)
   17368:	000086b7          	lui	a3,0x8
   1736c:	fff68693          	addi	a3,a3,-1 # 7fff <main-0x8075>
   17370:	00670793          	addi	a5,a4,6
   17374:	00d61e63          	bne	a2,a3,17390 <emovo.isra.6+0x4c>
   17378:	01a70713          	addi	a4,a4,26
   1737c:	0007d683          	lhu	a3,0(a5) # 7fffc000 <__global_pointer$+0x7ffd5d90>
   17380:	02069863          	bnez	a3,173b0 <emovo.isra.6+0x6c>
   17384:	00278793          	addi	a5,a5,2
   17388:	fee79ae3          	bne	a5,a4,1737c <emovo.isra.6+0x38>
   1738c:	d55ff06f          	j	170e0 <einfin.isra.2>
   17390:	01050513          	addi	a0,a0,16
   17394:	01870713          	addi	a4,a4,24
   17398:	00278793          	addi	a5,a5,2
   1739c:	ffe7d683          	lhu	a3,-2(a5)
   173a0:	ffe50513          	addi	a0,a0,-2
   173a4:	00d51123          	sh	a3,2(a0)
   173a8:	fee798e3          	bne	a5,a4,17398 <emovo.isra.6+0x54>
   173ac:	00008067          	ret
   173b0:	f75ff06f          	j	17324 <enan.constprop.12>

000173b4 <e113toe.isra.8>:
   173b4:	fd010113          	addi	sp,sp,-48
   173b8:	02912223          	sw	s1,36(sp)
   173bc:	00050493          	mv	s1,a0
   173c0:	00410513          	addi	a0,sp,4
   173c4:	02812423          	sw	s0,40(sp)
   173c8:	02112623          	sw	ra,44(sp)
   173cc:	00058413          	mv	s0,a1
   173d0:	f94ff0ef          	jal	ra,16b64 <ecleaz>
   173d4:	00e4d703          	lhu	a4,14(s1)
   173d8:	01071793          	slli	a5,a4,0x10
   173dc:	4107d793          	srai	a5,a5,0x10
   173e0:	0407c263          	bltz	a5,17424 <e113toe.isra.8+0x70>
   173e4:	00011223          	sh	zero,4(sp)
   173e8:	000086b7          	lui	a3,0x8
   173ec:	fff68693          	addi	a3,a3,-1 # 7fff <main-0x8075>
   173f0:	00d77733          	and	a4,a4,a3
   173f4:	00e48793          	addi	a5,s1,14
   173f8:	06d71c63          	bne	a4,a3,17470 <e113toe.isra.8+0xbc>
   173fc:	00048713          	mv	a4,s1
   17400:	00075683          	lhu	a3,0(a4)
   17404:	02068663          	beqz	a3,17430 <e113toe.isra.8+0x7c>
   17408:	00040513          	mv	a0,s0
   1740c:	f19ff0ef          	jal	ra,17324 <enan.constprop.12>
   17410:	02c12083          	lw	ra,44(sp)
   17414:	02812403          	lw	s0,40(sp)
   17418:	02412483          	lw	s1,36(sp)
   1741c:	03010113          	addi	sp,sp,48
   17420:	00008067          	ret
   17424:	fff00793          	li	a5,-1
   17428:	00f11223          	sh	a5,4(sp)
   1742c:	fbdff06f          	j	173e8 <e113toe.isra.8+0x34>
   17430:	00270713          	addi	a4,a4,2
   17434:	fce796e3          	bne	a5,a4,17400 <e113toe.isra.8+0x4c>
   17438:	00040513          	mv	a0,s0
   1743c:	ef0ff0ef          	jal	ra,16b2c <eclear>
   17440:	00040513          	mv	a0,s0
   17444:	c9dff0ef          	jal	ra,170e0 <einfin.isra.2>
   17448:	00e49783          	lh	a5,14(s1)
   1744c:	fc07d2e3          	bgez	a5,17410 <e113toe.isra.8+0x5c>
   17450:	00040513          	mv	a0,s0
   17454:	a15ff0ef          	jal	ra,16e68 <eisnan>
   17458:	fa051ce3          	bnez	a0,17410 <e113toe.isra.8+0x5c>
   1745c:	01245783          	lhu	a5,18(s0)
   17460:	ffff8737          	lui	a4,0xffff8
   17464:	00e7c7b3          	xor	a5,a5,a4
   17468:	00f41923          	sh	a5,18(s0)
   1746c:	fa5ff06f          	j	17410 <e113toe.isra.8+0x5c>
   17470:	00e11323          	sh	a4,6(sp)
   17474:	00410693          	addi	a3,sp,4
   17478:	ffe78793          	addi	a5,a5,-2
   1747c:	0007d603          	lhu	a2,0(a5)
   17480:	00268693          	addi	a3,a3,2
   17484:	00c69223          	sh	a2,4(a3)
   17488:	fef498e3          	bne	s1,a5,17478 <e113toe.isra.8+0xc4>
   1748c:	00071c63          	bnez	a4,174a4 <e113toe.isra.8+0xf0>
   17490:	00011423          	sh	zero,8(sp)
   17494:	00040593          	mv	a1,s0
   17498:	00410513          	addi	a0,sp,4
   1749c:	ea9ff0ef          	jal	ra,17344 <emovo.isra.6>
   174a0:	f71ff06f          	j	17410 <e113toe.isra.8+0x5c>
   174a4:	00100793          	li	a5,1
   174a8:	fff00593          	li	a1,-1
   174ac:	00410513          	addi	a0,sp,4
   174b0:	00f11423          	sh	a5,8(sp)
   174b4:	c59ff0ef          	jal	ra,1710c <eshift.part.3>
   174b8:	fddff06f          	j	17494 <e113toe.isra.8+0xe0>

000174bc <emdnorm>:
   174bc:	fe010113          	addi	sp,sp,-32
   174c0:	00812c23          	sw	s0,24(sp)
   174c4:	00912a23          	sw	s1,20(sp)
   174c8:	01212823          	sw	s2,16(sp)
   174cc:	01312623          	sw	s3,12(sp)
   174d0:	01412423          	sw	s4,8(sp)
   174d4:	01512223          	sw	s5,4(sp)
   174d8:	00068913          	mv	s2,a3
   174dc:	00078413          	mv	s0,a5
   174e0:	00112e23          	sw	ra,28(sp)
   174e4:	00050493          	mv	s1,a0
   174e8:	00058993          	mv	s3,a1
   174ec:	00060a13          	mv	s4,a2
   174f0:	00070a93          	mv	s5,a4
   174f4:	d59ff0ef          	jal	ra,1724c <enormlz>
   174f8:	09000793          	li	a5,144
   174fc:	40a90933          	sub	s2,s2,a0
   17500:	04a7d463          	ble	a0,a5,17548 <emdnorm+0x8c>
   17504:	000087b7          	lui	a5,0x8
   17508:	ffe78793          	addi	a5,a5,-2 # 7ffe <main-0x8076>
   1750c:	0527cc63          	blt	a5,s2,17564 <emdnorm+0xa8>
   17510:	00248793          	addi	a5,s1,2
   17514:	01a48493          	addi	s1,s1,26
   17518:	00278793          	addi	a5,a5,2
   1751c:	fe079f23          	sh	zero,-2(a5)
   17520:	fe979ce3          	bne	a5,s1,17518 <emdnorm+0x5c>
   17524:	01c12083          	lw	ra,28(sp)
   17528:	01812403          	lw	s0,24(sp)
   1752c:	01412483          	lw	s1,20(sp)
   17530:	01012903          	lw	s2,16(sp)
   17534:	00c12983          	lw	s3,12(sp)
   17538:	00812a03          	lw	s4,8(sp)
   1753c:	00412a83          	lw	s5,4(sp)
   17540:	02010113          	addi	sp,sp,32
   17544:	00008067          	ret
   17548:	00095e63          	bgez	s2,17564 <emdnorm+0xa8>
   1754c:	f7000793          	li	a5,-144
   17550:	18f94463          	blt	s2,a5,176d8 <emdnorm+0x21c>
   17554:	00090593          	mv	a1,s2
   17558:	00048513          	mv	a0,s1
   1755c:	bb1ff0ef          	jal	ra,1710c <eshift.part.3>
   17560:	18051863          	bnez	a0,176f0 <emdnorm+0x234>
   17564:	140a8063          	beqz	s5,176a4 <emdnorm+0x1e8>
   17568:	00442703          	lw	a4,4(s0)
   1756c:	00042783          	lw	a5,0(s0)
   17570:	06f70663          	beq	a4,a5,175dc <emdnorm+0x120>
   17574:	01a40513          	addi	a0,s0,26
   17578:	decff0ef          	jal	ra,16b64 <ecleaz>
   1757c:	00442783          	lw	a5,4(s0)
   17580:	03800713          	li	a4,56
   17584:	1ce78663          	beq	a5,a4,17750 <emdnorm+0x294>
   17588:	16f74863          	blt	a4,a5,176f8 <emdnorm+0x23c>
   1758c:	01800713          	li	a4,24
   17590:	1ee78e63          	beq	a5,a4,1778c <emdnorm+0x2d0>
   17594:	03500713          	li	a4,53
   17598:	1ce78a63          	beq	a5,a4,1776c <emdnorm+0x2b0>
   1759c:	00c00713          	li	a4,12
   175a0:	00e42423          	sw	a4,8(s0)
   175a4:	80010737          	lui	a4,0x80010
   175a8:	fff70713          	addi	a4,a4,-1 # 8000ffff <__global_pointer$+0x7ffe9d8f>
   175ac:	00e42a23          	sw	a4,20(s0)
   175b0:	00100713          	li	a4,1
   175b4:	00e41c23          	sh	a4,24(s0)
   175b8:	00b00713          	li	a4,11
   175bc:	00e42623          	sw	a4,12(s0)
   175c0:	00c42703          	lw	a4,12(s0)
   175c4:	01845683          	lhu	a3,24(s0)
   175c8:	00870713          	addi	a4,a4,8
   175cc:	00171713          	slli	a4,a4,0x1
   175d0:	00e40733          	add	a4,s0,a4
   175d4:	00d71523          	sh	a3,10(a4)
   175d8:	00f42023          	sw	a5,0(s0)
   175dc:	03204263          	bgtz	s2,17600 <emdnorm+0x144>
   175e0:	00442703          	lw	a4,4(s0)
   175e4:	09000793          	li	a5,144
   175e8:	00f70c63          	beq	a4,a5,17600 <emdnorm+0x144>
   175ec:	0184d783          	lhu	a5,24(s1)
   175f0:	00048513          	mv	a0,s1
   175f4:	0017f793          	andi	a5,a5,1
   175f8:	00f9e9b3          	or	s3,s3,a5
   175fc:	de0ff0ef          	jal	ra,16bdc <eshdn1>
   17600:	00842683          	lw	a3,8(s0)
   17604:	01445603          	lhu	a2,20(s0)
   17608:	00442583          	lw	a1,4(s0)
   1760c:	00169713          	slli	a4,a3,0x1
   17610:	00e48733          	add	a4,s1,a4
   17614:	00075783          	lhu	a5,0(a4)
   17618:	00c7f7b3          	and	a5,a5,a2
   1761c:	08f00613          	li	a2,143
   17620:	00b64a63          	blt	a2,a1,17634 <emdnorm+0x178>
   17624:	00168693          	addi	a3,a3,1
   17628:	00070613          	mv	a2,a4
   1762c:	00c00593          	li	a1,12
   17630:	16d5d263          	ble	a3,a1,17794 <emdnorm+0x2d8>
   17634:	01445683          	lhu	a3,20(s0)
   17638:	00075603          	lhu	a2,0(a4)
   1763c:	fff6c693          	not	a3,a3
   17640:	00c6f6b3          	and	a3,a3,a2
   17644:	00d71023          	sh	a3,0(a4)
   17648:	01645703          	lhu	a4,22(s0)
   1764c:	00f776b3          	and	a3,a4,a5
   17650:	02068463          	beqz	a3,17678 <emdnorm+0x1bc>
   17654:	16f71063          	bne	a4,a5,177b4 <emdnorm+0x2f8>
   17658:	14099c63          	bnez	s3,177b0 <emdnorm+0x2f4>
   1765c:	00c42783          	lw	a5,12(s0)
   17660:	01845703          	lhu	a4,24(s0)
   17664:	00179793          	slli	a5,a5,0x1
   17668:	00f487b3          	add	a5,s1,a5
   1766c:	0007d783          	lhu	a5,0(a5)
   17670:	00e7f7b3          	and	a5,a5,a4
   17674:	14079063          	bnez	a5,177b4 <emdnorm+0x2f8>
   17678:	01204c63          	bgtz	s2,17690 <emdnorm+0x1d4>
   1767c:	00442703          	lw	a4,4(s0)
   17680:	09000793          	li	a5,144
   17684:	00f70663          	beq	a4,a5,17690 <emdnorm+0x1d4>
   17688:	00048513          	mv	a0,s1
   1768c:	da0ff0ef          	jal	ra,16c2c <eshup1>
   17690:	0044d783          	lhu	a5,4(s1)
   17694:	00078863          	beqz	a5,176a4 <emdnorm+0x1e8>
   17698:	00048513          	mv	a0,s1
   1769c:	d40ff0ef          	jal	ra,16bdc <eshdn1>
   176a0:	00190913          	addi	s2,s2,1
   176a4:	000087b7          	lui	a5,0x8
   176a8:	00049c23          	sh	zero,24(s1)
   176ac:	ffe78793          	addi	a5,a5,-2 # 7ffe <main-0x8076>
   176b0:	1127da63          	ble	s2,a5,177c4 <emdnorm+0x308>
   176b4:	ffff87b7          	lui	a5,0xffff8
   176b8:	fff7c793          	not	a5,a5
   176bc:	00f49123          	sh	a5,2(s1)
   176c0:	00448793          	addi	a5,s1,4
   176c4:	01848493          	addi	s1,s1,24
   176c8:	00079023          	sh	zero,0(a5) # ffff8000 <__global_pointer$+0xfffd1d90>
   176cc:	00278793          	addi	a5,a5,2
   176d0:	fef49ce3          	bne	s1,a5,176c8 <emdnorm+0x20c>
   176d4:	e51ff06f          	j	17524 <emdnorm+0x68>
   176d8:	00248793          	addi	a5,s1,2
   176dc:	01a48493          	addi	s1,s1,26
   176e0:	00278793          	addi	a5,a5,2
   176e4:	fe079f23          	sh	zero,-2(a5)
   176e8:	fe979ce3          	bne	a5,s1,176e0 <emdnorm+0x224>
   176ec:	e39ff06f          	j	17524 <emdnorm+0x68>
   176f0:	00100993          	li	s3,1
   176f4:	e71ff06f          	j	17564 <emdnorm+0xa8>
   176f8:	04000713          	li	a4,64
   176fc:	02e78863          	beq	a5,a4,1772c <emdnorm+0x270>
   17700:	07100713          	li	a4,113
   17704:	e8e79ce3          	bne	a5,a4,1759c <emdnorm+0xe0>
   17708:	40008737          	lui	a4,0x40008
   1770c:	fff70713          	addi	a4,a4,-1 # 40007fff <__global_pointer$+0x3ffe1d8f>
   17710:	00a00693          	li	a3,10
   17714:	00e42a23          	sw	a4,20(s0)
   17718:	00d42423          	sw	a3,8(s0)
   1771c:	ffff8737          	lui	a4,0xffff8
   17720:	00e41c23          	sh	a4,24(s0)
   17724:	00d42623          	sw	a3,12(s0)
   17728:	e99ff06f          	j	175c0 <emdnorm+0x104>
   1772c:	00700713          	li	a4,7
   17730:	00e42423          	sw	a4,8(s0)
   17734:	80010737          	lui	a4,0x80010
   17738:	fff70713          	addi	a4,a4,-1 # 8000ffff <__global_pointer$+0x7ffe9d8f>
   1773c:	00e42a23          	sw	a4,20(s0)
   17740:	00100713          	li	a4,1
   17744:	00e41c23          	sh	a4,24(s0)
   17748:	00600713          	li	a4,6
   1774c:	e71ff06f          	j	175bc <emdnorm+0x100>
   17750:	00600693          	li	a3,6
   17754:	00800737          	lui	a4,0x800
   17758:	0ff70713          	addi	a4,a4,255 # 8000ff <__global_pointer$+0x7d9e8f>
   1775c:	00e42a23          	sw	a4,20(s0)
   17760:	00d42423          	sw	a3,8(s0)
   17764:	10000713          	li	a4,256
   17768:	fb9ff06f          	j	17720 <emdnorm+0x264>
   1776c:	04000737          	lui	a4,0x4000
   17770:	7ff70713          	addi	a4,a4,2047 # 40007ff <__global_pointer$+0x3fda58f>
   17774:	00600693          	li	a3,6
   17778:	00e42a23          	sw	a4,20(s0)
   1777c:	00001737          	lui	a4,0x1
   17780:	00d42423          	sw	a3,8(s0)
   17784:	80070713          	addi	a4,a4,-2048 # 800 <main-0xf874>
   17788:	f99ff06f          	j	17720 <emdnorm+0x264>
   1778c:	00400693          	li	a3,4
   17790:	fc5ff06f          	j	17754 <emdnorm+0x298>
   17794:	00265503          	lhu	a0,2(a2)
   17798:	00050463          	beqz	a0,177a0 <emdnorm+0x2e4>
   1779c:	0017e793          	ori	a5,a5,1
   177a0:	00061123          	sh	zero,2(a2)
   177a4:	00168693          	addi	a3,a3,1
   177a8:	00260613          	addi	a2,a2,2
   177ac:	e85ff06f          	j	17630 <emdnorm+0x174>
   177b0:	ec0a14e3          	bnez	s4,17678 <emdnorm+0x1bc>
   177b4:	00048593          	mv	a1,s1
   177b8:	01a40513          	addi	a0,s0,26
   177bc:	d60ff0ef          	jal	ra,16d1c <eaddm>
   177c0:	eb9ff06f          	j	17678 <emdnorm+0x1bc>
   177c4:	00095663          	bgez	s2,177d0 <emdnorm+0x314>
   177c8:	00049123          	sh	zero,2(s1)
   177cc:	d59ff06f          	j	17524 <emdnorm+0x68>
   177d0:	01249123          	sh	s2,2(s1)
   177d4:	d51ff06f          	j	17524 <emdnorm+0x68>

000177d8 <eiremain>:
   177d8:	fe010113          	addi	sp,sp,-32
   177dc:	01412423          	sw	s4,8(sp)
   177e0:	00255a03          	lhu	s4,2(a0)
   177e4:	00812c23          	sw	s0,24(sp)
   177e8:	00058413          	mv	s0,a1
   177ec:	00112e23          	sw	ra,28(sp)
   177f0:	00912a23          	sw	s1,20(sp)
   177f4:	01212823          	sw	s2,16(sp)
   177f8:	01512223          	sw	s5,4(sp)
   177fc:	01612023          	sw	s6,0(sp)
   17800:	00060913          	mv	s2,a2
   17804:	03460b13          	addi	s6,a2,52
   17808:	01312623          	sw	s3,12(sp)
   1780c:	00050a93          	mv	s5,a0
   17810:	a3dff0ef          	jal	ra,1724c <enormlz>
   17814:	00245483          	lhu	s1,2(s0)
   17818:	40aa0a33          	sub	s4,s4,a0
   1781c:	00040513          	mv	a0,s0
   17820:	a2dff0ef          	jal	ra,1724c <enormlz>
   17824:	40a484b3          	sub	s1,s1,a0
   17828:	000b0513          	mv	a0,s6
   1782c:	b38ff0ef          	jal	ra,16b64 <ecleaz>
   17830:	0544d263          	ble	s4,s1,17874 <eiremain+0x9c>
   17834:	00040513          	mv	a0,s0
   17838:	01812403          	lw	s0,24(sp)
   1783c:	01c12083          	lw	ra,28(sp)
   17840:	00c12983          	lw	s3,12(sp)
   17844:	00812a03          	lw	s4,8(sp)
   17848:	00412a83          	lw	s5,4(sp)
   1784c:	00012b03          	lw	s6,0(sp)
   17850:	00090793          	mv	a5,s2
   17854:	00048693          	mv	a3,s1
   17858:	01012903          	lw	s2,16(sp)
   1785c:	01412483          	lw	s1,20(sp)
   17860:	00000713          	li	a4,0
   17864:	00000613          	li	a2,0
   17868:	00000593          	li	a1,0
   1786c:	02010113          	addi	sp,sp,32
   17870:	c4dff06f          	j	174bc <emdnorm>
   17874:	00040593          	mv	a1,s0
   17878:	000a8513          	mv	a0,s5
   1787c:	b24ff0ef          	jal	ra,16ba0 <ecmpm>
   17880:	00000993          	li	s3,0
   17884:	00a04a63          	bgtz	a0,17898 <eiremain+0xc0>
   17888:	00040593          	mv	a1,s0
   1788c:	000a8513          	mv	a0,s5
   17890:	cc4ff0ef          	jal	ra,16d54 <esubm>
   17894:	00100993          	li	s3,1
   17898:	000b0513          	mv	a0,s6
   1789c:	b90ff0ef          	jal	ra,16c2c <eshup1>
   178a0:	04c95783          	lhu	a5,76(s2)
   178a4:	00040513          	mv	a0,s0
   178a8:	fff48493          	addi	s1,s1,-1
   178ac:	00f9e9b3          	or	s3,s3,a5
   178b0:	05391623          	sh	s3,76(s2)
   178b4:	b78ff0ef          	jal	ra,16c2c <eshup1>
   178b8:	f79ff06f          	j	17830 <eiremain+0x58>

000178bc <emul>:
   178bc:	f7010113          	addi	sp,sp,-144
   178c0:	08812423          	sw	s0,136(sp)
   178c4:	08912223          	sw	s1,132(sp)
   178c8:	07312e23          	sw	s3,124(sp)
   178cc:	07412c23          	sw	s4,120(sp)
   178d0:	08112623          	sw	ra,140(sp)
   178d4:	09212023          	sw	s2,128(sp)
   178d8:	07512a23          	sw	s5,116(sp)
   178dc:	07612823          	sw	s6,112(sp)
   178e0:	07712623          	sw	s7,108(sp)
   178e4:	07812423          	sw	s8,104(sp)
   178e8:	00050493          	mv	s1,a0
   178ec:	00058413          	mv	s0,a1
   178f0:	00060993          	mv	s3,a2
   178f4:	00068a13          	mv	s4,a3
   178f8:	d70ff0ef          	jal	ra,16e68 <eisnan>
   178fc:	04050063          	beqz	a0,1793c <emul+0x80>
   17900:	00098593          	mv	a1,s3
   17904:	00048513          	mv	a0,s1
   17908:	a38ff0ef          	jal	ra,16b40 <emov>
   1790c:	08c12083          	lw	ra,140(sp)
   17910:	08812403          	lw	s0,136(sp)
   17914:	08412483          	lw	s1,132(sp)
   17918:	08012903          	lw	s2,128(sp)
   1791c:	07c12983          	lw	s3,124(sp)
   17920:	07812a03          	lw	s4,120(sp)
   17924:	07412a83          	lw	s5,116(sp)
   17928:	07012b03          	lw	s6,112(sp)
   1792c:	06c12b83          	lw	s7,108(sp)
   17930:	06812c03          	lw	s8,104(sp)
   17934:	09010113          	addi	sp,sp,144
   17938:	00008067          	ret
   1793c:	00040513          	mv	a0,s0
   17940:	d28ff0ef          	jal	ra,16e68 <eisnan>
   17944:	00050863          	beqz	a0,17954 <emul+0x98>
   17948:	00098593          	mv	a1,s3
   1794c:	00040513          	mv	a0,s0
   17950:	fb9ff06f          	j	17908 <emul+0x4c>
   17954:	00048513          	mv	a0,s1
   17958:	f54ff0ef          	jal	ra,170ac <eisinf>
   1795c:	06051463          	bnez	a0,179c4 <emul+0x108>
   17960:	00040513          	mv	a0,s0
   17964:	f48ff0ef          	jal	ra,170ac <eisinf>
   17968:	00050c63          	beqz	a0,17980 <emul+0xc4>
   1796c:	000245b7          	lui	a1,0x24
   17970:	4e858593          	addi	a1,a1,1256 # 244e8 <ezero>
   17974:	00048513          	mv	a0,s1
   17978:	e2cff0ef          	jal	ra,16fa4 <ecmp>
   1797c:	04050e63          	beqz	a0,179d8 <emul+0x11c>
   17980:	00048513          	mv	a0,s1
   17984:	f28ff0ef          	jal	ra,170ac <eisinf>
   17988:	00051863          	bnez	a0,17998 <emul+0xdc>
   1798c:	00040513          	mv	a0,s0
   17990:	f1cff0ef          	jal	ra,170ac <eisinf>
   17994:	04050c63          	beqz	a0,179ec <emul+0x130>
   17998:	00048513          	mv	a0,s1
   1799c:	d00ff0ef          	jal	ra,16e9c <eisneg>
   179a0:	00050493          	mv	s1,a0
   179a4:	00040513          	mv	a0,s0
   179a8:	cf4ff0ef          	jal	ra,16e9c <eisneg>
   179ac:	02a48c63          	beq	s1,a0,179e4 <emul+0x128>
   179b0:	ffff87b7          	lui	a5,0xffff8
   179b4:	00f99923          	sh	a5,18(s3)
   179b8:	00098513          	mv	a0,s3
   179bc:	f24ff0ef          	jal	ra,170e0 <einfin.isra.2>
   179c0:	f4dff06f          	j	1790c <emul+0x50>
   179c4:	000245b7          	lui	a1,0x24
   179c8:	4e858593          	addi	a1,a1,1256 # 244e8 <ezero>
   179cc:	00040513          	mv	a0,s0
   179d0:	dd4ff0ef          	jal	ra,16fa4 <ecmp>
   179d4:	f80516e3          	bnez	a0,17960 <emul+0xa4>
   179d8:	00098513          	mv	a0,s3
   179dc:	949ff0ef          	jal	ra,17324 <enan.constprop.12>
   179e0:	f2dff06f          	j	1790c <emul+0x50>
   179e4:	00099923          	sh	zero,18(s3)
   179e8:	fd1ff06f          	j	179b8 <emul+0xfc>
   179ec:	00048513          	mv	a0,s1
   179f0:	00c10593          	addi	a1,sp,12
   179f4:	ce0ff0ef          	jal	ra,16ed4 <emovi>
   179f8:	00040513          	mv	a0,s0
   179fc:	02810593          	addi	a1,sp,40
   17a00:	cd4ff0ef          	jal	ra,16ed4 <emovi>
   17a04:	00e15403          	lhu	s0,14(sp)
   17a08:	02a15483          	lhu	s1,42(sp)
   17a0c:	0e040a63          	beqz	s0,17b00 <emul+0x244>
   17a10:	02a15783          	lhu	a5,42(sp)
   17a14:	00048b13          	mv	s6,s1
   17a18:	10078063          	beqz	a5,17b18 <emul+0x25c>
   17a1c:	02812783          	lw	a5,40(sp)
   17a20:	034a0913          	addi	s2,s4,52
   17a24:	04ea0b93          	addi	s7,s4,78
   17a28:	02fa2a23          	sw	a5,52(s4)
   17a2c:	038a0793          	addi	a5,s4,56
   17a30:	00079023          	sh	zero,0(a5) # ffff8000 <__global_pointer$+0xfffd1d90>
   17a34:	00278793          	addi	a5,a5,2
   17a38:	ff779ce3          	bne	a5,s7,17a30 <emul+0x174>
   17a3c:	00c10493          	addi	s1,sp,12
   17a40:	ff810c13          	addi	s8,sp,-8
   17a44:	00000a93          	li	s5,0
   17a48:	0184d503          	lhu	a0,24(s1)
   17a4c:	00050e63          	beqz	a0,17a68 <emul+0x1ac>
   17a50:	02810593          	addi	a1,sp,40
   17a54:	04410613          	addi	a2,sp,68
   17a58:	b34ff0ef          	jal	ra,16d8c <m16m>
   17a5c:	00090593          	mv	a1,s2
   17a60:	04410513          	addi	a0,sp,68
   17a64:	ab8ff0ef          	jal	ra,16d1c <eaddm>
   17a68:	04ca5783          	lhu	a5,76(s4)
   17a6c:	00090513          	mv	a0,s2
   17a70:	ffe48493          	addi	s1,s1,-2
   17a74:	00faeab3          	or	s5,s5,a5
   17a78:	a84ff0ef          	jal	ra,16cfc <eshdn6>
   17a7c:	fc9c16e3          	bne	s8,s1,17a48 <emul+0x18c>
   17a80:	00090593          	mv	a1,s2
   17a84:	02810793          	addi	a5,sp,40
   17a88:	0005d703          	lhu	a4,0(a1)
   17a8c:	00258593          	addi	a1,a1,2
   17a90:	00278793          	addi	a5,a5,2
   17a94:	fee79f23          	sh	a4,-2(a5)
   17a98:	ff7598e3          	bne	a1,s7,17a88 <emul+0x1cc>
   17a9c:	ffffc6b7          	lui	a3,0xffffc
   17aa0:	01640433          	add	s0,s0,s6
   17aa4:	00268693          	addi	a3,a3,2 # ffffc002 <__global_pointer$+0xfffd5d92>
   17aa8:	000a0793          	mv	a5,s4
   17aac:	04000713          	li	a4,64
   17ab0:	00d406b3          	add	a3,s0,a3
   17ab4:	00000613          	li	a2,0
   17ab8:	000a8593          	mv	a1,s5
   17abc:	02810513          	addi	a0,sp,40
   17ac0:	9fdff0ef          	jal	ra,174bc <emdnorm>
   17ac4:	00c15703          	lhu	a4,12(sp)
   17ac8:	02815783          	lhu	a5,40(sp)
   17acc:	06f71a63          	bne	a4,a5,17b40 <emul+0x284>
   17ad0:	02011423          	sh	zero,40(sp)
   17ad4:	00098593          	mv	a1,s3
   17ad8:	02810513          	addi	a0,sp,40
   17adc:	869ff0ef          	jal	ra,17344 <emovo.isra.6>
   17ae0:	e2dff06f          	j	1790c <emul+0x50>
   17ae4:	00278793          	addi	a5,a5,2
   17ae8:	0027d683          	lhu	a3,2(a5)
   17aec:	00068e63          	beqz	a3,17b08 <emul+0x24c>
   17af0:	00c10513          	addi	a0,sp,12
   17af4:	f58ff0ef          	jal	ra,1724c <enormlz>
   17af8:	40a00433          	neg	s0,a0
   17afc:	f15ff06f          	j	17a10 <emul+0x154>
   17b00:	00c10793          	addi	a5,sp,12
   17b04:	02010713          	addi	a4,sp,32
   17b08:	fce79ee3          	bne	a5,a4,17ae4 <emul+0x228>
   17b0c:	00098513          	mv	a0,s3
   17b10:	81cff0ef          	jal	ra,16b2c <eclear>
   17b14:	df9ff06f          	j	1790c <emul+0x50>
   17b18:	02810793          	addi	a5,sp,40
   17b1c:	03c10713          	addi	a4,sp,60
   17b20:	fee786e3          	beq	a5,a4,17b0c <emul+0x250>
   17b24:	00278793          	addi	a5,a5,2
   17b28:	0027d683          	lhu	a3,2(a5)
   17b2c:	fe068ae3          	beqz	a3,17b20 <emul+0x264>
   17b30:	02810513          	addi	a0,sp,40
   17b34:	f18ff0ef          	jal	ra,1724c <enormlz>
   17b38:	40a48b33          	sub	s6,s1,a0
   17b3c:	ee1ff06f          	j	17a1c <emul+0x160>
   17b40:	fff00793          	li	a5,-1
   17b44:	02f11423          	sh	a5,40(sp)
   17b48:	f8dff06f          	j	17ad4 <emul+0x218>

00017b4c <ediv>:
   17b4c:	f7010113          	addi	sp,sp,-144
   17b50:	08812423          	sw	s0,136(sp)
   17b54:	08912223          	sw	s1,132(sp)
   17b58:	09212023          	sw	s2,128(sp)
   17b5c:	07412c23          	sw	s4,120(sp)
   17b60:	08112623          	sw	ra,140(sp)
   17b64:	07312e23          	sw	s3,124(sp)
   17b68:	07512a23          	sw	s5,116(sp)
   17b6c:	07612823          	sw	s6,112(sp)
   17b70:	07712623          	sw	s7,108(sp)
   17b74:	07812423          	sw	s8,104(sp)
   17b78:	07912223          	sw	s9,100(sp)
   17b7c:	00050493          	mv	s1,a0
   17b80:	00058413          	mv	s0,a1
   17b84:	00060913          	mv	s2,a2
   17b88:	00068a13          	mv	s4,a3
   17b8c:	adcff0ef          	jal	ra,16e68 <eisnan>
   17b90:	04050263          	beqz	a0,17bd4 <ediv+0x88>
   17b94:	00090593          	mv	a1,s2
   17b98:	00048513          	mv	a0,s1
   17b9c:	fa5fe0ef          	jal	ra,16b40 <emov>
   17ba0:	08c12083          	lw	ra,140(sp)
   17ba4:	08812403          	lw	s0,136(sp)
   17ba8:	08412483          	lw	s1,132(sp)
   17bac:	08012903          	lw	s2,128(sp)
   17bb0:	07c12983          	lw	s3,124(sp)
   17bb4:	07812a03          	lw	s4,120(sp)
   17bb8:	07412a83          	lw	s5,116(sp)
   17bbc:	07012b03          	lw	s6,112(sp)
   17bc0:	06c12b83          	lw	s7,108(sp)
   17bc4:	06812c03          	lw	s8,104(sp)
   17bc8:	06412c83          	lw	s9,100(sp)
   17bcc:	09010113          	addi	sp,sp,144
   17bd0:	00008067          	ret
   17bd4:	00040513          	mv	a0,s0
   17bd8:	a90ff0ef          	jal	ra,16e68 <eisnan>
   17bdc:	00050863          	beqz	a0,17bec <ediv+0xa0>
   17be0:	00090593          	mv	a1,s2
   17be4:	00040513          	mv	a0,s0
   17be8:	fb5ff06f          	j	17b9c <ediv+0x50>
   17bec:	000249b7          	lui	s3,0x24
   17bf0:	4e898593          	addi	a1,s3,1256 # 244e8 <ezero>
   17bf4:	00048513          	mv	a0,s1
   17bf8:	bacff0ef          	jal	ra,16fa4 <ecmp>
   17bfc:	04050663          	beqz	a0,17c48 <ediv+0xfc>
   17c00:	00048513          	mv	a0,s1
   17c04:	ca8ff0ef          	jal	ra,170ac <eisinf>
   17c08:	00050993          	mv	s3,a0
   17c0c:	00040513          	mv	a0,s0
   17c10:	c9cff0ef          	jal	ra,170ac <eisinf>
   17c14:	04099863          	bnez	s3,17c64 <ediv+0x118>
   17c18:	04050e63          	beqz	a0,17c74 <ediv+0x128>
   17c1c:	00048513          	mv	a0,s1
   17c20:	a7cff0ef          	jal	ra,16e9c <eisneg>
   17c24:	00050493          	mv	s1,a0
   17c28:	00040513          	mv	a0,s0
   17c2c:	a70ff0ef          	jal	ra,16e9c <eisneg>
   17c30:	20a48e63          	beq	s1,a0,17e4c <ediv+0x300>
   17c34:	ffff87b7          	lui	a5,0xffff8
   17c38:	00f91923          	sh	a5,18(s2)
   17c3c:	00090513          	mv	a0,s2
   17c40:	ca0ff0ef          	jal	ra,170e0 <einfin.isra.2>
   17c44:	f5dff06f          	j	17ba0 <ediv+0x54>
   17c48:	4e898593          	addi	a1,s3,1256
   17c4c:	00040513          	mv	a0,s0
   17c50:	b54ff0ef          	jal	ra,16fa4 <ecmp>
   17c54:	fa0516e3          	bnez	a0,17c00 <ediv+0xb4>
   17c58:	00090513          	mv	a0,s2
   17c5c:	ec8ff0ef          	jal	ra,17324 <enan.constprop.12>
   17c60:	f41ff06f          	j	17ba0 <ediv+0x54>
   17c64:	fe051ae3          	bnez	a0,17c58 <ediv+0x10c>
   17c68:	00090513          	mv	a0,s2
   17c6c:	ec1fe0ef          	jal	ra,16b2c <eclear>
   17c70:	f31ff06f          	j	17ba0 <ediv+0x54>
   17c74:	00048513          	mv	a0,s1
   17c78:	00c10593          	addi	a1,sp,12
   17c7c:	a58ff0ef          	jal	ra,16ed4 <emovi>
   17c80:	00040513          	mv	a0,s0
   17c84:	02810593          	addi	a1,sp,40
   17c88:	a4cff0ef          	jal	ra,16ed4 <emovi>
   17c8c:	02a15483          	lhu	s1,42(sp)
   17c90:	00e15403          	lhu	s0,14(sp)
   17c94:	14048e63          	beqz	s1,17df0 <ediv+0x2a4>
   17c98:	00e15783          	lhu	a5,14(sp)
   17c9c:	00040c93          	mv	s9,s0
   17ca0:	18078a63          	beqz	a5,17e34 <ediv+0x2e8>
   17ca4:	02812703          	lw	a4,40(sp)
   17ca8:	038a0793          	addi	a5,s4,56
   17cac:	04ea0a93          	addi	s5,s4,78
   17cb0:	02ea2a23          	sw	a4,52(s4)
   17cb4:	00078993          	mv	s3,a5
   17cb8:	00278793          	addi	a5,a5,2 # ffff8002 <__global_pointer$+0xfffd1d92>
   17cbc:	fe079f23          	sh	zero,-2(a5)
   17cc0:	ff579ce3          	bne	a5,s5,17cb8 <ediv+0x16c>
   17cc4:	02810513          	addi	a0,sp,40
   17cc8:	f15fe0ef          	jal	ra,16bdc <eshdn1>
   17ccc:	01215b03          	lhu	s6,18(sp)
   17cd0:	00010c37          	lui	s8,0x10
   17cd4:	fffc0c13          	addi	s8,s8,-1 # ffff <main-0x75>
   17cd8:	010b1b93          	slli	s7,s6,0x10
   17cdc:	416b8bb3          	sub	s7,s7,s6
   17ce0:	02c15503          	lhu	a0,44(sp)
   17ce4:	02e15783          	lhu	a5,46(sp)
   17ce8:	000c0413          	mv	s0,s8
   17cec:	01051513          	slli	a0,a0,0x10
   17cf0:	00f50533          	add	a0,a0,a5
   17cf4:	00abea63          	bltu	s7,a0,17d08 <ediv+0x1bc>
   17cf8:	000b0593          	mv	a1,s6
   17cfc:	db8fb0ef          	jal	ra,132b4 <__udivsi3>
   17d00:	01051413          	slli	s0,a0,0x10
   17d04:	01045413          	srli	s0,s0,0x10
   17d08:	00c10593          	addi	a1,sp,12
   17d0c:	00040513          	mv	a0,s0
   17d10:	04410613          	addi	a2,sp,68
   17d14:	878ff0ef          	jal	ra,16d8c <m16m>
   17d18:	02810593          	addi	a1,sp,40
   17d1c:	04410513          	addi	a0,sp,68
   17d20:	e81fe0ef          	jal	ra,16ba0 <ecmpm>
   17d24:	02a05663          	blez	a0,17d50 <ediv+0x204>
   17d28:	04410593          	addi	a1,sp,68
   17d2c:	00c10513          	addi	a0,sp,12
   17d30:	824ff0ef          	jal	ra,16d54 <esubm>
   17d34:	02810593          	addi	a1,sp,40
   17d38:	04410513          	addi	a0,sp,68
   17d3c:	e65fe0ef          	jal	ra,16ba0 <ecmpm>
   17d40:	10a04a63          	bgtz	a0,17e54 <ediv+0x308>
   17d44:	fff40413          	addi	s0,s0,-1
   17d48:	01041413          	slli	s0,s0,0x10
   17d4c:	01045413          	srli	s0,s0,0x10
   17d50:	02810593          	addi	a1,sp,40
   17d54:	04410513          	addi	a0,sp,68
   17d58:	ffdfe0ef          	jal	ra,16d54 <esubm>
   17d5c:	02810513          	addi	a0,sp,40
   17d60:	00899023          	sh	s0,0(s3)
   17d64:	00298993          	addi	s3,s3,2
   17d68:	f75fe0ef          	jal	ra,16cdc <eshup6>
   17d6c:	f73a9ae3          	bne	s5,s3,17ce0 <ediv+0x194>
   17d70:	02810713          	addi	a4,sp,40
   17d74:	03e10693          	addi	a3,sp,62
   17d78:	00070793          	mv	a5,a4
   17d7c:	00000593          	li	a1,0
   17d80:	0047d603          	lhu	a2,4(a5)
   17d84:	00278793          	addi	a5,a5,2
   17d88:	00c5e5b3          	or	a1,a1,a2
   17d8c:	fef69ae3          	bne	a3,a5,17d80 <ediv+0x234>
   17d90:	00b035b3          	snez	a1,a1
   17d94:	034a0793          	addi	a5,s4,52
   17d98:	0007d683          	lhu	a3,0(a5)
   17d9c:	00278793          	addi	a5,a5,2
   17da0:	00270713          	addi	a4,a4,2
   17da4:	fed71f23          	sh	a3,-2(a4)
   17da8:	fefa98e3          	bne	s5,a5,17d98 <ediv+0x24c>
   17dac:	000046b7          	lui	a3,0x4
   17db0:	419484b3          	sub	s1,s1,s9
   17db4:	fff68693          	addi	a3,a3,-1 # 3fff <main-0xc075>
   17db8:	000a0793          	mv	a5,s4
   17dbc:	04000713          	li	a4,64
   17dc0:	00d486b3          	add	a3,s1,a3
   17dc4:	00000613          	li	a2,0
   17dc8:	02810513          	addi	a0,sp,40
   17dcc:	ef0ff0ef          	jal	ra,174bc <emdnorm>
   17dd0:	00c15703          	lhu	a4,12(sp)
   17dd4:	02815783          	lhu	a5,40(sp)
   17dd8:	08f71c63          	bne	a4,a5,17e70 <ediv+0x324>
   17ddc:	02011423          	sh	zero,40(sp)
   17de0:	00090593          	mv	a1,s2
   17de4:	02810513          	addi	a0,sp,40
   17de8:	d5cff0ef          	jal	ra,17344 <emovo.isra.6>
   17dec:	db5ff06f          	j	17ba0 <ediv+0x54>
   17df0:	02810793          	addi	a5,sp,40
   17df4:	03c10713          	addi	a4,sp,60
   17df8:	e6e788e3          	beq	a5,a4,17c68 <ediv+0x11c>
   17dfc:	00278793          	addi	a5,a5,2
   17e00:	0027d683          	lhu	a3,2(a5)
   17e04:	fe068ae3          	beqz	a3,17df8 <ediv+0x2ac>
   17e08:	02810513          	addi	a0,sp,40
   17e0c:	c40ff0ef          	jal	ra,1724c <enormlz>
   17e10:	40a004b3          	neg	s1,a0
   17e14:	e85ff06f          	j	17c98 <ediv+0x14c>
   17e18:	00278793          	addi	a5,a5,2
   17e1c:	0027d683          	lhu	a3,2(a5)
   17e20:	00068e63          	beqz	a3,17e3c <ediv+0x2f0>
   17e24:	00c10513          	addi	a0,sp,12
   17e28:	c24ff0ef          	jal	ra,1724c <enormlz>
   17e2c:	40a40cb3          	sub	s9,s0,a0
   17e30:	e75ff06f          	j	17ca4 <ediv+0x158>
   17e34:	00c10793          	addi	a5,sp,12
   17e38:	02010713          	addi	a4,sp,32
   17e3c:	fce79ee3          	bne	a5,a4,17e18 <ediv+0x2cc>
   17e40:	00c15703          	lhu	a4,12(sp)
   17e44:	02815783          	lhu	a5,40(sp)
   17e48:	def716e3          	bne	a4,a5,17c34 <ediv+0xe8>
   17e4c:	00091923          	sh	zero,18(s2)
   17e50:	dedff06f          	j	17c3c <ediv+0xf0>
   17e54:	ffe40413          	addi	s0,s0,-2
   17e58:	01041413          	slli	s0,s0,0x10
   17e5c:	04410593          	addi	a1,sp,68
   17e60:	00c10513          	addi	a0,sp,12
   17e64:	01045413          	srli	s0,s0,0x10
   17e68:	eedfe0ef          	jal	ra,16d54 <esubm>
   17e6c:	ee5ff06f          	j	17d50 <ediv+0x204>
   17e70:	fff00793          	li	a5,-1
   17e74:	02f11423          	sh	a5,40(sp)
   17e78:	f69ff06f          	j	17de0 <ediv+0x294>

00017e7c <_ldtoa_r>:
   17e7c:	0005ae03          	lw	t3,0(a1)
   17e80:	0045a303          	lw	t1,4(a1)
   17e84:	0085a883          	lw	a7,8(a1)
   17e88:	00c5a583          	lw	a1,12(a1)
   17e8c:	e2010113          	addi	sp,sp,-480
   17e90:	1c812c23          	sw	s0,472(sp)
   17e94:	02b12623          	sw	a1,44(sp)
   17e98:	00078413          	mv	s0,a5
   17e9c:	04052583          	lw	a1,64(a0)
   17ea0:	fff00793          	li	a5,-1
   17ea4:	14f12823          	sw	a5,336(sp)
   17ea8:	09000793          	li	a5,144
   17eac:	1d412423          	sw	s4,456(sp)
   17eb0:	1d612023          	sw	s6,448(sp)
   17eb4:	1b912a23          	sw	s9,436(sp)
   17eb8:	1ba12823          	sw	s10,432(sp)
   17ebc:	1c112e23          	sw	ra,476(sp)
   17ec0:	1c912a23          	sw	s1,468(sp)
   17ec4:	1d212823          	sw	s2,464(sp)
   17ec8:	1d312623          	sw	s3,460(sp)
   17ecc:	1d512223          	sw	s5,452(sp)
   17ed0:	1b712e23          	sw	s7,444(sp)
   17ed4:	1b812c23          	sw	s8,440(sp)
   17ed8:	1bb12623          	sw	s11,428(sp)
   17edc:	01012823          	sw	a6,16(sp)
   17ee0:	03c12023          	sw	t3,32(sp)
   17ee4:	02612223          	sw	t1,36(sp)
   17ee8:	03112423          	sw	a7,40(sp)
   17eec:	14f12a23          	sw	a5,340(sp)
   17ef0:	00050a13          	mv	s4,a0
   17ef4:	00060b13          	mv	s6,a2
   17ef8:	00068c93          	mv	s9,a3
   17efc:	00070d13          	mv	s10,a4
   17f00:	02058063          	beqz	a1,17f20 <_ldtoa_r+0xa4>
   17f04:	04452783          	lw	a5,68(a0)
   17f08:	00100713          	li	a4,1
   17f0c:	00f71733          	sll	a4,a4,a5
   17f10:	00f5a223          	sw	a5,4(a1)
   17f14:	00e5a423          	sw	a4,8(a1)
   17f18:	728010ef          	jal	ra,19640 <_Bfree>
   17f1c:	040a2023          	sw	zero,64(s4)
   17f20:	02010513          	addi	a0,sp,32
   17f24:	05010593          	addi	a1,sp,80
   17f28:	c8cff0ef          	jal	ra,173b4 <e113toe.isra.8>
   17f2c:	05010513          	addi	a0,sp,80
   17f30:	f6dfe0ef          	jal	ra,16e9c <eisneg>
   17f34:	0e050063          	beqz	a0,18014 <_ldtoa_r+0x198>
   17f38:	00100793          	li	a5,1
   17f3c:	00f42023          	sw	a5,0(s0)
   17f40:	00300793          	li	a5,3
   17f44:	0cfb0c63          	beq	s6,a5,1801c <_ldtoa_r+0x1a0>
   17f48:	01400993          	li	s3,20
   17f4c:	000b0a63          	beqz	s6,17f60 <_ldtoa_r+0xe4>
   17f50:	fffc8993          	addi	s3,s9,-1
   17f54:	02a00793          	li	a5,42
   17f58:	0137d463          	ble	s3,a5,17f60 <_ldtoa_r+0xe4>
   17f5c:	02a00993          	li	s3,42
   17f60:	15412783          	lw	a5,340(sp)
   17f64:	05010513          	addi	a0,sp,80
   17f68:	00f12a23          	sw	a5,20(sp)
   17f6c:	efdfe0ef          	jal	ra,16e68 <eisnan>
   17f70:	00050b93          	mv	s7,a0
   17f74:	0a050863          	beqz	a0,18024 <_ldtoa_r+0x1a8>
   17f78:	000245b7          	lui	a1,0x24
   17f7c:	73c58593          	addi	a1,a1,1852 # 2473c <emtens+0x104>
   17f80:	11410513          	addi	a0,sp,276
   17f84:	00002437          	lui	s0,0x2
   17f88:	3ed020ef          	jal	ra,1ab74 <sprintf>
   17f8c:	70f40413          	addi	s0,s0,1807 # 270f <main-0xd965>
   17f90:	01412783          	lw	a5,20(sp)
   17f94:	05010513          	addi	a0,sp,80
   17f98:	16812023          	sw	s0,352(sp)
   17f9c:	14f12a23          	sw	a5,340(sp)
   17fa0:	90cff0ef          	jal	ra,170ac <eisinf>
   17fa4:	11410913          	addi	s2,sp,276
   17fa8:	00051863          	bnez	a0,17fb8 <_ldtoa_r+0x13c>
   17fac:	05010513          	addi	a0,sp,80
   17fb0:	eb9fe0ef          	jal	ra,16e68 <eisnan>
   17fb4:	14050ce3          	beqz	a0,1890c <_ldtoa_r+0xa90>
   17fb8:	000027b7          	lui	a5,0x2
   17fbc:	70f78793          	addi	a5,a5,1807 # 270f <main-0xd965>
   17fc0:	00fd2023          	sw	a5,0(s10)
   17fc4:	00090793          	mv	a5,s2
   17fc8:	02000613          	li	a2,32
   17fcc:	02d00693          	li	a3,45
   17fd0:	0007c703          	lbu	a4,0(a5)
   17fd4:	18c70ae3          	beq	a4,a2,18968 <_ldtoa_r+0xaec>
   17fd8:	18d708e3          	beq	a4,a3,18968 <_ldtoa_r+0xaec>
   17fdc:	00090493          	mv	s1,s2
   17fe0:	00178793          	addi	a5,a5,1
   17fe4:	fff7c703          	lbu	a4,-1(a5)
   17fe8:	00148693          	addi	a3,s1,1
   17fec:	fee68fa3          	sb	a4,-1(a3)
   17ff0:	180710e3          	bnez	a4,18970 <_ldtoa_r+0xaf4>
   17ff4:	00200713          	li	a4,2
   17ff8:	00100793          	li	a5,1
   17ffc:	00eb0863          	beq	s6,a4,1800c <_ldtoa_r+0x190>
   18000:	00098793          	mv	a5,s3
   18004:	0089d463          	ble	s0,s3,1800c <_ldtoa_r+0x190>
   18008:	00040793          	mv	a5,s0
   1800c:	03000693          	li	a3,48
   18010:	1710006f          	j	18980 <_ldtoa_r+0xb04>
   18014:	00042023          	sw	zero,0(s0)
   18018:	f29ff06f          	j	17f40 <_ldtoa_r+0xc4>
   1801c:	000c8993          	mv	s3,s9
   18020:	f35ff06f          	j	17f54 <_ldtoa_r+0xd8>
   18024:	09000793          	li	a5,144
   18028:	06c10593          	addi	a1,sp,108
   1802c:	05010513          	addi	a0,sp,80
   18030:	14f12a23          	sw	a5,340(sp)
   18034:	b0dfe0ef          	jal	ra,16b40 <emov>
   18038:	07e15783          	lhu	a5,126(sp)
   1803c:	00012023          	sw	zero,0(sp)
   18040:	01079713          	slli	a4,a5,0x10
   18044:	41075713          	srai	a4,a4,0x10
   18048:	00075e63          	bgez	a4,18064 <_ldtoa_r+0x1e8>
   1804c:	01179793          	slli	a5,a5,0x11
   18050:	0117d793          	srli	a5,a5,0x11
   18054:	06f11f23          	sh	a5,126(sp)
   18058:	000107b7          	lui	a5,0x10
   1805c:	fff78793          	addi	a5,a5,-1 # ffff <main-0x75>
   18060:	00f12023          	sw	a5,0(sp)
   18064:	00024437          	lui	s0,0x24
   18068:	4e840513          	addi	a0,s0,1256 # 244e8 <ezero>
   1806c:	08810593          	addi	a1,sp,136
   18070:	11850513          	addi	a0,a0,280
   18074:	acdfe0ef          	jal	ra,16b40 <emov>
   18078:	07e15703          	lhu	a4,126(sp)
   1807c:	00024937          	lui	s2,0x24
   18080:	00812423          	sw	s0,8(sp)
   18084:	4e840493          	addi	s1,s0,1256
   18088:	60090913          	addi	s2,s2,1536 # 24600 <eone>
   1808c:	1c0710e3          	bnez	a4,18a4c <_ldtoa_r+0xbd0>
   18090:	06c10793          	addi	a5,sp,108
   18094:	07e10713          	addi	a4,sp,126
   18098:	0007d683          	lhu	a3,0(a5)
   1809c:	10069463          	bnez	a3,181a4 <_ldtoa_r+0x328>
   180a0:	00278793          	addi	a5,a5,2
   180a4:	fef71ae3          	bne	a4,a5,18098 <_ldtoa_r+0x21c>
   180a8:	00000413          	li	s0,0
   180ac:	0c010593          	addi	a1,sp,192
   180b0:	08810513          	addi	a0,sp,136
   180b4:	e21fe0ef          	jal	ra,16ed4 <emovi>
   180b8:	08810593          	addi	a1,sp,136
   180bc:	0c010513          	addi	a0,sp,192
   180c0:	ab9fe0ef          	jal	ra,16b78 <emovz>
   180c4:	0c010593          	addi	a1,sp,192
   180c8:	06c10513          	addi	a0,sp,108
   180cc:	e09fe0ef          	jal	ra,16ed4 <emovi>
   180d0:	06c10593          	addi	a1,sp,108
   180d4:	0c010513          	addi	a0,sp,192
   180d8:	aa1fe0ef          	jal	ra,16b78 <emovz>
   180dc:	15010613          	addi	a2,sp,336
   180e0:	06c10593          	addi	a1,sp,108
   180e4:	08810513          	addi	a0,sp,136
   180e8:	ef0ff0ef          	jal	ra,177d8 <eiremain>
   180ec:	19c15483          	lhu	s1,412(sp)
   180f0:	00049c63          	bnez	s1,18108 <_ldtoa_r+0x28c>
   180f4:	00812783          	lw	a5,8(sp)
   180f8:	06c10513          	addi	a0,sp,108
   180fc:	4e878593          	addi	a1,a5,1256
   18100:	ea5fe0ef          	jal	ra,16fa4 <ecmp>
   18104:	66051a63          	bnez	a0,18778 <_ldtoa_r+0x8fc>
   18108:	00012783          	lw	a5,0(sp)
   1810c:	6a078c63          	beqz	a5,187c4 <_ldtoa_r+0x948>
   18110:	02d00793          	li	a5,45
   18114:	10f10a23          	sb	a5,276(sp)
   18118:	00300793          	li	a5,3
   1811c:	00098913          	mv	s2,s3
   18120:	00fb1a63          	bne	s6,a5,18134 <_ldtoa_r+0x2b8>
   18124:	00898933          	add	s2,s3,s0
   18128:	02a00793          	li	a5,42
   1812c:	0127d463          	ble	s2,a5,18134 <_ldtoa_r+0x2b8>
   18130:	02a00913          	li	s2,42
   18134:	00a00793          	li	a5,10
   18138:	68f49a63          	bne	s1,a5,187cc <_ldtoa_r+0x950>
   1813c:	03100793          	li	a5,49
   18140:	10f10aa3          	sb	a5,277(sp)
   18144:	02e00793          	li	a5,46
   18148:	10f10b23          	sb	a5,278(sp)
   1814c:	11710493          	addi	s1,sp,279
   18150:	01205a63          	blez	s2,18164 <_ldtoa_r+0x2e8>
   18154:	03000793          	li	a5,48
   18158:	10f10ba3          	sb	a5,279(sp)
   1815c:	fff90913          	addi	s2,s2,-1
   18160:	11810493          	addi	s1,sp,280
   18164:	00140413          	addi	s0,s0,1
   18168:	66095c63          	bgez	s2,187e0 <_ldtoa_r+0x964>
   1816c:	000245b7          	lui	a1,0x24
   18170:	00040613          	mv	a2,s0
   18174:	76058593          	addi	a1,a1,1888 # 24760 <emtens+0x128>
   18178:	00048513          	mv	a0,s1
   1817c:	1f9020ef          	jal	ra,1ab74 <sprintf>
   18180:	e11ff06f          	j	17f90 <_ldtoa_r+0x114>
   18184:	000245b7          	lui	a1,0x24
   18188:	75058593          	addi	a1,a1,1872 # 24750 <emtens+0x118>
   1818c:	df5ff06f          	j	17f80 <_ldtoa_r+0x104>
   18190:	07c11783          	lh	a5,124(sp)
   18194:	0007c863          	bltz	a5,181a4 <_ldtoa_r+0x328>
   18198:	000245b7          	lui	a1,0x24
   1819c:	75c58593          	addi	a1,a1,1884 # 2475c <emtens+0x124>
   181a0:	de1ff06f          	j	17f80 <_ldtoa_r+0x104>
   181a4:	06c10593          	addi	a1,sp,108
   181a8:	00090513          	mv	a0,s2
   181ac:	df9fe0ef          	jal	ra,16fa4 <ecmp>
   181b0:	ee050ce3          	beqz	a0,180a8 <_ldtoa_r+0x22c>
   181b4:	42055863          	bgez	a0,185e4 <_ldtoa_r+0x768>
   181b8:	0a410593          	addi	a1,sp,164
   181bc:	06c10513          	addi	a0,sp,108
   181c0:	981fe0ef          	jal	ra,16b40 <emov>
   181c4:	000047b7          	lui	a5,0x4
   181c8:	08e78793          	addi	a5,a5,142 # 408e <main-0xbfe6>
   181cc:	0af11b23          	sh	a5,182(sp)
   181d0:	01000793          	li	a5,16
   181d4:	00f12223          	sw	a5,4(sp)
   181d8:	000087b7          	lui	a5,0x8
   181dc:	fff78793          	addi	a5,a5,-1 # 7fff <main-0x8075>
   181e0:	00f12c23          	sw	a5,24(sp)
   181e4:	ffffc7b7          	lui	a5,0xffffc
   181e8:	00278793          	addi	a5,a5,2 # ffffc002 <__global_pointer$+0xfffd5d92>
   181ec:	00000413          	li	s0,0
   181f0:	0b448c13          	addi	s8,s1,180
   181f4:	00f12e23          	sw	a5,28(sp)
   181f8:	15010693          	addi	a3,sp,336
   181fc:	08810613          	addi	a2,sp,136
   18200:	0a410593          	addi	a1,sp,164
   18204:	000c0513          	mv	a0,s8
   18208:	945ff0ef          	jal	ra,17b4c <ediv>
   1820c:	03c10593          	addi	a1,sp,60
   18210:	08810513          	addi	a0,sp,136
   18214:	92dfe0ef          	jal	ra,16b40 <emov>
   18218:	01812783          	lw	a5,24(sp)
   1821c:	04e15a83          	lhu	s5,78(sp)
   18220:	00fafdb3          	and	s11,s5,a5
   18224:	01c12783          	lw	a5,28(sp)
   18228:	00fd87b3          	add	a5,s11,a5
   1822c:	04f04a63          	bgtz	a5,18280 <_ldtoa_r+0x404>
   18230:	0c010513          	addi	a0,sp,192
   18234:	8f9fe0ef          	jal	ra,16b2c <eclear>
   18238:	010a9a93          	slli	s5,s5,0x10
   1823c:	410ada93          	srai	s5,s5,0x10
   18240:	100ad263          	bgez	s5,18344 <_ldtoa_r+0x4c8>
   18244:	00000793          	li	a5,0
   18248:	03c10713          	addi	a4,sp,60
   1824c:	00f70733          	add	a4,a4,a5
   18250:	00075683          	lhu	a3,0(a4)
   18254:	0c010713          	addi	a4,sp,192
   18258:	00f70733          	add	a4,a4,a5
   1825c:	00075703          	lhu	a4,0(a4)
   18260:	36e68a63          	beq	a3,a4,185d4 <_ldtoa_r+0x758>
   18264:	00090513          	mv	a0,s2
   18268:	c01fe0ef          	jal	ra,16e68 <eisnan>
   1826c:	08050063          	beqz	a0,182ec <_ldtoa_r+0x470>
   18270:	0c010593          	addi	a1,sp,192
   18274:	00090513          	mv	a0,s2
   18278:	8c9fe0ef          	jal	ra,16b40 <emov>
   1827c:	0c80006f          	j	18344 <_ldtoa_r+0x4c8>
   18280:	09000d93          	li	s11,144
   18284:	40fd8db3          	sub	s11,s11,a5
   18288:	0c010593          	addi	a1,sp,192
   1828c:	03c10513          	addi	a0,sp,60
   18290:	8b1fe0ef          	jal	ra,16b40 <emov>
   18294:	0bb05863          	blez	s11,18344 <_ldtoa_r+0x4c8>
   18298:	0c010713          	addi	a4,sp,192
   1829c:	000d8793          	mv	a5,s11
   182a0:	00f00693          	li	a3,15
   182a4:	02f6cc63          	blt	a3,a5,182dc <_ldtoa_r+0x460>
   182a8:	004dd713          	srli	a4,s11,0x4
   182ac:	00171793          	slli	a5,a4,0x1
   182b0:	00471713          	slli	a4,a4,0x4
   182b4:	40ed8db3          	sub	s11,s11,a4
   182b8:	0c010693          	addi	a3,sp,192
   182bc:	001d9d93          	slli	s11,s11,0x1
   182c0:	00f687b3          	add	a5,a3,a5
   182c4:	01b48db3          	add	s11,s1,s11
   182c8:	0007d683          	lhu	a3,0(a5)
   182cc:	12cdd703          	lhu	a4,300(s11)
   182d0:	00d77733          	and	a4,a4,a3
   182d4:	00e79023          	sh	a4,0(a5)
   182d8:	f61ff06f          	j	18238 <_ldtoa_r+0x3bc>
   182dc:	00071023          	sh	zero,0(a4)
   182e0:	ff078793          	addi	a5,a5,-16
   182e4:	00270713          	addi	a4,a4,2
   182e8:	fbdff06f          	j	182a4 <_ldtoa_r+0x428>
   182ec:	0c010513          	addi	a0,sp,192
   182f0:	b79fe0ef          	jal	ra,16e68 <eisnan>
   182f4:	00050863          	beqz	a0,18304 <_ldtoa_r+0x488>
   182f8:	0c010593          	addi	a1,sp,192
   182fc:	00058513          	mv	a0,a1
   18300:	f79ff06f          	j	18278 <_ldtoa_r+0x3fc>
   18304:	00090513          	mv	a0,s2
   18308:	da5fe0ef          	jal	ra,170ac <eisinf>
   1830c:	00050a93          	mv	s5,a0
   18310:	0c010513          	addi	a0,sp,192
   18314:	d99fe0ef          	jal	ra,170ac <eisinf>
   18318:	00050d93          	mv	s11,a0
   1831c:	140a8463          	beqz	s5,18464 <_ldtoa_r+0x5e8>
   18320:	10050c63          	beqz	a0,18438 <_ldtoa_r+0x5bc>
   18324:	00090513          	mv	a0,s2
   18328:	b75fe0ef          	jal	ra,16e9c <eisneg>
   1832c:	00050a93          	mv	s5,a0
   18330:	0c010513          	addi	a0,sp,192
   18334:	b69fe0ef          	jal	ra,16e9c <eisneg>
   18338:	10aa9063          	bne	s5,a0,18438 <_ldtoa_r+0x5bc>
   1833c:	0c010513          	addi	a0,sp,192
   18340:	fe5fe0ef          	jal	ra,17324 <enan.constprop.12>
   18344:	00000793          	li	a5,0
   18348:	08810713          	addi	a4,sp,136
   1834c:	00f70733          	add	a4,a4,a5
   18350:	00075683          	lhu	a3,0(a4)
   18354:	0c010713          	addi	a4,sp,192
   18358:	00f70733          	add	a4,a4,a5
   1835c:	00075703          	lhu	a4,0(a4)
   18360:	02e69263          	bne	a3,a4,18384 <_ldtoa_r+0x508>
   18364:	00278793          	addi	a5,a5,2
   18368:	01200713          	li	a4,18
   1836c:	fce79ee3          	bne	a5,a4,18348 <_ldtoa_r+0x4cc>
   18370:	0a410593          	addi	a1,sp,164
   18374:	08810513          	addi	a0,sp,136
   18378:	fc8fe0ef          	jal	ra,16b40 <emov>
   1837c:	00412783          	lw	a5,4(sp)
   18380:	00f40433          	add	s0,s0,a5
   18384:	00412783          	lw	a5,4(sp)
   18388:	014c0c13          	addi	s8,s8,20
   1838c:	01448d93          	addi	s11,s1,20
   18390:	0017d793          	srli	a5,a5,0x1
   18394:	00f12223          	sw	a5,4(sp)
   18398:	11848793          	addi	a5,s1,280
   1839c:	e4fc1ee3          	bne	s8,a5,181f8 <_ldtoa_r+0x37c>
   183a0:	0b615783          	lhu	a5,182(sp)
   183a4:	07e15703          	lhu	a4,126(sp)
   183a8:	06c10593          	addi	a1,sp,108
   183ac:	0a410513          	addi	a0,sp,164
   183b0:	00e787b3          	add	a5,a5,a4
   183b4:	ffffc737          	lui	a4,0xffffc
   183b8:	f7270713          	addi	a4,a4,-142 # ffffbf72 <__global_pointer$+0xfffd5d02>
   183bc:	00e787b3          	add	a5,a5,a4
   183c0:	0af11b23          	sh	a5,182(sp)
   183c4:	f7cfe0ef          	jal	ra,16b40 <emov>
   183c8:	08810593          	addi	a1,sp,136
   183cc:	000c0513          	mv	a0,s8
   183d0:	f70fe0ef          	jal	ra,16b40 <emov>
   183d4:	00001ab7          	lui	s5,0x1
   183d8:	10448493          	addi	s1,s1,260
   183dc:	0a410593          	addi	a1,sp,164
   183e0:	00048513          	mv	a0,s1
   183e4:	bc1fe0ef          	jal	ra,16fa4 <ecmp>
   183e8:	cca042e3          	bgtz	a0,180ac <_ldtoa_r+0x230>
   183ec:	0a410593          	addi	a1,sp,164
   183f0:	000d8513          	mv	a0,s11
   183f4:	bb1fe0ef          	jal	ra,16fa4 <ecmp>
   183f8:	02a04863          	bgtz	a0,18428 <_ldtoa_r+0x5ac>
   183fc:	0a410613          	addi	a2,sp,164
   18400:	00060593          	mv	a1,a2
   18404:	15010693          	addi	a3,sp,336
   18408:	000d8513          	mv	a0,s11
   1840c:	f40ff0ef          	jal	ra,17b4c <ediv>
   18410:	08810613          	addi	a2,sp,136
   18414:	15010693          	addi	a3,sp,336
   18418:	00060593          	mv	a1,a2
   1841c:	000d8513          	mv	a0,s11
   18420:	c9cff0ef          	jal	ra,178bc <emul>
   18424:	01540433          	add	s0,s0,s5
   18428:	001ada93          	srli	s5,s5,0x1
   1842c:	c89d80e3          	beq	s11,s1,180ac <_ldtoa_r+0x230>
   18430:	014d8d93          	addi	s11,s11,20
   18434:	fa9ff06f          	j	183dc <_ldtoa_r+0x560>
   18438:	00090513          	mv	a0,s2
   1843c:	0c010593          	addi	a1,sp,192
   18440:	f00fe0ef          	jal	ra,16b40 <emov>
   18444:	0c010513          	addi	a0,sp,192
   18448:	a21fe0ef          	jal	ra,16e68 <eisnan>
   1844c:	ee051ce3          	bnez	a0,18344 <_ldtoa_r+0x4c8>
   18450:	0d215783          	lhu	a5,210(sp)
   18454:	ffff8737          	lui	a4,0xffff8
   18458:	00e7c7b3          	xor	a5,a5,a4
   1845c:	0cf11923          	sh	a5,210(sp)
   18460:	ee5ff06f          	j	18344 <_ldtoa_r+0x4c8>
   18464:	e8051ae3          	bnez	a0,182f8 <_ldtoa_r+0x47c>
   18468:	0dc10593          	addi	a1,sp,220
   1846c:	00090513          	mv	a0,s2
   18470:	a65fe0ef          	jal	ra,16ed4 <emovi>
   18474:	0f810593          	addi	a1,sp,248
   18478:	0c010513          	addi	a0,sp,192
   1847c:	a59fe0ef          	jal	ra,16ed4 <emovi>
   18480:	0dc15783          	lhu	a5,220(sp)
   18484:	0fa15a83          	lhu	s5,250(sp)
   18488:	fff7c793          	not	a5,a5
   1848c:	0cf11e23          	sh	a5,220(sp)
   18490:	0de15783          	lhu	a5,222(sp)
   18494:	415785b3          	sub	a1,a5,s5
   18498:	00f12623          	sw	a5,12(sp)
   1849c:	02b05a63          	blez	a1,184d0 <_ldtoa_r+0x654>
   184a0:	11410593          	addi	a1,sp,276
   184a4:	0f810513          	addi	a0,sp,248
   184a8:	ed0fe0ef          	jal	ra,16b78 <emovz>
   184ac:	0f810593          	addi	a1,sp,248
   184b0:	0dc10513          	addi	a0,sp,220
   184b4:	ec4fe0ef          	jal	ra,16b78 <emovz>
   184b8:	0dc10593          	addi	a1,sp,220
   184bc:	11410513          	addi	a0,sp,276
   184c0:	eb8fe0ef          	jal	ra,16b78 <emovz>
   184c4:	00c12783          	lw	a5,12(sp)
   184c8:	40fa85b3          	sub	a1,s5,a5
   184cc:	0fa15a83          	lhu	s5,250(sp)
   184d0:	04058863          	beqz	a1,18520 <_ldtoa_r+0x6a4>
   184d4:	f6f00793          	li	a5,-145
   184d8:	08f5c463          	blt	a1,a5,18560 <_ldtoa_r+0x6e4>
   184dc:	0dc10513          	addi	a0,sp,220
   184e0:	c2dfe0ef          	jal	ra,1710c <eshift.part.3>
   184e4:	00a12623          	sw	a0,12(sp)
   184e8:	0dc15703          	lhu	a4,220(sp)
   184ec:	0f815783          	lhu	a5,248(sp)
   184f0:	0f810593          	addi	a1,sp,248
   184f4:	0dc10513          	addi	a0,sp,220
   184f8:	0cf71863          	bne	a4,a5,185c8 <_ldtoa_r+0x74c>
   184fc:	821fe0ef          	jal	ra,16d1c <eaddm>
   18500:	00c12583          	lw	a1,12(sp)
   18504:	15010793          	addi	a5,sp,336
   18508:	04000713          	li	a4,64
   1850c:	000a8693          	mv	a3,s5
   18510:	000d8613          	mv	a2,s11
   18514:	0f810513          	addi	a0,sp,248
   18518:	fa5fe0ef          	jal	ra,174bc <emdnorm>
   1851c:	0440006f          	j	18560 <_ldtoa_r+0x6e4>
   18520:	0f810593          	addi	a1,sp,248
   18524:	0dc10513          	addi	a0,sp,220
   18528:	e78fe0ef          	jal	ra,16ba0 <ecmpm>
   1852c:	06051663          	bnez	a0,18598 <_ldtoa_r+0x71c>
   18530:	0dc15703          	lhu	a4,220(sp)
   18534:	0f815783          	lhu	a5,248(sp)
   18538:	00f70863          	beq	a4,a5,18548 <_ldtoa_r+0x6cc>
   1853c:	0c010513          	addi	a0,sp,192
   18540:	decfe0ef          	jal	ra,16b2c <eclear>
   18544:	e01ff06f          	j	18344 <_ldtoa_r+0x4c8>
   18548:	0fa15783          	lhu	a5,250(sp)
   1854c:	02079263          	bnez	a5,18570 <_ldtoa_r+0x6f4>
   18550:	0fe11783          	lh	a5,254(sp)
   18554:	0007ce63          	bltz	a5,18570 <_ldtoa_r+0x6f4>
   18558:	0f810513          	addi	a0,sp,248
   1855c:	ed0fe0ef          	jal	ra,16c2c <eshup1>
   18560:	0c010593          	addi	a1,sp,192
   18564:	0f810513          	addi	a0,sp,248
   18568:	dddfe0ef          	jal	ra,17344 <emovo.isra.6>
   1856c:	dd9ff06f          	j	18344 <_ldtoa_r+0x4c8>
   18570:	0f810793          	addi	a5,sp,248
   18574:	10e10713          	addi	a4,sp,270
   18578:	0027d683          	lhu	a3,2(a5)
   1857c:	00068863          	beqz	a3,1858c <_ldtoa_r+0x710>
   18580:	001a8a93          	addi	s5,s5,1 # 1001 <main-0xf073>
   18584:	0f511d23          	sh	s5,250(sp)
   18588:	fd9ff06f          	j	18560 <_ldtoa_r+0x6e4>
   1858c:	00278793          	addi	a5,a5,2
   18590:	fef714e3          	bne	a4,a5,18578 <_ldtoa_r+0x6fc>
   18594:	ff1ff06f          	j	18584 <_ldtoa_r+0x708>
   18598:	00012623          	sw	zero,12(sp)
   1859c:	f4a056e3          	blez	a0,184e8 <_ldtoa_r+0x66c>
   185a0:	11410593          	addi	a1,sp,276
   185a4:	0f810513          	addi	a0,sp,248
   185a8:	dd0fe0ef          	jal	ra,16b78 <emovz>
   185ac:	0f810593          	addi	a1,sp,248
   185b0:	0dc10513          	addi	a0,sp,220
   185b4:	dc4fe0ef          	jal	ra,16b78 <emovz>
   185b8:	0dc10593          	addi	a1,sp,220
   185bc:	11410513          	addi	a0,sp,276
   185c0:	db8fe0ef          	jal	ra,16b78 <emovz>
   185c4:	f25ff06f          	j	184e8 <_ldtoa_r+0x66c>
   185c8:	f8cfe0ef          	jal	ra,16d54 <esubm>
   185cc:	00100d93          	li	s11,1
   185d0:	f31ff06f          	j	18500 <_ldtoa_r+0x684>
   185d4:	00278793          	addi	a5,a5,2
   185d8:	01200713          	li	a4,18
   185dc:	c6e796e3          	bne	a5,a4,18248 <_ldtoa_r+0x3cc>
   185e0:	d65ff06f          	j	18344 <_ldtoa_r+0x4c8>
   185e4:	07e15783          	lhu	a5,126(sp)
   185e8:	00000413          	li	s0,0
   185ec:	10448a93          	addi	s5,s1,260
   185f0:	0a078863          	beqz	a5,186a0 <_ldtoa_r+0x824>
   185f4:	0c010593          	addi	a1,sp,192
   185f8:	06c10513          	addi	a0,sp,108
   185fc:	00004ab7          	lui	s5,0x4
   18600:	8d5fe0ef          	jal	ra,16ed4 <emovi>
   18604:	ffea8a93          	addi	s5,s5,-2 # 3ffe <main-0xc076>
   18608:	fd500c13          	li	s8,-43
   1860c:	0d815783          	lhu	a5,216(sp)
   18610:	0077f793          	andi	a5,a5,7
   18614:	06079263          	bnez	a5,18678 <_ldtoa_r+0x7fc>
   18618:	0a410593          	addi	a1,sp,164
   1861c:	0c010513          	addi	a0,sp,192
   18620:	d58fe0ef          	jal	ra,16b78 <emovz>
   18624:	0a410513          	addi	a0,sp,164
   18628:	db4fe0ef          	jal	ra,16bdc <eshdn1>
   1862c:	0a410513          	addi	a0,sp,164
   18630:	dacfe0ef          	jal	ra,16bdc <eshdn1>
   18634:	0a410593          	addi	a1,sp,164
   18638:	0c010513          	addi	a0,sp,192
   1863c:	ee0fe0ef          	jal	ra,16d1c <eaddm>
   18640:	0a615783          	lhu	a5,166(sp)
   18644:	00378793          	addi	a5,a5,3
   18648:	0af11323          	sh	a5,166(sp)
   1864c:	0a815783          	lhu	a5,168(sp)
   18650:	10079a63          	bnez	a5,18764 <_ldtoa_r+0x8e8>
   18654:	0bc15783          	lhu	a5,188(sp)
   18658:	02079063          	bnez	a5,18678 <_ldtoa_r+0x7fc>
   1865c:	0a615783          	lhu	a5,166(sp)
   18660:	00faec63          	bltu	s5,a5,18678 <_ldtoa_r+0x7fc>
   18664:	0c010593          	addi	a1,sp,192
   18668:	0a410513          	addi	a0,sp,164
   1866c:	fff40413          	addi	s0,s0,-1
   18670:	d08fe0ef          	jal	ra,16b78 <emovz>
   18674:	f9841ce3          	bne	s0,s8,1860c <_ldtoa_r+0x790>
   18678:	06c10593          	addi	a1,sp,108
   1867c:	0c010513          	addi	a0,sp,192
   18680:	cc5fe0ef          	jal	ra,17344 <emovo.isra.6>
   18684:	0240006f          	j	186a8 <_ldtoa_r+0x82c>
   18688:	06c10613          	addi	a2,sp,108
   1868c:	15010693          	addi	a3,sp,336
   18690:	00060593          	mv	a1,a2
   18694:	000a8513          	mv	a0,s5
   18698:	a24ff0ef          	jal	ra,178bc <emul>
   1869c:	fff40413          	addi	s0,s0,-1
   186a0:	07c11783          	lh	a5,124(sp)
   186a4:	fe07d2e3          	bgez	a5,18688 <_ldtoa_r+0x80c>
   186a8:	0c010593          	addi	a1,sp,192
   186ac:	06c10513          	addi	a0,sp,108
   186b0:	c90fe0ef          	jal	ra,16b40 <emov>
   186b4:	08810593          	addi	a1,sp,136
   186b8:	00090513          	mv	a0,s2
   186bc:	c84fe0ef          	jal	ra,16b40 <emov>
   186c0:	01448793          	addi	a5,s1,20
   186c4:	00000c13          	li	s8,0
   186c8:	fffffab7          	lui	s5,0xfffff
   186cc:	15048d93          	addi	s11,s1,336
   186d0:	00f12223          	sw	a5,4(sp)
   186d4:	00412783          	lw	a5,4(sp)
   186d8:	018d8733          	add	a4,s11,s8
   186dc:	0c010593          	addi	a1,sp,192
   186e0:	00090513          	mv	a0,s2
   186e4:	00e12623          	sw	a4,12(sp)
   186e8:	018784b3          	add	s1,a5,s8
   186ec:	8b9fe0ef          	jal	ra,16fa4 <ecmp>
   186f0:	00c12703          	lw	a4,12(sp)
   186f4:	04a05c63          	blez	a0,1874c <_ldtoa_r+0x8d0>
   186f8:	0c010593          	addi	a1,sp,192
   186fc:	00070513          	mv	a0,a4
   18700:	8a5fe0ef          	jal	ra,16fa4 <ecmp>
   18704:	02054863          	bltz	a0,18734 <_ldtoa_r+0x8b8>
   18708:	0c010613          	addi	a2,sp,192
   1870c:	00060593          	mv	a1,a2
   18710:	15010693          	addi	a3,sp,336
   18714:	00048513          	mv	a0,s1
   18718:	9a4ff0ef          	jal	ra,178bc <emul>
   1871c:	08810613          	addi	a2,sp,136
   18720:	15010693          	addi	a3,sp,336
   18724:	00060593          	mv	a1,a2
   18728:	00048513          	mv	a0,s1
   1872c:	990ff0ef          	jal	ra,178bc <emul>
   18730:	01540433          	add	s0,s0,s5
   18734:	01fad713          	srli	a4,s5,0x1f
   18738:	01570ab3          	add	s5,a4,s5
   1873c:	014c0c13          	addi	s8,s8,20
   18740:	10400793          	li	a5,260
   18744:	401ada93          	srai	s5,s5,0x1
   18748:	f8fc16e3          	bne	s8,a5,186d4 <_ldtoa_r+0x858>
   1874c:	08810613          	addi	a2,sp,136
   18750:	15010693          	addi	a3,sp,336
   18754:	00090593          	mv	a1,s2
   18758:	00060513          	mv	a0,a2
   1875c:	bf0ff0ef          	jal	ra,17b4c <ediv>
   18760:	94dff06f          	j	180ac <_ldtoa_r+0x230>
   18764:	0a410513          	addi	a0,sp,164
   18768:	c74fe0ef          	jal	ra,16bdc <eshdn1>
   1876c:	0a615783          	lhu	a5,166(sp)
   18770:	00178793          	addi	a5,a5,1
   18774:	ed5ff06f          	j	18648 <_ldtoa_r+0x7cc>
   18778:	06c10513          	addi	a0,sp,108
   1877c:	cb0fe0ef          	jal	ra,16c2c <eshup1>
   18780:	0a410593          	addi	a1,sp,164
   18784:	06c10513          	addi	a0,sp,108
   18788:	bf0fe0ef          	jal	ra,16b78 <emovz>
   1878c:	0a410513          	addi	a0,sp,164
   18790:	c9cfe0ef          	jal	ra,16c2c <eshup1>
   18794:	0a410513          	addi	a0,sp,164
   18798:	c94fe0ef          	jal	ra,16c2c <eshup1>
   1879c:	06c10593          	addi	a1,sp,108
   187a0:	0a410513          	addi	a0,sp,164
   187a4:	d78fe0ef          	jal	ra,16d1c <eaddm>
   187a8:	15010613          	addi	a2,sp,336
   187ac:	06c10593          	addi	a1,sp,108
   187b0:	08810513          	addi	a0,sp,136
   187b4:	824ff0ef          	jal	ra,177d8 <eiremain>
   187b8:	fff40413          	addi	s0,s0,-1
   187bc:	19c15483          	lhu	s1,412(sp)
   187c0:	931ff06f          	j	180f0 <_ldtoa_r+0x274>
   187c4:	02000793          	li	a5,32
   187c8:	94dff06f          	j	18114 <_ldtoa_r+0x298>
   187cc:	03048493          	addi	s1,s1,48
   187d0:	02e00793          	li	a5,46
   187d4:	10910aa3          	sb	s1,277(sp)
   187d8:	10f10b23          	sb	a5,278(sp)
   187dc:	11710493          	addi	s1,sp,279
   187e0:	01748ab3          	add	s5,s1,s7
   187e4:	05795663          	ble	s7,s2,18830 <_ldtoa_r+0x9b4>
   187e8:	19c15783          	lhu	a5,412(sp)
   187ec:	00400713          	li	a4,4
   187f0:	fffa8493          	addi	s1,s5,-1 # ffffefff <__global_pointer$+0xfffd8d8f>
   187f4:	96f75ce3          	ble	a5,a4,1816c <_ldtoa_r+0x2f0>
   187f8:	00500713          	li	a4,5
   187fc:	08e78463          	beq	a5,a4,18884 <_ldtoa_r+0xa08>
   18800:	00048793          	mv	a5,s1
   18804:	02e00613          	li	a2,46
   18808:	03800593          	li	a1,56
   1880c:	03000693          	li	a3,48
   18810:	fff78793          	addi	a5,a5,-1
   18814:	0007c703          	lbu	a4,0(a5)
   18818:	07f77713          	andi	a4,a4,127
   1881c:	0a095863          	bgez	s2,188cc <_ldtoa_r+0xa50>
   18820:	03100713          	li	a4,49
   18824:	00e78023          	sb	a4,0(a5)
   18828:	00140413          	addi	s0,s0,1
   1882c:	941ff06f          	j	1816c <_ldtoa_r+0x2f0>
   18830:	06c10513          	addi	a0,sp,108
   18834:	bf8fe0ef          	jal	ra,16c2c <eshup1>
   18838:	0a410593          	addi	a1,sp,164
   1883c:	06c10513          	addi	a0,sp,108
   18840:	b38fe0ef          	jal	ra,16b78 <emovz>
   18844:	0a410513          	addi	a0,sp,164
   18848:	be4fe0ef          	jal	ra,16c2c <eshup1>
   1884c:	0a410513          	addi	a0,sp,164
   18850:	bdcfe0ef          	jal	ra,16c2c <eshup1>
   18854:	06c10593          	addi	a1,sp,108
   18858:	0a410513          	addi	a0,sp,164
   1885c:	cc0fe0ef          	jal	ra,16d1c <eaddm>
   18860:	15010613          	addi	a2,sp,336
   18864:	06c10593          	addi	a1,sp,108
   18868:	08810513          	addi	a0,sp,136
   1886c:	f6dfe0ef          	jal	ra,177d8 <eiremain>
   18870:	19c14783          	lbu	a5,412(sp)
   18874:	001b8b93          	addi	s7,s7,1
   18878:	03078793          	addi	a5,a5,48
   1887c:	00fa8023          	sb	a5,0(s5)
   18880:	f61ff06f          	j	187e0 <_ldtoa_r+0x964>
   18884:	08810593          	addi	a1,sp,136
   18888:	06c10513          	addi	a0,sp,108
   1888c:	ab9fe0ef          	jal	ra,17344 <emovo.isra.6>
   18890:	00812783          	lw	a5,8(sp)
   18894:	08810513          	addi	a0,sp,136
   18898:	4e878593          	addi	a1,a5,1256
   1889c:	f08fe0ef          	jal	ra,16fa4 <ecmp>
   188a0:	f60510e3          	bnez	a0,18800 <_ldtoa_r+0x984>
   188a4:	8c0944e3          	bltz	s2,1816c <_ldtoa_r+0x2f0>
   188a8:	ffeac783          	lbu	a5,-2(s5)
   188ac:	fd278793          	addi	a5,a5,-46
   188b0:	0017b793          	seqz	a5,a5
   188b4:	fff7c793          	not	a5,a5
   188b8:	00f487b3          	add	a5,s1,a5
   188bc:	0007c783          	lbu	a5,0(a5)
   188c0:	0017f793          	andi	a5,a5,1
   188c4:	f2079ee3          	bnez	a5,18800 <_ldtoa_r+0x984>
   188c8:	8a5ff06f          	j	1816c <_ldtoa_r+0x2f0>
   188cc:	02c71463          	bne	a4,a2,188f4 <_ldtoa_r+0xa78>
   188d0:	fff7c703          	lbu	a4,-1(a5)
   188d4:	03800693          	li	a3,56
   188d8:	00e6e863          	bltu	a3,a4,188e8 <_ldtoa_r+0xa6c>
   188dc:	00170713          	addi	a4,a4,1 # ffff8001 <__global_pointer$+0xfffd1d91>
   188e0:	fee78fa3          	sb	a4,-1(a5)
   188e4:	889ff06f          	j	1816c <_ldtoa_r+0x2f0>
   188e8:	00140413          	addi	s0,s0,1
   188ec:	03100713          	li	a4,49
   188f0:	ff1ff06f          	j	188e0 <_ldtoa_r+0xa64>
   188f4:	00e5e863          	bltu	a1,a4,18904 <_ldtoa_r+0xa88>
   188f8:	00170713          	addi	a4,a4,1
   188fc:	00e78023          	sb	a4,0(a5)
   18900:	86dff06f          	j	1816c <_ldtoa_r+0x2f0>
   18904:	00d78023          	sb	a3,0(a5)
   18908:	f09ff06f          	j	18810 <_ldtoa_r+0x994>
   1890c:	00140793          	addi	a5,s0,1
   18910:	00fd2023          	sw	a5,0(s10)
   18914:	02e00693          	li	a3,46
   18918:	00090793          	mv	a5,s2
   1891c:	0007c703          	lbu	a4,0(a5)
   18920:	00071663          	bnez	a4,1892c <_ldtoa_r+0xab0>
   18924:	04500713          	li	a4,69
   18928:	02c0006f          	j	18954 <_ldtoa_r+0xad8>
   1892c:	00178613          	addi	a2,a5,1
   18930:	00d70663          	beq	a4,a3,1893c <_ldtoa_r+0xac0>
   18934:	00060793          	mv	a5,a2
   18938:	fe5ff06f          	j	1891c <_ldtoa_r+0xaa0>
   1893c:	0017c703          	lbu	a4,1(a5)
   18940:	00178793          	addi	a5,a5,1
   18944:	fee78fa3          	sb	a4,-1(a5)
   18948:	fe071ae3          	bnez	a4,1893c <_ldtoa_r+0xac0>
   1894c:	fd9ff06f          	j	18924 <_ldtoa_r+0xaa8>
   18950:	fff78793          	addi	a5,a5,-1
   18954:	0007c683          	lbu	a3,0(a5)
   18958:	00e68463          	beq	a3,a4,18960 <_ldtoa_r+0xae4>
   1895c:	fef96ae3          	bltu	s2,a5,18950 <_ldtoa_r+0xad4>
   18960:	00078023          	sb	zero,0(a5)
   18964:	e60ff06f          	j	17fc4 <_ldtoa_r+0x148>
   18968:	00178793          	addi	a5,a5,1
   1896c:	e64ff06f          	j	17fd0 <_ldtoa_r+0x154>
   18970:	00068493          	mv	s1,a3
   18974:	e6cff06f          	j	17fe0 <_ldtoa_r+0x164>
   18978:	fff48493          	addi	s1,s1,-1
   1897c:	00048023          	sb	zero,0(s1)
   18980:	fff4c703          	lbu	a4,-1(s1)
   18984:	00d71663          	bne	a4,a3,18990 <_ldtoa_r+0xb14>
   18988:	41248733          	sub	a4,s1,s2
   1898c:	fee7c6e3          	blt	a5,a4,18978 <_ldtoa_r+0xafc>
   18990:	00300713          	li	a4,3
   18994:	009c8793          	addi	a5,s9,9
   18998:	02eb1263          	bne	s6,a4,189bc <_ldtoa_r+0xb40>
   1899c:	00898433          	add	s0,s3,s0
   189a0:	00045863          	bgez	s0,189b0 <_ldtoa_r+0xb34>
   189a4:	10010a23          	sb	zero,276(sp)
   189a8:	000d2023          	sw	zero,0(s10)
   189ac:	00090493          	mv	s1,s2
   189b0:	000d2783          	lw	a5,0(s10)
   189b4:	00fc8cb3          	add	s9,s9,a5
   189b8:	003c8793          	addi	a5,s9,3
   189bc:	040a2223          	sw	zero,68(s4)
   189c0:	00400713          	li	a4,4
   189c4:	01470693          	addi	a3,a4,20
   189c8:	044a2583          	lw	a1,68(s4)
   189cc:	06d7f863          	bleu	a3,a5,18a3c <_ldtoa_r+0xbc0>
   189d0:	000a0513          	mv	a0,s4
   189d4:	3c5000ef          	jal	ra,19598 <_Balloc>
   189d8:	04aa2023          	sw	a0,64(s4)
   189dc:	00090593          	mv	a1,s2
   189e0:	00050413          	mv	s0,a0
   189e4:	4b8020ef          	jal	ra,1ae9c <strcpy>
   189e8:	01012783          	lw	a5,16(sp)
   189ec:	00078863          	beqz	a5,189fc <_ldtoa_r+0xb80>
   189f0:	412484b3          	sub	s1,s1,s2
   189f4:	009404b3          	add	s1,s0,s1
   189f8:	0097a023          	sw	s1,0(a5)
   189fc:	00040513          	mv	a0,s0
   18a00:	1dc12083          	lw	ra,476(sp)
   18a04:	1d812403          	lw	s0,472(sp)
   18a08:	1d412483          	lw	s1,468(sp)
   18a0c:	1d012903          	lw	s2,464(sp)
   18a10:	1cc12983          	lw	s3,460(sp)
   18a14:	1c812a03          	lw	s4,456(sp)
   18a18:	1c412a83          	lw	s5,452(sp)
   18a1c:	1c012b03          	lw	s6,448(sp)
   18a20:	1bc12b83          	lw	s7,444(sp)
   18a24:	1b812c03          	lw	s8,440(sp)
   18a28:	1b412c83          	lw	s9,436(sp)
   18a2c:	1b012d03          	lw	s10,432(sp)
   18a30:	1ac12d83          	lw	s11,428(sp)
   18a34:	1e010113          	addi	sp,sp,480
   18a38:	00008067          	ret
   18a3c:	00158593          	addi	a1,a1,1
   18a40:	04ba2223          	sw	a1,68(s4)
   18a44:	00171713          	slli	a4,a4,0x1
   18a48:	f7dff06f          	j	189c4 <_ldtoa_r+0xb48>
   18a4c:	000087b7          	lui	a5,0x8
   18a50:	fff78793          	addi	a5,a5,-1 # 7fff <main-0x8075>
   18a54:	f2f71e63          	bne	a4,a5,18190 <_ldtoa_r+0x314>
   18a58:	00012783          	lw	a5,0(sp)
   18a5c:	f2078463          	beqz	a5,18184 <_ldtoa_r+0x308>
   18a60:	000245b7          	lui	a1,0x24
   18a64:	74458593          	addi	a1,a1,1860 # 24744 <emtens+0x10c>
   18a68:	d18ff06f          	j	17f80 <_ldtoa_r+0x104>

00018a6c <_ldcheck>:
   18a6c:	00052783          	lw	a5,0(a0)
   18a70:	fc010113          	addi	sp,sp,-64
   18a74:	01410593          	addi	a1,sp,20
   18a78:	00f12023          	sw	a5,0(sp)
   18a7c:	00452783          	lw	a5,4(a0)
   18a80:	02112e23          	sw	ra,60(sp)
   18a84:	00f12223          	sw	a5,4(sp)
   18a88:	00852783          	lw	a5,8(a0)
   18a8c:	00f12423          	sw	a5,8(sp)
   18a90:	00c52783          	lw	a5,12(a0)
   18a94:	00010513          	mv	a0,sp
   18a98:	00f12623          	sw	a5,12(sp)
   18a9c:	919fe0ef          	jal	ra,173b4 <e113toe.isra.8>
   18aa0:	02615783          	lhu	a5,38(sp)
   18aa4:	00000513          	li	a0,0
   18aa8:	fff7c793          	not	a5,a5
   18aac:	01179713          	slli	a4,a5,0x11
   18ab0:	00071a63          	bnez	a4,18ac4 <_ldcheck+0x58>
   18ab4:	01410513          	addi	a0,sp,20
   18ab8:	bb0fe0ef          	jal	ra,16e68 <eisnan>
   18abc:	00153513          	seqz	a0,a0
   18ac0:	00150513          	addi	a0,a0,1
   18ac4:	03c12083          	lw	ra,60(sp)
   18ac8:	04010113          	addi	sp,sp,64
   18acc:	00008067          	ret

00018ad0 <__localeconv_l>:
   18ad0:	0f050513          	addi	a0,a0,240
   18ad4:	00008067          	ret

00018ad8 <_localeconv_r>:
   18ad8:	8301a783          	lw	a5,-2000(gp) # 25aa0 <_impure_ptr>
   18adc:	0347a503          	lw	a0,52(a5)
   18ae0:	00051663          	bnez	a0,18aec <_localeconv_r+0x14>
   18ae4:	00025537          	lui	a0,0x25
   18ae8:	4f850513          	addi	a0,a0,1272 # 254f8 <__global_locale>
   18aec:	0f050513          	addi	a0,a0,240
   18af0:	00008067          	ret

00018af4 <localeconv>:
   18af4:	8301a783          	lw	a5,-2000(gp) # 25aa0 <_impure_ptr>
   18af8:	0347a503          	lw	a0,52(a5)
   18afc:	00051663          	bnez	a0,18b08 <localeconv+0x14>
   18b00:	00025537          	lui	a0,0x25
   18b04:	4f850513          	addi	a0,a0,1272 # 254f8 <__global_locale>
   18b08:	0f050513          	addi	a0,a0,240
   18b0c:	00008067          	ret

00018b10 <_setlocale_r>:
   18b10:	ff010113          	addi	sp,sp,-16
   18b14:	00912223          	sw	s1,4(sp)
   18b18:	00112623          	sw	ra,12(sp)
   18b1c:	00812423          	sw	s0,8(sp)
   18b20:	000244b7          	lui	s1,0x24
   18b24:	00061e63          	bnez	a2,18b40 <_setlocale_r+0x30>
   18b28:	76448513          	addi	a0,s1,1892 # 24764 <emtens+0x12c>
   18b2c:	00c12083          	lw	ra,12(sp)
   18b30:	00812403          	lw	s0,8(sp)
   18b34:	00412483          	lw	s1,4(sp)
   18b38:	01010113          	addi	sp,sp,16
   18b3c:	00008067          	ret
   18b40:	000245b7          	lui	a1,0x24
   18b44:	76858593          	addi	a1,a1,1896 # 24768 <emtens+0x130>
   18b48:	00060513          	mv	a0,a2
   18b4c:	00060413          	mv	s0,a2
   18b50:	1d0020ef          	jal	ra,1ad20 <strcmp>
   18b54:	fc050ae3          	beqz	a0,18b28 <_setlocale_r+0x18>
   18b58:	76448593          	addi	a1,s1,1892
   18b5c:	00040513          	mv	a0,s0
   18b60:	1c0020ef          	jal	ra,1ad20 <strcmp>
   18b64:	fc0502e3          	beqz	a0,18b28 <_setlocale_r+0x18>
   18b68:	000245b7          	lui	a1,0x24
   18b6c:	dd458593          	addi	a1,a1,-556 # 23dd4 <state_known_crc+0x14c>
   18b70:	00040513          	mv	a0,s0
   18b74:	1ac020ef          	jal	ra,1ad20 <strcmp>
   18b78:	fa0508e3          	beqz	a0,18b28 <_setlocale_r+0x18>
   18b7c:	00000513          	li	a0,0
   18b80:	fadff06f          	j	18b2c <_setlocale_r+0x1c>

00018b84 <__locale_mb_cur_max>:
   18b84:	8301a783          	lw	a5,-2000(gp) # 25aa0 <_impure_ptr>
   18b88:	0347a783          	lw	a5,52(a5)
   18b8c:	00079663          	bnez	a5,18b98 <__locale_mb_cur_max+0x14>
   18b90:	000257b7          	lui	a5,0x25
   18b94:	4f878793          	addi	a5,a5,1272 # 254f8 <__global_locale>
   18b98:	1287c503          	lbu	a0,296(a5)
   18b9c:	00008067          	ret

00018ba0 <__locale_ctype_ptr_l>:
   18ba0:	0ec52503          	lw	a0,236(a0)
   18ba4:	00008067          	ret

00018ba8 <__locale_ctype_ptr>:
   18ba8:	8301a783          	lw	a5,-2000(gp) # 25aa0 <_impure_ptr>
   18bac:	0347a783          	lw	a5,52(a5)
   18bb0:	00079663          	bnez	a5,18bbc <__locale_ctype_ptr+0x14>
   18bb4:	000257b7          	lui	a5,0x25
   18bb8:	4f878793          	addi	a5,a5,1272 # 254f8 <__global_locale>
   18bbc:	0ec7a503          	lw	a0,236(a5)
   18bc0:	00008067          	ret

00018bc4 <setlocale>:
   18bc4:	00058613          	mv	a2,a1
   18bc8:	00050593          	mv	a1,a0
   18bcc:	8301a503          	lw	a0,-2000(gp) # 25aa0 <_impure_ptr>
   18bd0:	f41ff06f          	j	18b10 <_setlocale_r>

00018bd4 <__swhatbuf_r>:
   18bd4:	f8010113          	addi	sp,sp,-128
   18bd8:	06912a23          	sw	s1,116(sp)
   18bdc:	00058493          	mv	s1,a1
   18be0:	00e59583          	lh	a1,14(a1)
   18be4:	06812c23          	sw	s0,120(sp)
   18be8:	06112e23          	sw	ra,124(sp)
   18bec:	00060413          	mv	s0,a2
   18bf0:	0005de63          	bgez	a1,18c0c <__swhatbuf_r+0x38>
   18bf4:	00c4d783          	lhu	a5,12(s1)
   18bf8:	0006a023          	sw	zero,0(a3)
   18bfc:	0807f793          	andi	a5,a5,128
   18c00:	04079863          	bnez	a5,18c50 <__swhatbuf_r+0x7c>
   18c04:	40000793          	li	a5,1024
   18c08:	04c0006f          	j	18c54 <__swhatbuf_r+0x80>
   18c0c:	01810613          	addi	a2,sp,24
   18c10:	00d12623          	sw	a3,12(sp)
   18c14:	49c050ef          	jal	ra,1e0b0 <_fstat_r>
   18c18:	00c12683          	lw	a3,12(sp)
   18c1c:	fc054ce3          	bltz	a0,18bf4 <__swhatbuf_r+0x20>
   18c20:	01c12703          	lw	a4,28(sp)
   18c24:	0000f7b7          	lui	a5,0xf
   18c28:	00001537          	lui	a0,0x1
   18c2c:	00e7f7b3          	and	a5,a5,a4
   18c30:	ffffe737          	lui	a4,0xffffe
   18c34:	00e787b3          	add	a5,a5,a4
   18c38:	0017b793          	seqz	a5,a5
   18c3c:	00f6a023          	sw	a5,0(a3)
   18c40:	40000793          	li	a5,1024
   18c44:	00f42023          	sw	a5,0(s0)
   18c48:	80050513          	addi	a0,a0,-2048 # 800 <main-0xf874>
   18c4c:	0100006f          	j	18c5c <__swhatbuf_r+0x88>
   18c50:	04000793          	li	a5,64
   18c54:	00f42023          	sw	a5,0(s0)
   18c58:	00000513          	li	a0,0
   18c5c:	07c12083          	lw	ra,124(sp)
   18c60:	07812403          	lw	s0,120(sp)
   18c64:	07412483          	lw	s1,116(sp)
   18c68:	08010113          	addi	sp,sp,128
   18c6c:	00008067          	ret

00018c70 <__smakebuf_r>:
   18c70:	00c5d783          	lhu	a5,12(a1)
   18c74:	fe010113          	addi	sp,sp,-32
   18c78:	00812c23          	sw	s0,24(sp)
   18c7c:	00112e23          	sw	ra,28(sp)
   18c80:	00912a23          	sw	s1,20(sp)
   18c84:	01212823          	sw	s2,16(sp)
   18c88:	0027f793          	andi	a5,a5,2
   18c8c:	00058413          	mv	s0,a1
   18c90:	02078863          	beqz	a5,18cc0 <__smakebuf_r+0x50>
   18c94:	04340793          	addi	a5,s0,67
   18c98:	00f42023          	sw	a5,0(s0)
   18c9c:	00f42823          	sw	a5,16(s0)
   18ca0:	00100793          	li	a5,1
   18ca4:	00f42a23          	sw	a5,20(s0)
   18ca8:	01c12083          	lw	ra,28(sp)
   18cac:	01812403          	lw	s0,24(sp)
   18cb0:	01412483          	lw	s1,20(sp)
   18cb4:	01012903          	lw	s2,16(sp)
   18cb8:	02010113          	addi	sp,sp,32
   18cbc:	00008067          	ret
   18cc0:	00c10693          	addi	a3,sp,12
   18cc4:	00810613          	addi	a2,sp,8
   18cc8:	00050493          	mv	s1,a0
   18ccc:	f09ff0ef          	jal	ra,18bd4 <__swhatbuf_r>
   18cd0:	00812583          	lw	a1,8(sp)
   18cd4:	00050913          	mv	s2,a0
   18cd8:	00048513          	mv	a0,s1
   18cdc:	084000ef          	jal	ra,18d60 <_malloc_r>
   18ce0:	02051063          	bnez	a0,18d00 <__smakebuf_r+0x90>
   18ce4:	00c41783          	lh	a5,12(s0)
   18ce8:	2007f713          	andi	a4,a5,512
   18cec:	fa071ee3          	bnez	a4,18ca8 <__smakebuf_r+0x38>
   18cf0:	ffc7f793          	andi	a5,a5,-4
   18cf4:	0027e793          	ori	a5,a5,2
   18cf8:	00f41623          	sh	a5,12(s0)
   18cfc:	f99ff06f          	j	18c94 <__smakebuf_r+0x24>
   18d00:	000167b7          	lui	a5,0x16
   18d04:	fe078793          	addi	a5,a5,-32 # 15fe0 <_cleanup_r>
   18d08:	02f4ae23          	sw	a5,60(s1)
   18d0c:	00c45783          	lhu	a5,12(s0)
   18d10:	00a42023          	sw	a0,0(s0)
   18d14:	00a42823          	sw	a0,16(s0)
   18d18:	0807e793          	ori	a5,a5,128
   18d1c:	00f41623          	sh	a5,12(s0)
   18d20:	00812783          	lw	a5,8(sp)
   18d24:	00f42a23          	sw	a5,20(s0)
   18d28:	00c12783          	lw	a5,12(sp)
   18d2c:	02078263          	beqz	a5,18d50 <__smakebuf_r+0xe0>
   18d30:	00e41583          	lh	a1,14(s0)
   18d34:	00048513          	mv	a0,s1
   18d38:	3c4050ef          	jal	ra,1e0fc <_isatty_r>
   18d3c:	00050a63          	beqz	a0,18d50 <__smakebuf_r+0xe0>
   18d40:	00c45783          	lhu	a5,12(s0)
   18d44:	ffc7f793          	andi	a5,a5,-4
   18d48:	0017e793          	ori	a5,a5,1
   18d4c:	00f41623          	sh	a5,12(s0)
   18d50:	00c45783          	lhu	a5,12(s0)
   18d54:	00f96933          	or	s2,s2,a5
   18d58:	01241623          	sh	s2,12(s0)
   18d5c:	f4dff06f          	j	18ca8 <__smakebuf_r+0x38>

00018d60 <_malloc_r>:
   18d60:	fd010113          	addi	sp,sp,-48
   18d64:	02112623          	sw	ra,44(sp)
   18d68:	02812423          	sw	s0,40(sp)
   18d6c:	02912223          	sw	s1,36(sp)
   18d70:	03212023          	sw	s2,32(sp)
   18d74:	01312e23          	sw	s3,28(sp)
   18d78:	01412c23          	sw	s4,24(sp)
   18d7c:	01512a23          	sw	s5,20(sp)
   18d80:	01612823          	sw	s6,16(sp)
   18d84:	01712623          	sw	s7,12(sp)
   18d88:	01812423          	sw	s8,8(sp)
   18d8c:	01912223          	sw	s9,4(sp)
   18d90:	00b58793          	addi	a5,a1,11
   18d94:	01600713          	li	a4,22
   18d98:	04f77663          	bleu	a5,a4,18de4 <_malloc_r+0x84>
   18d9c:	ff87f493          	andi	s1,a5,-8
   18da0:	0404d463          	bgez	s1,18de8 <_malloc_r+0x88>
   18da4:	00c00793          	li	a5,12
   18da8:	00f52023          	sw	a5,0(a0)
   18dac:	00000513          	li	a0,0
   18db0:	02c12083          	lw	ra,44(sp)
   18db4:	02812403          	lw	s0,40(sp)
   18db8:	02412483          	lw	s1,36(sp)
   18dbc:	02012903          	lw	s2,32(sp)
   18dc0:	01c12983          	lw	s3,28(sp)
   18dc4:	01812a03          	lw	s4,24(sp)
   18dc8:	01412a83          	lw	s5,20(sp)
   18dcc:	01012b03          	lw	s6,16(sp)
   18dd0:	00c12b83          	lw	s7,12(sp)
   18dd4:	00812c03          	lw	s8,8(sp)
   18dd8:	00412c83          	lw	s9,4(sp)
   18ddc:	03010113          	addi	sp,sp,48
   18de0:	00008067          	ret
   18de4:	01000493          	li	s1,16
   18de8:	fab4eee3          	bltu	s1,a1,18da4 <_malloc_r+0x44>
   18dec:	00050993          	mv	s3,a0
   18df0:	7a0000ef          	jal	ra,19590 <__malloc_lock>
   18df4:	00025937          	lui	s2,0x25
   18df8:	1f700793          	li	a5,503
   18dfc:	66490913          	addi	s2,s2,1636 # 25664 <__malloc_av_>
   18e00:	0497ea63          	bltu	a5,s1,18e54 <_malloc_r+0xf4>
   18e04:	00848713          	addi	a4,s1,8
   18e08:	00e90733          	add	a4,s2,a4
   18e0c:	00472403          	lw	s0,4(a4) # ffffe004 <__global_pointer$+0xfffd7d94>
   18e10:	ff870693          	addi	a3,a4,-8
   18e14:	0034d793          	srli	a5,s1,0x3
   18e18:	00d41863          	bne	s0,a3,18e28 <_malloc_r+0xc8>
   18e1c:	00c72403          	lw	s0,12(a4)
   18e20:	00278793          	addi	a5,a5,2
   18e24:	08870063          	beq	a4,s0,18ea4 <_malloc_r+0x144>
   18e28:	00442783          	lw	a5,4(s0)
   18e2c:	00c42703          	lw	a4,12(s0)
   18e30:	00842683          	lw	a3,8(s0)
   18e34:	ffc7f793          	andi	a5,a5,-4
   18e38:	00f407b3          	add	a5,s0,a5
   18e3c:	00e6a623          	sw	a4,12(a3)
   18e40:	00d72423          	sw	a3,8(a4)
   18e44:	0047a703          	lw	a4,4(a5)
   18e48:	00176713          	ori	a4,a4,1
   18e4c:	00e7a223          	sw	a4,4(a5)
   18e50:	0a80006f          	j	18ef8 <_malloc_r+0x198>
   18e54:	0094d713          	srli	a4,s1,0x9
   18e58:	03f00793          	li	a5,63
   18e5c:	00070a63          	beqz	a4,18e70 <_malloc_r+0x110>
   18e60:	00400793          	li	a5,4
   18e64:	0ae7e263          	bltu	a5,a4,18f08 <_malloc_r+0x1a8>
   18e68:	0064d793          	srli	a5,s1,0x6
   18e6c:	03878793          	addi	a5,a5,56
   18e70:	00178713          	addi	a4,a5,1
   18e74:	00371713          	slli	a4,a4,0x3
   18e78:	00e90733          	add	a4,s2,a4
   18e7c:	00472403          	lw	s0,4(a4)
   18e80:	ff870593          	addi	a1,a4,-8
   18e84:	00f00513          	li	a0,15
   18e88:	00b40c63          	beq	s0,a1,18ea0 <_malloc_r+0x140>
   18e8c:	00442703          	lw	a4,4(s0)
   18e90:	ffc77713          	andi	a4,a4,-4
   18e94:	40970633          	sub	a2,a4,s1
   18e98:	0cc55063          	ble	a2,a0,18f58 <_malloc_r+0x1f8>
   18e9c:	fff78793          	addi	a5,a5,-1
   18ea0:	00178793          	addi	a5,a5,1
   18ea4:	01092403          	lw	s0,16(s2)
   18ea8:	000255b7          	lui	a1,0x25
   18eac:	00890693          	addi	a3,s2,8
   18eb0:	66c58593          	addi	a1,a1,1644 # 2566c <__malloc_av_+0x8>
   18eb4:	12d40863          	beq	s0,a3,18fe4 <_malloc_r+0x284>
   18eb8:	00442703          	lw	a4,4(s0)
   18ebc:	00f00613          	li	a2,15
   18ec0:	ffc77713          	andi	a4,a4,-4
   18ec4:	40970533          	sub	a0,a4,s1
   18ec8:	0aa65a63          	ble	a0,a2,18f7c <_malloc_r+0x21c>
   18ecc:	0014e793          	ori	a5,s1,1
   18ed0:	00f42223          	sw	a5,4(s0)
   18ed4:	00940633          	add	a2,s0,s1
   18ed8:	00c92a23          	sw	a2,20(s2)
   18edc:	00c92823          	sw	a2,16(s2)
   18ee0:	00156793          	ori	a5,a0,1
   18ee4:	00d62623          	sw	a3,12(a2)
   18ee8:	00d62423          	sw	a3,8(a2)
   18eec:	00f62223          	sw	a5,4(a2)
   18ef0:	00e40733          	add	a4,s0,a4
   18ef4:	00a72023          	sw	a0,0(a4)
   18ef8:	00098513          	mv	a0,s3
   18efc:	698000ef          	jal	ra,19594 <__malloc_unlock>
   18f00:	00840513          	addi	a0,s0,8
   18f04:	eadff06f          	j	18db0 <_malloc_r+0x50>
   18f08:	01400793          	li	a5,20
   18f0c:	00e7e663          	bltu	a5,a4,18f18 <_malloc_r+0x1b8>
   18f10:	05b70793          	addi	a5,a4,91
   18f14:	f5dff06f          	j	18e70 <_malloc_r+0x110>
   18f18:	05400793          	li	a5,84
   18f1c:	00e7e863          	bltu	a5,a4,18f2c <_malloc_r+0x1cc>
   18f20:	00c4d793          	srli	a5,s1,0xc
   18f24:	06e78793          	addi	a5,a5,110
   18f28:	f49ff06f          	j	18e70 <_malloc_r+0x110>
   18f2c:	15400793          	li	a5,340
   18f30:	00e7e863          	bltu	a5,a4,18f40 <_malloc_r+0x1e0>
   18f34:	00f4d793          	srli	a5,s1,0xf
   18f38:	07778793          	addi	a5,a5,119
   18f3c:	f35ff06f          	j	18e70 <_malloc_r+0x110>
   18f40:	55400693          	li	a3,1364
   18f44:	07e00793          	li	a5,126
   18f48:	f2e6e4e3          	bltu	a3,a4,18e70 <_malloc_r+0x110>
   18f4c:	0124d793          	srli	a5,s1,0x12
   18f50:	07c78793          	addi	a5,a5,124
   18f54:	f1dff06f          	j	18e70 <_malloc_r+0x110>
   18f58:	00c42683          	lw	a3,12(s0)
   18f5c:	00064c63          	bltz	a2,18f74 <_malloc_r+0x214>
   18f60:	00842783          	lw	a5,8(s0)
   18f64:	00d7a623          	sw	a3,12(a5)
   18f68:	00f6a423          	sw	a5,8(a3)
   18f6c:	00e407b3          	add	a5,s0,a4
   18f70:	ed5ff06f          	j	18e44 <_malloc_r+0xe4>
   18f74:	00068413          	mv	s0,a3
   18f78:	f11ff06f          	j	18e88 <_malloc_r+0x128>
   18f7c:	00d92a23          	sw	a3,20(s2)
   18f80:	00d92823          	sw	a3,16(s2)
   18f84:	00054c63          	bltz	a0,18f9c <_malloc_r+0x23c>
   18f88:	00e40733          	add	a4,s0,a4
   18f8c:	00472783          	lw	a5,4(a4)
   18f90:	0017e793          	ori	a5,a5,1
   18f94:	00f72223          	sw	a5,4(a4)
   18f98:	f61ff06f          	j	18ef8 <_malloc_r+0x198>
   18f9c:	1ff00693          	li	a3,511
   18fa0:	00492803          	lw	a6,4(s2)
   18fa4:	16e6e663          	bltu	a3,a4,19110 <_malloc_r+0x3b0>
   18fa8:	00375713          	srli	a4,a4,0x3
   18fac:	40275613          	srai	a2,a4,0x2
   18fb0:	00100693          	li	a3,1
   18fb4:	00170713          	addi	a4,a4,1
   18fb8:	00c696b3          	sll	a3,a3,a2
   18fbc:	00371713          	slli	a4,a4,0x3
   18fc0:	00e90733          	add	a4,s2,a4
   18fc4:	0106e6b3          	or	a3,a3,a6
   18fc8:	00d92223          	sw	a3,4(s2)
   18fcc:	00072683          	lw	a3,0(a4)
   18fd0:	ff870613          	addi	a2,a4,-8
   18fd4:	00c42623          	sw	a2,12(s0)
   18fd8:	00d42423          	sw	a3,8(s0)
   18fdc:	00872023          	sw	s0,0(a4)
   18fe0:	0086a623          	sw	s0,12(a3)
   18fe4:	4027d713          	srai	a4,a5,0x2
   18fe8:	00100313          	li	t1,1
   18fec:	00e31333          	sll	t1,t1,a4
   18ff0:	00492703          	lw	a4,4(s2)
   18ff4:	06676a63          	bltu	a4,t1,19068 <_malloc_r+0x308>
   18ff8:	006776b3          	and	a3,a4,t1
   18ffc:	00069c63          	bnez	a3,19014 <_malloc_r+0x2b4>
   19000:	ffc7f793          	andi	a5,a5,-4
   19004:	00131313          	slli	t1,t1,0x1
   19008:	006776b3          	and	a3,a4,t1
   1900c:	00478793          	addi	a5,a5,4
   19010:	fe068ae3          	beqz	a3,19004 <_malloc_r+0x2a4>
   19014:	00f00e13          	li	t3,15
   19018:	00379693          	slli	a3,a5,0x3
   1901c:	00d906b3          	add	a3,s2,a3
   19020:	00068813          	mv	a6,a3
   19024:	00078513          	mv	a0,a5
   19028:	00c82403          	lw	s0,12(a6)
   1902c:	1b041263          	bne	s0,a6,191d0 <_malloc_r+0x470>
   19030:	00150513          	addi	a0,a0,1
   19034:	00357713          	andi	a4,a0,3
   19038:	00880813          	addi	a6,a6,8
   1903c:	fe0716e3          	bnez	a4,19028 <_malloc_r+0x2c8>
   19040:	0037f713          	andi	a4,a5,3
   19044:	20071463          	bnez	a4,1924c <_malloc_r+0x4ec>
   19048:	00492703          	lw	a4,4(s2)
   1904c:	fff34793          	not	a5,t1
   19050:	00f777b3          	and	a5,a4,a5
   19054:	00f92223          	sw	a5,4(s2)
   19058:	00492703          	lw	a4,4(s2)
   1905c:	00131313          	slli	t1,t1,0x1
   19060:	00676463          	bltu	a4,t1,19068 <_malloc_r+0x308>
   19064:	20031863          	bnez	t1,19274 <_malloc_r+0x514>
   19068:	00892b83          	lw	s7,8(s2)
   1906c:	004ba403          	lw	s0,4(s7)
   19070:	ffc47a93          	andi	s5,s0,-4
   19074:	009ae863          	bltu	s5,s1,19084 <_malloc_r+0x324>
   19078:	409a8733          	sub	a4,s5,s1
   1907c:	00f00793          	li	a5,15
   19080:	32e7c463          	blt	a5,a4,193a8 <_malloc_r+0x648>
   19084:	8601a403          	lw	s0,-1952(gp) # 25ad0 <__malloc_top_pad>
   19088:	8341a703          	lw	a4,-1996(gp) # 25aa4 <__malloc_sbrk_base>
   1908c:	fff00793          	li	a5,-1
   19090:	015b8cb3          	add	s9,s7,s5
   19094:	00848433          	add	s0,s1,s0
   19098:	1ef71263          	bne	a4,a5,1927c <_malloc_r+0x51c>
   1909c:	01040413          	addi	s0,s0,16
   190a0:	00040593          	mv	a1,s0
   190a4:	00098513          	mv	a0,s3
   190a8:	171010ef          	jal	ra,1aa18 <_sbrk_r>
   190ac:	fff00793          	li	a5,-1
   190b0:	00050b13          	mv	s6,a0
   190b4:	28f50063          	beq	a0,a5,19334 <_malloc_r+0x5d4>
   190b8:	01957463          	bleu	s9,a0,190c0 <_malloc_r+0x360>
   190bc:	272b9c63          	bne	s7,s2,19334 <_malloc_r+0x5d4>
   190c0:	88418693          	addi	a3,gp,-1916 # 25af4 <__malloc_current_mallinfo>
   190c4:	0006a703          	lw	a4,0(a3)
   190c8:	88418c13          	addi	s8,gp,-1916 # 25af4 <__malloc_current_mallinfo>
   190cc:	00e40733          	add	a4,s0,a4
   190d0:	00e6a023          	sw	a4,0(a3)
   190d4:	1d6c9063          	bne	s9,s6,19294 <_malloc_r+0x534>
   190d8:	014c9793          	slli	a5,s9,0x14
   190dc:	1a079c63          	bnez	a5,19294 <_malloc_r+0x534>
   190e0:	00892783          	lw	a5,8(s2)
   190e4:	008a8433          	add	s0,s5,s0
   190e8:	00146413          	ori	s0,s0,1
   190ec:	0087a223          	sw	s0,4(a5)
   190f0:	000c2783          	lw	a5,0(s8)
   190f4:	85c1a683          	lw	a3,-1956(gp) # 25acc <__malloc_max_sbrked_mem>
   190f8:	00f6f463          	bleu	a5,a3,19100 <_malloc_r+0x3a0>
   190fc:	84f1ae23          	sw	a5,-1956(gp) # 25acc <__malloc_max_sbrked_mem>
   19100:	8581a683          	lw	a3,-1960(gp) # 25ac8 <__malloc_max_total_mem>
   19104:	22f6f863          	bleu	a5,a3,19334 <_malloc_r+0x5d4>
   19108:	84f1ac23          	sw	a5,-1960(gp) # 25ac8 <__malloc_max_total_mem>
   1910c:	2280006f          	j	19334 <_malloc_r+0x5d4>
   19110:	00975613          	srli	a2,a4,0x9
   19114:	00400693          	li	a3,4
   19118:	04c6e663          	bltu	a3,a2,19164 <_malloc_r+0x404>
   1911c:	00675693          	srli	a3,a4,0x6
   19120:	03868693          	addi	a3,a3,56
   19124:	00168613          	addi	a2,a3,1
   19128:	00361613          	slli	a2,a2,0x3
   1912c:	00c90633          	add	a2,s2,a2
   19130:	ff860513          	addi	a0,a2,-8
   19134:	00062603          	lw	a2,0(a2)
   19138:	08c51263          	bne	a0,a2,191bc <_malloc_r+0x45c>
   1913c:	4026d693          	srai	a3,a3,0x2
   19140:	00100713          	li	a4,1
   19144:	00d716b3          	sll	a3,a4,a3
   19148:	0106e6b3          	or	a3,a3,a6
   1914c:	00d92223          	sw	a3,4(s2)
   19150:	00a42623          	sw	a0,12(s0)
   19154:	00c42423          	sw	a2,8(s0)
   19158:	00852423          	sw	s0,8(a0)
   1915c:	00862623          	sw	s0,12(a2)
   19160:	e85ff06f          	j	18fe4 <_malloc_r+0x284>
   19164:	01400693          	li	a3,20
   19168:	00c6e663          	bltu	a3,a2,19174 <_malloc_r+0x414>
   1916c:	05b60693          	addi	a3,a2,91
   19170:	fb5ff06f          	j	19124 <_malloc_r+0x3c4>
   19174:	05400693          	li	a3,84
   19178:	00c6e863          	bltu	a3,a2,19188 <_malloc_r+0x428>
   1917c:	00c75693          	srli	a3,a4,0xc
   19180:	06e68693          	addi	a3,a3,110
   19184:	fa1ff06f          	j	19124 <_malloc_r+0x3c4>
   19188:	15400693          	li	a3,340
   1918c:	00c6e863          	bltu	a3,a2,1919c <_malloc_r+0x43c>
   19190:	00f75693          	srli	a3,a4,0xf
   19194:	07768693          	addi	a3,a3,119
   19198:	f8dff06f          	j	19124 <_malloc_r+0x3c4>
   1919c:	55400513          	li	a0,1364
   191a0:	07e00693          	li	a3,126
   191a4:	f8c560e3          	bltu	a0,a2,19124 <_malloc_r+0x3c4>
   191a8:	01275693          	srli	a3,a4,0x12
   191ac:	07c68693          	addi	a3,a3,124
   191b0:	f75ff06f          	j	19124 <_malloc_r+0x3c4>
   191b4:	00862603          	lw	a2,8(a2)
   191b8:	00c50863          	beq	a0,a2,191c8 <_malloc_r+0x468>
   191bc:	00462683          	lw	a3,4(a2)
   191c0:	ffc6f693          	andi	a3,a3,-4
   191c4:	fed768e3          	bltu	a4,a3,191b4 <_malloc_r+0x454>
   191c8:	00c62503          	lw	a0,12(a2)
   191cc:	f85ff06f          	j	19150 <_malloc_r+0x3f0>
   191d0:	00442703          	lw	a4,4(s0)
   191d4:	00c42603          	lw	a2,12(s0)
   191d8:	ffc77713          	andi	a4,a4,-4
   191dc:	409708b3          	sub	a7,a4,s1
   191e0:	051e5063          	ble	a7,t3,19220 <_malloc_r+0x4c0>
   191e4:	0014e793          	ori	a5,s1,1
   191e8:	00f42223          	sw	a5,4(s0)
   191ec:	00842783          	lw	a5,8(s0)
   191f0:	009406b3          	add	a3,s0,s1
   191f4:	00e40733          	add	a4,s0,a4
   191f8:	00c7a623          	sw	a2,12(a5)
   191fc:	00f62423          	sw	a5,8(a2)
   19200:	00d92a23          	sw	a3,20(s2)
   19204:	00d92823          	sw	a3,16(s2)
   19208:	0018e793          	ori	a5,a7,1
   1920c:	00b6a623          	sw	a1,12(a3)
   19210:	00b6a423          	sw	a1,8(a3)
   19214:	00f6a223          	sw	a5,4(a3)
   19218:	01172023          	sw	a7,0(a4)
   1921c:	cddff06f          	j	18ef8 <_malloc_r+0x198>
   19220:	0208c263          	bltz	a7,19244 <_malloc_r+0x4e4>
   19224:	00e40733          	add	a4,s0,a4
   19228:	00472783          	lw	a5,4(a4)
   1922c:	0017e793          	ori	a5,a5,1
   19230:	00f72223          	sw	a5,4(a4)
   19234:	00842783          	lw	a5,8(s0)
   19238:	00c7a623          	sw	a2,12(a5)
   1923c:	00f62423          	sw	a5,8(a2)
   19240:	cb9ff06f          	j	18ef8 <_malloc_r+0x198>
   19244:	00060413          	mv	s0,a2
   19248:	de5ff06f          	j	1902c <_malloc_r+0x2cc>
   1924c:	ff868693          	addi	a3,a3,-8
   19250:	0086a703          	lw	a4,8(a3)
   19254:	fff78793          	addi	a5,a5,-1
   19258:	ded704e3          	beq	a4,a3,19040 <_malloc_r+0x2e0>
   1925c:	dfdff06f          	j	19058 <_malloc_r+0x2f8>
   19260:	00478793          	addi	a5,a5,4
   19264:	00131313          	slli	t1,t1,0x1
   19268:	006776b3          	and	a3,a4,t1
   1926c:	fe068ae3          	beqz	a3,19260 <_malloc_r+0x500>
   19270:	da9ff06f          	j	19018 <_malloc_r+0x2b8>
   19274:	00050793          	mv	a5,a0
   19278:	ff1ff06f          	j	19268 <_malloc_r+0x508>
   1927c:	00001737          	lui	a4,0x1
   19280:	00f70713          	addi	a4,a4,15 # 100f <main-0xf065>
   19284:	00e40433          	add	s0,s0,a4
   19288:	fffff7b7          	lui	a5,0xfffff
   1928c:	00f47433          	and	s0,s0,a5
   19290:	e11ff06f          	j	190a0 <_malloc_r+0x340>
   19294:	8341a683          	lw	a3,-1996(gp) # 25aa4 <__malloc_sbrk_base>
   19298:	fff00793          	li	a5,-1
   1929c:	0cf69063          	bne	a3,a5,1935c <_malloc_r+0x5fc>
   192a0:	8361aa23          	sw	s6,-1996(gp) # 25aa4 <__malloc_sbrk_base>
   192a4:	007b7c93          	andi	s9,s6,7
   192a8:	00000793          	li	a5,0
   192ac:	000c8863          	beqz	s9,192bc <_malloc_r+0x55c>
   192b0:	00800793          	li	a5,8
   192b4:	419787b3          	sub	a5,a5,s9
   192b8:	00fb0b33          	add	s6,s6,a5
   192bc:	00001537          	lui	a0,0x1
   192c0:	00a78a33          	add	s4,a5,a0
   192c4:	008b0433          	add	s0,s6,s0
   192c8:	fff50513          	addi	a0,a0,-1 # fff <main-0xf075>
   192cc:	00a477b3          	and	a5,s0,a0
   192d0:	40fa0a33          	sub	s4,s4,a5
   192d4:	00aa7a33          	and	s4,s4,a0
   192d8:	000a0593          	mv	a1,s4
   192dc:	00098513          	mv	a0,s3
   192e0:	738010ef          	jal	ra,1aa18 <_sbrk_r>
   192e4:	fff00793          	li	a5,-1
   192e8:	00f51c63          	bne	a0,a5,19300 <_malloc_r+0x5a0>
   192ec:	00040513          	mv	a0,s0
   192f0:	000c8663          	beqz	s9,192fc <_malloc_r+0x59c>
   192f4:	ff8c8513          	addi	a0,s9,-8
   192f8:	00a40533          	add	a0,s0,a0
   192fc:	00000a13          	li	s4,0
   19300:	000c2783          	lw	a5,0(s8)
   19304:	41650533          	sub	a0,a0,s6
   19308:	01692423          	sw	s6,8(s2)
   1930c:	014787b3          	add	a5,a5,s4
   19310:	01450a33          	add	s4,a0,s4
   19314:	001a6a13          	ori	s4,s4,1
   19318:	00fc2023          	sw	a5,0(s8)
   1931c:	014b2223          	sw	s4,4(s6)
   19320:	dd2b88e3          	beq	s7,s2,190f0 <_malloc_r+0x390>
   19324:	00f00713          	li	a4,15
   19328:	05576263          	bltu	a4,s5,1936c <_malloc_r+0x60c>
   1932c:	00100793          	li	a5,1
   19330:	00fb2223          	sw	a5,4(s6)
   19334:	00892783          	lw	a5,8(s2)
   19338:	0047a783          	lw	a5,4(a5) # fffff004 <__global_pointer$+0xfffd8d94>
   1933c:	ffc7f793          	andi	a5,a5,-4
   19340:	40978733          	sub	a4,a5,s1
   19344:	0097e663          	bltu	a5,s1,19350 <_malloc_r+0x5f0>
   19348:	00f00793          	li	a5,15
   1934c:	04e7ce63          	blt	a5,a4,193a8 <_malloc_r+0x648>
   19350:	00098513          	mv	a0,s3
   19354:	240000ef          	jal	ra,19594 <__malloc_unlock>
   19358:	a55ff06f          	j	18dac <_malloc_r+0x4c>
   1935c:	419b07b3          	sub	a5,s6,s9
   19360:	00e787b3          	add	a5,a5,a4
   19364:	00fc2023          	sw	a5,0(s8)
   19368:	f3dff06f          	j	192a4 <_malloc_r+0x544>
   1936c:	004ba783          	lw	a5,4(s7)
   19370:	ff4a8413          	addi	s0,s5,-12
   19374:	ff847413          	andi	s0,s0,-8
   19378:	0017f793          	andi	a5,a5,1
   1937c:	0087e7b3          	or	a5,a5,s0
   19380:	00fba223          	sw	a5,4(s7)
   19384:	00500693          	li	a3,5
   19388:	008b87b3          	add	a5,s7,s0
   1938c:	00d7a223          	sw	a3,4(a5)
   19390:	00d7a423          	sw	a3,8(a5)
   19394:	d4877ee3          	bleu	s0,a4,190f0 <_malloc_r+0x390>
   19398:	008b8593          	addi	a1,s7,8
   1939c:	00098513          	mv	a0,s3
   193a0:	f7dfc0ef          	jal	ra,1631c <_free_r>
   193a4:	d4dff06f          	j	190f0 <_malloc_r+0x390>
   193a8:	00892403          	lw	s0,8(s2)
   193ac:	0014e793          	ori	a5,s1,1
   193b0:	00f42223          	sw	a5,4(s0)
   193b4:	009407b3          	add	a5,s0,s1
   193b8:	00f92423          	sw	a5,8(s2)
   193bc:	a8dff06f          	j	18e48 <_malloc_r+0xe8>

000193c0 <_mbtowc_r>:
   193c0:	8301a783          	lw	a5,-2000(gp) # 25aa0 <_impure_ptr>
   193c4:	0347a783          	lw	a5,52(a5)
   193c8:	00079663          	bnez	a5,193d4 <_mbtowc_r+0x14>
   193cc:	000257b7          	lui	a5,0x25
   193d0:	4f878793          	addi	a5,a5,1272 # 254f8 <__global_locale>
   193d4:	0e47a303          	lw	t1,228(a5)
   193d8:	00030067          	jr	t1

000193dc <__ascii_mbtowc>:
   193dc:	02059a63          	bnez	a1,19410 <__ascii_mbtowc+0x34>
   193e0:	ff010113          	addi	sp,sp,-16
   193e4:	00c10593          	addi	a1,sp,12
   193e8:	00000513          	li	a0,0
   193ec:	00060e63          	beqz	a2,19408 <__ascii_mbtowc+0x2c>
   193f0:	ffe00513          	li	a0,-2
   193f4:	00068a63          	beqz	a3,19408 <__ascii_mbtowc+0x2c>
   193f8:	00064783          	lbu	a5,0(a2)
   193fc:	00f5a023          	sw	a5,0(a1)
   19400:	00064503          	lbu	a0,0(a2)
   19404:	00a03533          	snez	a0,a0
   19408:	01010113          	addi	sp,sp,16
   1940c:	00008067          	ret
   19410:	00000513          	li	a0,0
   19414:	02060063          	beqz	a2,19434 <__ascii_mbtowc+0x58>
   19418:	ffe00513          	li	a0,-2
   1941c:	00068c63          	beqz	a3,19434 <__ascii_mbtowc+0x58>
   19420:	00064783          	lbu	a5,0(a2)
   19424:	00f5a023          	sw	a5,0(a1)
   19428:	00064503          	lbu	a0,0(a2)
   1942c:	00a03533          	snez	a0,a0
   19430:	00008067          	ret
   19434:	00008067          	ret

00019438 <memchr>:
   19438:	0ff5f593          	andi	a1,a1,255
   1943c:	00c50633          	add	a2,a0,a2
   19440:	00c51663          	bne	a0,a2,1944c <memchr+0x14>
   19444:	00000513          	li	a0,0
   19448:	00008067          	ret
   1944c:	00054783          	lbu	a5,0(a0)
   19450:	feb78ce3          	beq	a5,a1,19448 <memchr+0x10>
   19454:	00150513          	addi	a0,a0,1
   19458:	fe9ff06f          	j	19440 <memchr+0x8>

0001945c <memcpy>:
   1945c:	00a5c7b3          	xor	a5,a1,a0
   19460:	0037f793          	andi	a5,a5,3
   19464:	00c50733          	add	a4,a0,a2
   19468:	00079663          	bnez	a5,19474 <memcpy+0x18>
   1946c:	00300793          	li	a5,3
   19470:	02c7e263          	bltu	a5,a2,19494 <memcpy+0x38>
   19474:	00050793          	mv	a5,a0
   19478:	0ae57c63          	bleu	a4,a0,19530 <memcpy+0xd4>
   1947c:	0005c683          	lbu	a3,0(a1)
   19480:	00178793          	addi	a5,a5,1
   19484:	00158593          	addi	a1,a1,1
   19488:	fed78fa3          	sb	a3,-1(a5)
   1948c:	fee7e8e3          	bltu	a5,a4,1947c <memcpy+0x20>
   19490:	00008067          	ret
   19494:	00357693          	andi	a3,a0,3
   19498:	00050793          	mv	a5,a0
   1949c:	00068e63          	beqz	a3,194b8 <memcpy+0x5c>
   194a0:	0005c683          	lbu	a3,0(a1)
   194a4:	00178793          	addi	a5,a5,1
   194a8:	00158593          	addi	a1,a1,1
   194ac:	fed78fa3          	sb	a3,-1(a5)
   194b0:	0037f693          	andi	a3,a5,3
   194b4:	fe9ff06f          	j	1949c <memcpy+0x40>
   194b8:	ffc77693          	andi	a3,a4,-4
   194bc:	fe068613          	addi	a2,a3,-32
   194c0:	06c7f463          	bleu	a2,a5,19528 <memcpy+0xcc>
   194c4:	0005a383          	lw	t2,0(a1)
   194c8:	0045a283          	lw	t0,4(a1)
   194cc:	0085af83          	lw	t6,8(a1)
   194d0:	00c5af03          	lw	t5,12(a1)
   194d4:	0105ae83          	lw	t4,16(a1)
   194d8:	0145ae03          	lw	t3,20(a1)
   194dc:	0185a303          	lw	t1,24(a1)
   194e0:	01c5a883          	lw	a7,28(a1)
   194e4:	02458593          	addi	a1,a1,36
   194e8:	0077a023          	sw	t2,0(a5)
   194ec:	ffc5a803          	lw	a6,-4(a1)
   194f0:	0057a223          	sw	t0,4(a5)
   194f4:	01f7a423          	sw	t6,8(a5)
   194f8:	01e7a623          	sw	t5,12(a5)
   194fc:	01d7a823          	sw	t4,16(a5)
   19500:	01c7aa23          	sw	t3,20(a5)
   19504:	0067ac23          	sw	t1,24(a5)
   19508:	0117ae23          	sw	a7,28(a5)
   1950c:	02478793          	addi	a5,a5,36
   19510:	ff07ae23          	sw	a6,-4(a5)
   19514:	fadff06f          	j	194c0 <memcpy+0x64>
   19518:	0005a603          	lw	a2,0(a1)
   1951c:	00478793          	addi	a5,a5,4
   19520:	00458593          	addi	a1,a1,4
   19524:	fec7ae23          	sw	a2,-4(a5)
   19528:	fed7e8e3          	bltu	a5,a3,19518 <memcpy+0xbc>
   1952c:	f4e7e8e3          	bltu	a5,a4,1947c <memcpy+0x20>
   19530:	00008067          	ret

00019534 <memmove>:
   19534:	04a5fa63          	bleu	a0,a1,19588 <memmove+0x54>
   19538:	00c586b3          	add	a3,a1,a2
   1953c:	04d57663          	bleu	a3,a0,19588 <memmove+0x54>
   19540:	fff64593          	not	a1,a2
   19544:	00000793          	li	a5,0
   19548:	fff78793          	addi	a5,a5,-1
   1954c:	00f59463          	bne	a1,a5,19554 <memmove+0x20>
   19550:	00008067          	ret
   19554:	00f68733          	add	a4,a3,a5
   19558:	00074803          	lbu	a6,0(a4)
   1955c:	00c78733          	add	a4,a5,a2
   19560:	00e50733          	add	a4,a0,a4
   19564:	01070023          	sb	a6,0(a4)
   19568:	fe1ff06f          	j	19548 <memmove+0x14>
   1956c:	00f58733          	add	a4,a1,a5
   19570:	00074683          	lbu	a3,0(a4)
   19574:	00f50733          	add	a4,a0,a5
   19578:	00178793          	addi	a5,a5,1
   1957c:	00d70023          	sb	a3,0(a4)
   19580:	fef616e3          	bne	a2,a5,1956c <memmove+0x38>
   19584:	00008067          	ret
   19588:	00000793          	li	a5,0
   1958c:	ff5ff06f          	j	19580 <memmove+0x4c>

00019590 <__malloc_lock>:
   19590:	00008067          	ret

00019594 <__malloc_unlock>:
   19594:	00008067          	ret

00019598 <_Balloc>:
   19598:	04c52783          	lw	a5,76(a0)
   1959c:	ff010113          	addi	sp,sp,-16
   195a0:	00912223          	sw	s1,4(sp)
   195a4:	01212023          	sw	s2,0(sp)
   195a8:	00112623          	sw	ra,12(sp)
   195ac:	00812423          	sw	s0,8(sp)
   195b0:	00050493          	mv	s1,a0
   195b4:	00058913          	mv	s2,a1
   195b8:	04078263          	beqz	a5,195fc <_Balloc+0x64>
   195bc:	04c4a703          	lw	a4,76(s1)
   195c0:	00291793          	slli	a5,s2,0x2
   195c4:	00f707b3          	add	a5,a4,a5
   195c8:	0007a503          	lw	a0,0(a5)
   195cc:	06051063          	bnez	a0,1962c <_Balloc+0x94>
   195d0:	00100413          	li	s0,1
   195d4:	01241433          	sll	s0,s0,s2
   195d8:	00540613          	addi	a2,s0,5
   195dc:	00261613          	slli	a2,a2,0x2
   195e0:	00100593          	li	a1,1
   195e4:	00048513          	mv	a0,s1
   195e8:	754040ef          	jal	ra,1dd3c <_calloc_r>
   195ec:	02050263          	beqz	a0,19610 <_Balloc+0x78>
   195f0:	01252223          	sw	s2,4(a0)
   195f4:	00852423          	sw	s0,8(a0)
   195f8:	03c0006f          	j	19634 <_Balloc+0x9c>
   195fc:	02100613          	li	a2,33
   19600:	00400593          	li	a1,4
   19604:	738040ef          	jal	ra,1dd3c <_calloc_r>
   19608:	04a4a623          	sw	a0,76(s1)
   1960c:	fa0518e3          	bnez	a0,195bc <_Balloc+0x24>
   19610:	00000513          	li	a0,0
   19614:	00c12083          	lw	ra,12(sp)
   19618:	00812403          	lw	s0,8(sp)
   1961c:	00412483          	lw	s1,4(sp)
   19620:	00012903          	lw	s2,0(sp)
   19624:	01010113          	addi	sp,sp,16
   19628:	00008067          	ret
   1962c:	00052703          	lw	a4,0(a0)
   19630:	00e7a023          	sw	a4,0(a5)
   19634:	00052823          	sw	zero,16(a0)
   19638:	00052623          	sw	zero,12(a0)
   1963c:	fd9ff06f          	j	19614 <_Balloc+0x7c>

00019640 <_Bfree>:
   19640:	02058063          	beqz	a1,19660 <_Bfree+0x20>
   19644:	0045a783          	lw	a5,4(a1)
   19648:	00279713          	slli	a4,a5,0x2
   1964c:	04c52783          	lw	a5,76(a0)
   19650:	00e787b3          	add	a5,a5,a4
   19654:	0007a703          	lw	a4,0(a5)
   19658:	00e5a023          	sw	a4,0(a1)
   1965c:	00b7a023          	sw	a1,0(a5)
   19660:	00008067          	ret

00019664 <__multadd>:
   19664:	fd010113          	addi	sp,sp,-48
   19668:	02912223          	sw	s1,36(sp)
   1966c:	0105a483          	lw	s1,16(a1)
   19670:	01512a23          	sw	s5,20(sp)
   19674:	00010ab7          	lui	s5,0x10
   19678:	02812423          	sw	s0,40(sp)
   1967c:	03212023          	sw	s2,32(sp)
   19680:	01312e23          	sw	s3,28(sp)
   19684:	01612823          	sw	s6,16(sp)
   19688:	01712623          	sw	s7,12(sp)
   1968c:	01812423          	sw	s8,8(sp)
   19690:	02112623          	sw	ra,44(sp)
   19694:	01412c23          	sw	s4,24(sp)
   19698:	01912223          	sw	s9,4(sp)
   1969c:	00050b13          	mv	s6,a0
   196a0:	00058413          	mv	s0,a1
   196a4:	00060b93          	mv	s7,a2
   196a8:	00068913          	mv	s2,a3
   196ac:	01458993          	addi	s3,a1,20
   196b0:	00000c13          	li	s8,0
   196b4:	fffa8a93          	addi	s5,s5,-1 # ffff <main-0x75>
   196b8:	0009ac83          	lw	s9,0(s3)
   196bc:	000b8593          	mv	a1,s7
   196c0:	00498993          	addi	s3,s3,4
   196c4:	015cf533          	and	a0,s9,s5
   196c8:	bc1f90ef          	jal	ra,13288 <__mulsi3>
   196cc:	01250a33          	add	s4,a0,s2
   196d0:	000b8593          	mv	a1,s7
   196d4:	010cd513          	srli	a0,s9,0x10
   196d8:	bb1f90ef          	jal	ra,13288 <__mulsi3>
   196dc:	010a5793          	srli	a5,s4,0x10
   196e0:	00f50533          	add	a0,a0,a5
   196e4:	01055913          	srli	s2,a0,0x10
   196e8:	015a7a33          	and	s4,s4,s5
   196ec:	01051513          	slli	a0,a0,0x10
   196f0:	01450533          	add	a0,a0,s4
   196f4:	fea9ae23          	sw	a0,-4(s3)
   196f8:	001c0c13          	addi	s8,s8,1
   196fc:	fa9c4ee3          	blt	s8,s1,196b8 <__multadd+0x54>
   19700:	06090063          	beqz	s2,19760 <__multadd+0xfc>
   19704:	00842783          	lw	a5,8(s0)
   19708:	04f4c063          	blt	s1,a5,19748 <__multadd+0xe4>
   1970c:	00442583          	lw	a1,4(s0)
   19710:	000b0513          	mv	a0,s6
   19714:	00158593          	addi	a1,a1,1
   19718:	e81ff0ef          	jal	ra,19598 <_Balloc>
   1971c:	01042603          	lw	a2,16(s0)
   19720:	00c40593          	addi	a1,s0,12
   19724:	00050993          	mv	s3,a0
   19728:	00260613          	addi	a2,a2,2
   1972c:	00261613          	slli	a2,a2,0x2
   19730:	00c50513          	addi	a0,a0,12
   19734:	d29ff0ef          	jal	ra,1945c <memcpy>
   19738:	00040593          	mv	a1,s0
   1973c:	000b0513          	mv	a0,s6
   19740:	f01ff0ef          	jal	ra,19640 <_Bfree>
   19744:	00098413          	mv	s0,s3
   19748:	00448793          	addi	a5,s1,4
   1974c:	00279793          	slli	a5,a5,0x2
   19750:	00f407b3          	add	a5,s0,a5
   19754:	0127a223          	sw	s2,4(a5)
   19758:	00148493          	addi	s1,s1,1
   1975c:	00942823          	sw	s1,16(s0)
   19760:	00040513          	mv	a0,s0
   19764:	02c12083          	lw	ra,44(sp)
   19768:	02812403          	lw	s0,40(sp)
   1976c:	02412483          	lw	s1,36(sp)
   19770:	02012903          	lw	s2,32(sp)
   19774:	01c12983          	lw	s3,28(sp)
   19778:	01812a03          	lw	s4,24(sp)
   1977c:	01412a83          	lw	s5,20(sp)
   19780:	01012b03          	lw	s6,16(sp)
   19784:	00c12b83          	lw	s7,12(sp)
   19788:	00812c03          	lw	s8,8(sp)
   1978c:	00412c83          	lw	s9,4(sp)
   19790:	03010113          	addi	sp,sp,48
   19794:	00008067          	ret

00019798 <__s2b>:
   19798:	fe010113          	addi	sp,sp,-32
   1979c:	00812c23          	sw	s0,24(sp)
   197a0:	01312623          	sw	s3,12(sp)
   197a4:	00058413          	mv	s0,a1
   197a8:	00050993          	mv	s3,a0
   197ac:	00900593          	li	a1,9
   197b0:	00868513          	addi	a0,a3,8
   197b4:	00912a23          	sw	s1,20(sp)
   197b8:	01212823          	sw	s2,16(sp)
   197bc:	01412423          	sw	s4,8(sp)
   197c0:	00112e23          	sw	ra,28(sp)
   197c4:	01512223          	sw	s5,4(sp)
   197c8:	00060493          	mv	s1,a2
   197cc:	00068a13          	mv	s4,a3
   197d0:	00070913          	mv	s2,a4
   197d4:	ad9f90ef          	jal	ra,132ac <__divsi3>
   197d8:	00100793          	li	a5,1
   197dc:	00000593          	li	a1,0
   197e0:	08a7c063          	blt	a5,a0,19860 <__s2b+0xc8>
   197e4:	00098513          	mv	a0,s3
   197e8:	db1ff0ef          	jal	ra,19598 <_Balloc>
   197ec:	00100793          	li	a5,1
   197f0:	00f52823          	sw	a5,16(a0)
   197f4:	01252a23          	sw	s2,20(a0)
   197f8:	00900793          	li	a5,9
   197fc:	0697d863          	ble	s1,a5,1986c <__s2b+0xd4>
   19800:	00940a93          	addi	s5,s0,9
   19804:	000a8913          	mv	s2,s5
   19808:	00940433          	add	s0,s0,s1
   1980c:	00190913          	addi	s2,s2,1
   19810:	fff94683          	lbu	a3,-1(s2)
   19814:	00050593          	mv	a1,a0
   19818:	00a00613          	li	a2,10
   1981c:	fd068693          	addi	a3,a3,-48
   19820:	00098513          	mv	a0,s3
   19824:	e41ff0ef          	jal	ra,19664 <__multadd>
   19828:	fe8912e3          	bne	s2,s0,1980c <__s2b+0x74>
   1982c:	ff848413          	addi	s0,s1,-8
   19830:	008a8433          	add	s0,s5,s0
   19834:	00048913          	mv	s2,s1
   19838:	05494063          	blt	s2,s4,19878 <__s2b+0xe0>
   1983c:	01c12083          	lw	ra,28(sp)
   19840:	01812403          	lw	s0,24(sp)
   19844:	01412483          	lw	s1,20(sp)
   19848:	01012903          	lw	s2,16(sp)
   1984c:	00c12983          	lw	s3,12(sp)
   19850:	00812a03          	lw	s4,8(sp)
   19854:	00412a83          	lw	s5,4(sp)
   19858:	02010113          	addi	sp,sp,32
   1985c:	00008067          	ret
   19860:	00179793          	slli	a5,a5,0x1
   19864:	00158593          	addi	a1,a1,1
   19868:	f79ff06f          	j	197e0 <__s2b+0x48>
   1986c:	00a40413          	addi	s0,s0,10
   19870:	00900493          	li	s1,9
   19874:	fc1ff06f          	j	19834 <__s2b+0x9c>
   19878:	409907b3          	sub	a5,s2,s1
   1987c:	00f407b3          	add	a5,s0,a5
   19880:	0007c683          	lbu	a3,0(a5)
   19884:	00050593          	mv	a1,a0
   19888:	00a00613          	li	a2,10
   1988c:	fd068693          	addi	a3,a3,-48
   19890:	00098513          	mv	a0,s3
   19894:	dd1ff0ef          	jal	ra,19664 <__multadd>
   19898:	00190913          	addi	s2,s2,1
   1989c:	f9dff06f          	j	19838 <__s2b+0xa0>

000198a0 <__hi0bits>:
   198a0:	ffff0737          	lui	a4,0xffff0
   198a4:	00e57733          	and	a4,a0,a4
   198a8:	00050793          	mv	a5,a0
   198ac:	00000513          	li	a0,0
   198b0:	00071663          	bnez	a4,198bc <__hi0bits+0x1c>
   198b4:	01079793          	slli	a5,a5,0x10
   198b8:	01000513          	li	a0,16
   198bc:	ff000737          	lui	a4,0xff000
   198c0:	00e7f733          	and	a4,a5,a4
   198c4:	00071663          	bnez	a4,198d0 <__hi0bits+0x30>
   198c8:	00850513          	addi	a0,a0,8
   198cc:	00879793          	slli	a5,a5,0x8
   198d0:	f0000737          	lui	a4,0xf0000
   198d4:	00e7f733          	and	a4,a5,a4
   198d8:	00071663          	bnez	a4,198e4 <__hi0bits+0x44>
   198dc:	00450513          	addi	a0,a0,4
   198e0:	00479793          	slli	a5,a5,0x4
   198e4:	c0000737          	lui	a4,0xc0000
   198e8:	00e7f733          	and	a4,a5,a4
   198ec:	00071663          	bnez	a4,198f8 <__hi0bits+0x58>
   198f0:	00250513          	addi	a0,a0,2
   198f4:	00279793          	slli	a5,a5,0x2
   198f8:	0007ca63          	bltz	a5,1990c <__hi0bits+0x6c>
   198fc:	00179713          	slli	a4,a5,0x1
   19900:	00150513          	addi	a0,a0,1
   19904:	00074463          	bltz	a4,1990c <__hi0bits+0x6c>
   19908:	02000513          	li	a0,32
   1990c:	00008067          	ret

00019910 <__lo0bits>:
   19910:	00052783          	lw	a5,0(a0)
   19914:	0077f713          	andi	a4,a5,7
   19918:	02070e63          	beqz	a4,19954 <__lo0bits+0x44>
   1991c:	0017f693          	andi	a3,a5,1
   19920:	00000713          	li	a4,0
   19924:	00069c63          	bnez	a3,1993c <__lo0bits+0x2c>
   19928:	0027f713          	andi	a4,a5,2
   1992c:	00070c63          	beqz	a4,19944 <__lo0bits+0x34>
   19930:	0017d793          	srli	a5,a5,0x1
   19934:	00f52023          	sw	a5,0(a0)
   19938:	00100713          	li	a4,1
   1993c:	00070513          	mv	a0,a4
   19940:	00008067          	ret
   19944:	0027d793          	srli	a5,a5,0x2
   19948:	00f52023          	sw	a5,0(a0)
   1994c:	00200713          	li	a4,2
   19950:	fedff06f          	j	1993c <__lo0bits+0x2c>
   19954:	01079693          	slli	a3,a5,0x10
   19958:	0106d693          	srli	a3,a3,0x10
   1995c:	00000713          	li	a4,0
   19960:	00069663          	bnez	a3,1996c <__lo0bits+0x5c>
   19964:	0107d793          	srli	a5,a5,0x10
   19968:	01000713          	li	a4,16
   1996c:	0ff7f693          	andi	a3,a5,255
   19970:	00069663          	bnez	a3,1997c <__lo0bits+0x6c>
   19974:	00870713          	addi	a4,a4,8 # c0000008 <__global_pointer$+0xbffd9d98>
   19978:	0087d793          	srli	a5,a5,0x8
   1997c:	00f7f693          	andi	a3,a5,15
   19980:	00069663          	bnez	a3,1998c <__lo0bits+0x7c>
   19984:	00470713          	addi	a4,a4,4
   19988:	0047d793          	srli	a5,a5,0x4
   1998c:	0037f693          	andi	a3,a5,3
   19990:	00069663          	bnez	a3,1999c <__lo0bits+0x8c>
   19994:	00270713          	addi	a4,a4,2
   19998:	0027d793          	srli	a5,a5,0x2
   1999c:	0017f693          	andi	a3,a5,1
   199a0:	00069863          	bnez	a3,199b0 <__lo0bits+0xa0>
   199a4:	0017d793          	srli	a5,a5,0x1
   199a8:	00170713          	addi	a4,a4,1
   199ac:	00078663          	beqz	a5,199b8 <__lo0bits+0xa8>
   199b0:	00f52023          	sw	a5,0(a0)
   199b4:	f89ff06f          	j	1993c <__lo0bits+0x2c>
   199b8:	02000713          	li	a4,32
   199bc:	f81ff06f          	j	1993c <__lo0bits+0x2c>

000199c0 <__i2b>:
   199c0:	ff010113          	addi	sp,sp,-16
   199c4:	00812423          	sw	s0,8(sp)
   199c8:	00058413          	mv	s0,a1
   199cc:	00100593          	li	a1,1
   199d0:	00112623          	sw	ra,12(sp)
   199d4:	bc5ff0ef          	jal	ra,19598 <_Balloc>
   199d8:	00852a23          	sw	s0,20(a0)
   199dc:	00c12083          	lw	ra,12(sp)
   199e0:	00812403          	lw	s0,8(sp)
   199e4:	00100713          	li	a4,1
   199e8:	00e52823          	sw	a4,16(a0)
   199ec:	01010113          	addi	sp,sp,16
   199f0:	00008067          	ret

000199f4 <__multiply>:
   199f4:	0105a703          	lw	a4,16(a1)
   199f8:	01062783          	lw	a5,16(a2)
   199fc:	fb010113          	addi	sp,sp,-80
   19a00:	04912223          	sw	s1,68(sp)
   19a04:	03412c23          	sw	s4,56(sp)
   19a08:	04112623          	sw	ra,76(sp)
   19a0c:	04812423          	sw	s0,72(sp)
   19a10:	05212023          	sw	s2,64(sp)
   19a14:	03312e23          	sw	s3,60(sp)
   19a18:	03512a23          	sw	s5,52(sp)
   19a1c:	03612823          	sw	s6,48(sp)
   19a20:	03712623          	sw	s7,44(sp)
   19a24:	03812423          	sw	s8,40(sp)
   19a28:	03912223          	sw	s9,36(sp)
   19a2c:	03a12023          	sw	s10,32(sp)
   19a30:	01b12e23          	sw	s11,28(sp)
   19a34:	00058a13          	mv	s4,a1
   19a38:	00060493          	mv	s1,a2
   19a3c:	00f75663          	ble	a5,a4,19a48 <__multiply+0x54>
   19a40:	00060a13          	mv	s4,a2
   19a44:	00058493          	mv	s1,a1
   19a48:	010a2903          	lw	s2,16(s4)
   19a4c:	0104a983          	lw	s3,16(s1)
   19a50:	008a2783          	lw	a5,8(s4)
   19a54:	004a2583          	lw	a1,4(s4)
   19a58:	01390c33          	add	s8,s2,s3
   19a5c:	0187d463          	ble	s8,a5,19a64 <__multiply+0x70>
   19a60:	00158593          	addi	a1,a1,1
   19a64:	b35ff0ef          	jal	ra,19598 <_Balloc>
   19a68:	01450b93          	addi	s7,a0,20
   19a6c:	002c1c93          	slli	s9,s8,0x2
   19a70:	00050d13          	mv	s10,a0
   19a74:	019b8cb3          	add	s9,s7,s9
   19a78:	000b8793          	mv	a5,s7
   19a7c:	0997e463          	bltu	a5,s9,19b04 <__multiply+0x110>
   19a80:	014a0a13          	addi	s4,s4,20
   19a84:	00291913          	slli	s2,s2,0x2
   19a88:	012a07b3          	add	a5,s4,s2
   19a8c:	01448493          	addi	s1,s1,20
   19a90:	00299993          	slli	s3,s3,0x2
   19a94:	00f12023          	sw	a5,0(sp)
   19a98:	00010ab7          	lui	s5,0x10
   19a9c:	013487b3          	add	a5,s1,s3
   19aa0:	00f12223          	sw	a5,4(sp)
   19aa4:	fffa8a93          	addi	s5,s5,-1 # ffff <main-0x75>
   19aa8:	00412783          	lw	a5,4(sp)
   19aac:	06f4e263          	bltu	s1,a5,19b10 <__multiply+0x11c>
   19ab0:	01805863          	blez	s8,19ac0 <__multiply+0xcc>
   19ab4:	ffcc8c93          	addi	s9,s9,-4
   19ab8:	000ca783          	lw	a5,0(s9)
   19abc:	16078a63          	beqz	a5,19c30 <__multiply+0x23c>
   19ac0:	04c12083          	lw	ra,76(sp)
   19ac4:	04812403          	lw	s0,72(sp)
   19ac8:	018d2823          	sw	s8,16(s10)
   19acc:	000d0513          	mv	a0,s10
   19ad0:	04412483          	lw	s1,68(sp)
   19ad4:	04012903          	lw	s2,64(sp)
   19ad8:	03c12983          	lw	s3,60(sp)
   19adc:	03812a03          	lw	s4,56(sp)
   19ae0:	03412a83          	lw	s5,52(sp)
   19ae4:	03012b03          	lw	s6,48(sp)
   19ae8:	02c12b83          	lw	s7,44(sp)
   19aec:	02812c03          	lw	s8,40(sp)
   19af0:	02412c83          	lw	s9,36(sp)
   19af4:	02012d03          	lw	s10,32(sp)
   19af8:	01c12d83          	lw	s11,28(sp)
   19afc:	05010113          	addi	sp,sp,80
   19b00:	00008067          	ret
   19b04:	0007a023          	sw	zero,0(a5)
   19b08:	00478793          	addi	a5,a5,4
   19b0c:	f71ff06f          	j	19a7c <__multiply+0x88>
   19b10:	0004a783          	lw	a5,0(s1)
   19b14:	0157f7b3          	and	a5,a5,s5
   19b18:	08078463          	beqz	a5,19ba0 <__multiply+0x1ac>
   19b1c:	000b8d93          	mv	s11,s7
   19b20:	000a0993          	mv	s3,s4
   19b24:	00000913          	li	s2,0
   19b28:	0009a603          	lw	a2,0(s3)
   19b2c:	00078593          	mv	a1,a5
   19b30:	000da403          	lw	s0,0(s11)
   19b34:	01567533          	and	a0,a2,s5
   19b38:	00f12423          	sw	a5,8(sp)
   19b3c:	00c12623          	sw	a2,12(sp)
   19b40:	f48f90ef          	jal	ra,13288 <__mulsi3>
   19b44:	00812783          	lw	a5,8(sp)
   19b48:	00c12603          	lw	a2,12(sp)
   19b4c:	01547b33          	and	s6,s0,s5
   19b50:	01650b33          	add	s6,a0,s6
   19b54:	00078593          	mv	a1,a5
   19b58:	01065513          	srli	a0,a2,0x10
   19b5c:	f2cf90ef          	jal	ra,13288 <__mulsi3>
   19b60:	012b0b33          	add	s6,s6,s2
   19b64:	01045413          	srli	s0,s0,0x10
   19b68:	00850533          	add	a0,a0,s0
   19b6c:	010b5413          	srli	s0,s6,0x10
   19b70:	00850533          	add	a0,a0,s0
   19b74:	01055913          	srli	s2,a0,0x10
   19b78:	015b7b33          	and	s6,s6,s5
   19b7c:	01051513          	slli	a0,a0,0x10
   19b80:	00012703          	lw	a4,0(sp)
   19b84:	004d8d93          	addi	s11,s11,4
   19b88:	01656533          	or	a0,a0,s6
   19b8c:	00498993          	addi	s3,s3,4
   19b90:	feadae23          	sw	a0,-4(s11)
   19b94:	00812783          	lw	a5,8(sp)
   19b98:	f8e9e8e3          	bltu	s3,a4,19b28 <__multiply+0x134>
   19b9c:	012da023          	sw	s2,0(s11)
   19ba0:	0024d903          	lhu	s2,2(s1)
   19ba4:	08090063          	beqz	s2,19c24 <__multiply+0x230>
   19ba8:	000ba403          	lw	s0,0(s7)
   19bac:	000b8d93          	mv	s11,s7
   19bb0:	000a0993          	mv	s3,s4
   19bb4:	00000693          	li	a3,0
   19bb8:	0009a503          	lw	a0,0(s3)
   19bbc:	00090593          	mv	a1,s2
   19bc0:	00d12423          	sw	a3,8(sp)
   19bc4:	01557533          	and	a0,a0,s5
   19bc8:	ec0f90ef          	jal	ra,13288 <__mulsi3>
   19bcc:	002ddb03          	lhu	s6,2(s11)
   19bd0:	00812683          	lw	a3,8(sp)
   19bd4:	01547433          	and	s0,s0,s5
   19bd8:	01650b33          	add	s6,a0,s6
   19bdc:	00db0b33          	add	s6,s6,a3
   19be0:	010b1513          	slli	a0,s6,0x10
   19be4:	00856433          	or	s0,a0,s0
   19be8:	004d8d93          	addi	s11,s11,4
   19bec:	fe8dae23          	sw	s0,-4(s11)
   19bf0:	00498993          	addi	s3,s3,4
   19bf4:	ffe9d503          	lhu	a0,-2(s3)
   19bf8:	00090593          	mv	a1,s2
   19bfc:	010b5b13          	srli	s6,s6,0x10
   19c00:	e88f90ef          	jal	ra,13288 <__mulsi3>
   19c04:	000da403          	lw	s0,0(s11)
   19c08:	00012783          	lw	a5,0(sp)
   19c0c:	01547433          	and	s0,s0,s5
   19c10:	00850433          	add	s0,a0,s0
   19c14:	01640433          	add	s0,s0,s6
   19c18:	01045693          	srli	a3,s0,0x10
   19c1c:	f8f9eee3          	bltu	s3,a5,19bb8 <__multiply+0x1c4>
   19c20:	008da023          	sw	s0,0(s11)
   19c24:	00448493          	addi	s1,s1,4
   19c28:	004b8b93          	addi	s7,s7,4
   19c2c:	e7dff06f          	j	19aa8 <__multiply+0xb4>
   19c30:	fffc0c13          	addi	s8,s8,-1
   19c34:	e7dff06f          	j	19ab0 <__multiply+0xbc>

00019c38 <__pow5mult>:
   19c38:	fe010113          	addi	sp,sp,-32
   19c3c:	00912a23          	sw	s1,20(sp)
   19c40:	01212823          	sw	s2,16(sp)
   19c44:	01312623          	sw	s3,12(sp)
   19c48:	00112e23          	sw	ra,28(sp)
   19c4c:	00812c23          	sw	s0,24(sp)
   19c50:	01412423          	sw	s4,8(sp)
   19c54:	00367793          	andi	a5,a2,3
   19c58:	00050913          	mv	s2,a0
   19c5c:	00060493          	mv	s1,a2
   19c60:	00058993          	mv	s3,a1
   19c64:	02078463          	beqz	a5,19c8c <__pow5mult+0x54>
   19c68:	fff78793          	addi	a5,a5,-1
   19c6c:	00024737          	lui	a4,0x24
   19c70:	77070713          	addi	a4,a4,1904 # 24770 <p05.3308>
   19c74:	00279793          	slli	a5,a5,0x2
   19c78:	00f707b3          	add	a5,a4,a5
   19c7c:	0007a603          	lw	a2,0(a5)
   19c80:	00000693          	li	a3,0
   19c84:	9e1ff0ef          	jal	ra,19664 <__multadd>
   19c88:	00050993          	mv	s3,a0
   19c8c:	4024d493          	srai	s1,s1,0x2
   19c90:	08048063          	beqz	s1,19d10 <__pow5mult+0xd8>
   19c94:	04892403          	lw	s0,72(s2)
   19c98:	00041e63          	bnez	s0,19cb4 <__pow5mult+0x7c>
   19c9c:	27100593          	li	a1,625
   19ca0:	00090513          	mv	a0,s2
   19ca4:	d1dff0ef          	jal	ra,199c0 <__i2b>
   19ca8:	04a92423          	sw	a0,72(s2)
   19cac:	00050413          	mv	s0,a0
   19cb0:	00052023          	sw	zero,0(a0)
   19cb4:	0014f793          	andi	a5,s1,1
   19cb8:	02078463          	beqz	a5,19ce0 <__pow5mult+0xa8>
   19cbc:	00098593          	mv	a1,s3
   19cc0:	00040613          	mv	a2,s0
   19cc4:	00090513          	mv	a0,s2
   19cc8:	d2dff0ef          	jal	ra,199f4 <__multiply>
   19ccc:	00050a13          	mv	s4,a0
   19cd0:	00098593          	mv	a1,s3
   19cd4:	00090513          	mv	a0,s2
   19cd8:	969ff0ef          	jal	ra,19640 <_Bfree>
   19cdc:	000a0993          	mv	s3,s4
   19ce0:	4014d493          	srai	s1,s1,0x1
   19ce4:	02048663          	beqz	s1,19d10 <__pow5mult+0xd8>
   19ce8:	00042503          	lw	a0,0(s0)
   19cec:	00051e63          	bnez	a0,19d08 <__pow5mult+0xd0>
   19cf0:	00040613          	mv	a2,s0
   19cf4:	00040593          	mv	a1,s0
   19cf8:	00090513          	mv	a0,s2
   19cfc:	cf9ff0ef          	jal	ra,199f4 <__multiply>
   19d00:	00a42023          	sw	a0,0(s0)
   19d04:	00052023          	sw	zero,0(a0)
   19d08:	00050413          	mv	s0,a0
   19d0c:	fa9ff06f          	j	19cb4 <__pow5mult+0x7c>
   19d10:	01c12083          	lw	ra,28(sp)
   19d14:	01812403          	lw	s0,24(sp)
   19d18:	00098513          	mv	a0,s3
   19d1c:	01412483          	lw	s1,20(sp)
   19d20:	01012903          	lw	s2,16(sp)
   19d24:	00c12983          	lw	s3,12(sp)
   19d28:	00812a03          	lw	s4,8(sp)
   19d2c:	02010113          	addi	sp,sp,32
   19d30:	00008067          	ret

00019d34 <__lshift>:
   19d34:	fd010113          	addi	sp,sp,-48
   19d38:	02912223          	sw	s1,36(sp)
   19d3c:	00058493          	mv	s1,a1
   19d40:	01312e23          	sw	s3,28(sp)
   19d44:	0104a983          	lw	s3,16(s1)
   19d48:	02812423          	sw	s0,40(sp)
   19d4c:	0045a583          	lw	a1,4(a1)
   19d50:	40565413          	srai	s0,a2,0x5
   19d54:	0084a783          	lw	a5,8(s1)
   19d58:	013409b3          	add	s3,s0,s3
   19d5c:	03212023          	sw	s2,32(sp)
   19d60:	01512a23          	sw	s5,20(sp)
   19d64:	02112623          	sw	ra,44(sp)
   19d68:	01412c23          	sw	s4,24(sp)
   19d6c:	00050a93          	mv	s5,a0
   19d70:	00198913          	addi	s2,s3,1
   19d74:	0d27c663          	blt	a5,s2,19e40 <__lshift+0x10c>
   19d78:	000a8513          	mv	a0,s5
   19d7c:	00c12623          	sw	a2,12(sp)
   19d80:	819ff0ef          	jal	ra,19598 <_Balloc>
   19d84:	00c12603          	lw	a2,12(sp)
   19d88:	01450793          	addi	a5,a0,20
   19d8c:	00050a13          	mv	s4,a0
   19d90:	00078693          	mv	a3,a5
   19d94:	00000713          	li	a4,0
   19d98:	00468693          	addi	a3,a3,4
   19d9c:	0a874863          	blt	a4,s0,19e4c <__lshift+0x118>
   19da0:	00045463          	bgez	s0,19da8 <__lshift+0x74>
   19da4:	00000413          	li	s0,0
   19da8:	0104a683          	lw	a3,16(s1)
   19dac:	00241413          	slli	s0,s0,0x2
   19db0:	00878733          	add	a4,a5,s0
   19db4:	00269693          	slli	a3,a3,0x2
   19db8:	01448793          	addi	a5,s1,20
   19dbc:	01f67613          	andi	a2,a2,31
   19dc0:	00d786b3          	add	a3,a5,a3
   19dc4:	08060a63          	beqz	a2,19e58 <__lshift+0x124>
   19dc8:	02000813          	li	a6,32
   19dcc:	40c80833          	sub	a6,a6,a2
   19dd0:	00000593          	li	a1,0
   19dd4:	0007a503          	lw	a0,0(a5)
   19dd8:	00470713          	addi	a4,a4,4
   19ddc:	00478793          	addi	a5,a5,4
   19de0:	00c51533          	sll	a0,a0,a2
   19de4:	00b565b3          	or	a1,a0,a1
   19de8:	feb72e23          	sw	a1,-4(a4)
   19dec:	ffc7a583          	lw	a1,-4(a5)
   19df0:	0105d5b3          	srl	a1,a1,a6
   19df4:	fed7e0e3          	bltu	a5,a3,19dd4 <__lshift+0xa0>
   19df8:	00b72023          	sw	a1,0(a4)
   19dfc:	00058463          	beqz	a1,19e04 <__lshift+0xd0>
   19e00:	00298913          	addi	s2,s3,2
   19e04:	fff90913          	addi	s2,s2,-1
   19e08:	012a2823          	sw	s2,16(s4)
   19e0c:	000a8513          	mv	a0,s5
   19e10:	00048593          	mv	a1,s1
   19e14:	82dff0ef          	jal	ra,19640 <_Bfree>
   19e18:	02c12083          	lw	ra,44(sp)
   19e1c:	02812403          	lw	s0,40(sp)
   19e20:	000a0513          	mv	a0,s4
   19e24:	02412483          	lw	s1,36(sp)
   19e28:	02012903          	lw	s2,32(sp)
   19e2c:	01c12983          	lw	s3,28(sp)
   19e30:	01812a03          	lw	s4,24(sp)
   19e34:	01412a83          	lw	s5,20(sp)
   19e38:	03010113          	addi	sp,sp,48
   19e3c:	00008067          	ret
   19e40:	00158593          	addi	a1,a1,1
   19e44:	00179793          	slli	a5,a5,0x1
   19e48:	f2dff06f          	j	19d74 <__lshift+0x40>
   19e4c:	fe06ae23          	sw	zero,-4(a3)
   19e50:	00170713          	addi	a4,a4,1
   19e54:	f45ff06f          	j	19d98 <__lshift+0x64>
   19e58:	00478793          	addi	a5,a5,4
   19e5c:	ffc7a603          	lw	a2,-4(a5)
   19e60:	00470713          	addi	a4,a4,4
   19e64:	fec72e23          	sw	a2,-4(a4)
   19e68:	fed7e8e3          	bltu	a5,a3,19e58 <__lshift+0x124>
   19e6c:	f99ff06f          	j	19e04 <__lshift+0xd0>

00019e70 <__mcmp>:
   19e70:	01052783          	lw	a5,16(a0)
   19e74:	0105a703          	lw	a4,16(a1)
   19e78:	40e787b3          	sub	a5,a5,a4
   19e7c:	02079c63          	bnez	a5,19eb4 <__mcmp+0x44>
   19e80:	00271713          	slli	a4,a4,0x2
   19e84:	01450513          	addi	a0,a0,20
   19e88:	01458593          	addi	a1,a1,20
   19e8c:	00e506b3          	add	a3,a0,a4
   19e90:	00e585b3          	add	a1,a1,a4
   19e94:	ffc68693          	addi	a3,a3,-4
   19e98:	ffc58593          	addi	a1,a1,-4
   19e9c:	0006a603          	lw	a2,0(a3)
   19ea0:	0005a703          	lw	a4,0(a1)
   19ea4:	00e60c63          	beq	a2,a4,19ebc <__mcmp+0x4c>
   19ea8:	fff00793          	li	a5,-1
   19eac:	00e66463          	bltu	a2,a4,19eb4 <__mcmp+0x44>
   19eb0:	00100793          	li	a5,1
   19eb4:	00078513          	mv	a0,a5
   19eb8:	00008067          	ret
   19ebc:	fcd56ce3          	bltu	a0,a3,19e94 <__mcmp+0x24>
   19ec0:	ff5ff06f          	j	19eb4 <__mcmp+0x44>

00019ec4 <__mdiff>:
   19ec4:	fe010113          	addi	sp,sp,-32
   19ec8:	00912a23          	sw	s1,20(sp)
   19ecc:	00058493          	mv	s1,a1
   19ed0:	01312623          	sw	s3,12(sp)
   19ed4:	00060593          	mv	a1,a2
   19ed8:	00050993          	mv	s3,a0
   19edc:	00048513          	mv	a0,s1
   19ee0:	00812c23          	sw	s0,24(sp)
   19ee4:	00112e23          	sw	ra,28(sp)
   19ee8:	01212823          	sw	s2,16(sp)
   19eec:	00060413          	mv	s0,a2
   19ef0:	f81ff0ef          	jal	ra,19e70 <__mcmp>
   19ef4:	02051c63          	bnez	a0,19f2c <__mdiff+0x68>
   19ef8:	00000593          	li	a1,0
   19efc:	00098513          	mv	a0,s3
   19f00:	e98ff0ef          	jal	ra,19598 <_Balloc>
   19f04:	00100793          	li	a5,1
   19f08:	00f52823          	sw	a5,16(a0)
   19f0c:	00052a23          	sw	zero,20(a0)
   19f10:	01c12083          	lw	ra,28(sp)
   19f14:	01812403          	lw	s0,24(sp)
   19f18:	01412483          	lw	s1,20(sp)
   19f1c:	01012903          	lw	s2,16(sp)
   19f20:	00c12983          	lw	s3,12(sp)
   19f24:	02010113          	addi	sp,sp,32
   19f28:	00008067          	ret
   19f2c:	00100913          	li	s2,1
   19f30:	00054a63          	bltz	a0,19f44 <__mdiff+0x80>
   19f34:	00040793          	mv	a5,s0
   19f38:	00000913          	li	s2,0
   19f3c:	00048413          	mv	s0,s1
   19f40:	00078493          	mv	s1,a5
   19f44:	00442583          	lw	a1,4(s0)
   19f48:	00098513          	mv	a0,s3
   19f4c:	e4cff0ef          	jal	ra,19598 <_Balloc>
   19f50:	01042303          	lw	t1,16(s0)
   19f54:	0104a883          	lw	a7,16(s1)
   19f58:	01440613          	addi	a2,s0,20
   19f5c:	00231e13          	slli	t3,t1,0x2
   19f60:	01448813          	addi	a6,s1,20
   19f64:	00289893          	slli	a7,a7,0x2
   19f68:	00010eb7          	lui	t4,0x10
   19f6c:	01252623          	sw	s2,12(a0)
   19f70:	01c60e33          	add	t3,a2,t3
   19f74:	011808b3          	add	a7,a6,a7
   19f78:	01450693          	addi	a3,a0,20
   19f7c:	00000f13          	li	t5,0
   19f80:	fffe8e93          	addi	t4,t4,-1 # ffff <main-0x75>
   19f84:	00062703          	lw	a4,0(a2)
   19f88:	00082f83          	lw	t6,0(a6)
   19f8c:	00468693          	addi	a3,a3,4
   19f90:	01d775b3          	and	a1,a4,t4
   19f94:	01dff7b3          	and	a5,t6,t4
   19f98:	01e585b3          	add	a1,a1,t5
   19f9c:	40f585b3          	sub	a1,a1,a5
   19fa0:	010fdf93          	srli	t6,t6,0x10
   19fa4:	01075793          	srli	a5,a4,0x10
   19fa8:	41f787b3          	sub	a5,a5,t6
   19fac:	4105d713          	srai	a4,a1,0x10
   19fb0:	00e787b3          	add	a5,a5,a4
   19fb4:	4107df13          	srai	t5,a5,0x10
   19fb8:	01d5f5b3          	and	a1,a1,t4
   19fbc:	01079793          	slli	a5,a5,0x10
   19fc0:	00b7e7b3          	or	a5,a5,a1
   19fc4:	00480813          	addi	a6,a6,4
   19fc8:	fef6ae23          	sw	a5,-4(a3)
   19fcc:	00460613          	addi	a2,a2,4
   19fd0:	fb186ae3          	bltu	a6,a7,19f84 <__mdiff+0xc0>
   19fd4:	000105b7          	lui	a1,0x10
   19fd8:	fff58593          	addi	a1,a1,-1 # ffff <main-0x75>
   19fdc:	01c66c63          	bltu	a2,t3,19ff4 <__mdiff+0x130>
   19fe0:	ffc68693          	addi	a3,a3,-4
   19fe4:	0006a783          	lw	a5,0(a3)
   19fe8:	04078263          	beqz	a5,1a02c <__mdiff+0x168>
   19fec:	00652823          	sw	t1,16(a0)
   19ff0:	f21ff06f          	j	19f10 <__mdiff+0x4c>
   19ff4:	00062783          	lw	a5,0(a2)
   19ff8:	00468693          	addi	a3,a3,4
   19ffc:	00460613          	addi	a2,a2,4
   1a000:	00b7f733          	and	a4,a5,a1
   1a004:	01e70733          	add	a4,a4,t5
   1a008:	41075813          	srai	a6,a4,0x10
   1a00c:	0107d793          	srli	a5,a5,0x10
   1a010:	010787b3          	add	a5,a5,a6
   1a014:	4107df13          	srai	t5,a5,0x10
   1a018:	00b77733          	and	a4,a4,a1
   1a01c:	01079793          	slli	a5,a5,0x10
   1a020:	00e7e7b3          	or	a5,a5,a4
   1a024:	fef6ae23          	sw	a5,-4(a3)
   1a028:	fb5ff06f          	j	19fdc <__mdiff+0x118>
   1a02c:	fff30313          	addi	t1,t1,-1
   1a030:	fb1ff06f          	j	19fe0 <__mdiff+0x11c>

0001a034 <__ulp>:
   1a034:	7ff007b7          	lui	a5,0x7ff00
   1a038:	00b7f5b3          	and	a1,a5,a1
   1a03c:	fcc007b7          	lui	a5,0xfcc00
   1a040:	00f585b3          	add	a1,a1,a5
   1a044:	00b05863          	blez	a1,1a054 <__ulp+0x20>
   1a048:	00000793          	li	a5,0
   1a04c:	00078513          	mv	a0,a5
   1a050:	00008067          	ret
   1a054:	40b005b3          	neg	a1,a1
   1a058:	4145d793          	srai	a5,a1,0x14
   1a05c:	01300713          	li	a4,19
   1a060:	00f74863          	blt	a4,a5,1a070 <__ulp+0x3c>
   1a064:	000805b7          	lui	a1,0x80
   1a068:	40f5d5b3          	sra	a1,a1,a5
   1a06c:	fddff06f          	j	1a048 <__ulp+0x14>
   1a070:	fec78713          	addi	a4,a5,-20 # fcbfffec <__global_pointer$+0xfcbd9d7c>
   1a074:	01e00693          	li	a3,30
   1a078:	00000593          	li	a1,0
   1a07c:	00100793          	li	a5,1
   1a080:	fce6c6e3          	blt	a3,a4,1a04c <__ulp+0x18>
   1a084:	800007b7          	lui	a5,0x80000
   1a088:	00e7d7b3          	srl	a5,a5,a4
   1a08c:	fc1ff06f          	j	1a04c <__ulp+0x18>

0001a090 <__b2d>:
   1a090:	fd010113          	addi	sp,sp,-48
   1a094:	02912223          	sw	s1,36(sp)
   1a098:	01052483          	lw	s1,16(a0)
   1a09c:	01312e23          	sw	s3,28(sp)
   1a0a0:	01450993          	addi	s3,a0,20
   1a0a4:	00249493          	slli	s1,s1,0x2
   1a0a8:	009984b3          	add	s1,s3,s1
   1a0ac:	02812423          	sw	s0,40(sp)
   1a0b0:	ffc4a403          	lw	s0,-4(s1)
   1a0b4:	03212023          	sw	s2,32(sp)
   1a0b8:	00b12623          	sw	a1,12(sp)
   1a0bc:	00040513          	mv	a0,s0
   1a0c0:	02112623          	sw	ra,44(sp)
   1a0c4:	fdcff0ef          	jal	ra,198a0 <__hi0bits>
   1a0c8:	00c12583          	lw	a1,12(sp)
   1a0cc:	02000793          	li	a5,32
   1a0d0:	40a787b3          	sub	a5,a5,a0
   1a0d4:	00f5a023          	sw	a5,0(a1) # 80000 <__global_pointer$+0x59d90>
   1a0d8:	00a00793          	li	a5,10
   1a0dc:	ffc48913          	addi	s2,s1,-4
   1a0e0:	04a7cc63          	blt	a5,a0,1a138 <__b2d+0xa8>
   1a0e4:	00b00793          	li	a5,11
   1a0e8:	40a787b3          	sub	a5,a5,a0
   1a0ec:	3ff00737          	lui	a4,0x3ff00
   1a0f0:	00f456b3          	srl	a3,s0,a5
   1a0f4:	00e6e6b3          	or	a3,a3,a4
   1a0f8:	00000713          	li	a4,0
   1a0fc:	0129f463          	bleu	s2,s3,1a104 <__b2d+0x74>
   1a100:	ff84a703          	lw	a4,-8(s1)
   1a104:	01550513          	addi	a0,a0,21
   1a108:	00a41533          	sll	a0,s0,a0
   1a10c:	00f757b3          	srl	a5,a4,a5
   1a110:	00f567b3          	or	a5,a0,a5
   1a114:	02c12083          	lw	ra,44(sp)
   1a118:	02812403          	lw	s0,40(sp)
   1a11c:	02412483          	lw	s1,36(sp)
   1a120:	02012903          	lw	s2,32(sp)
   1a124:	01c12983          	lw	s3,28(sp)
   1a128:	00078513          	mv	a0,a5
   1a12c:	00068593          	mv	a1,a3
   1a130:	03010113          	addi	sp,sp,48
   1a134:	00008067          	ret
   1a138:	00000793          	li	a5,0
   1a13c:	0129f663          	bleu	s2,s3,1a148 <__b2d+0xb8>
   1a140:	ff84a783          	lw	a5,-8(s1)
   1a144:	ff848913          	addi	s2,s1,-8
   1a148:	ff550513          	addi	a0,a0,-11
   1a14c:	02050e63          	beqz	a0,1a188 <__b2d+0xf8>
   1a150:	02000713          	li	a4,32
   1a154:	40a70633          	sub	a2,a4,a0
   1a158:	00c7d733          	srl	a4,a5,a2
   1a15c:	00a41433          	sll	s0,s0,a0
   1a160:	00e46433          	or	s0,s0,a4
   1a164:	3ff006b7          	lui	a3,0x3ff00
   1a168:	00d466b3          	or	a3,s0,a3
   1a16c:	00000713          	li	a4,0
   1a170:	0129f463          	bleu	s2,s3,1a178 <__b2d+0xe8>
   1a174:	ffc92703          	lw	a4,-4(s2)
   1a178:	00a797b3          	sll	a5,a5,a0
   1a17c:	00c75733          	srl	a4,a4,a2
   1a180:	00e7e7b3          	or	a5,a5,a4
   1a184:	f91ff06f          	j	1a114 <__b2d+0x84>
   1a188:	3ff006b7          	lui	a3,0x3ff00
   1a18c:	00d466b3          	or	a3,s0,a3
   1a190:	f85ff06f          	j	1a114 <__b2d+0x84>

0001a194 <__d2b>:
   1a194:	fd010113          	addi	sp,sp,-48
   1a198:	02812423          	sw	s0,40(sp)
   1a19c:	00058413          	mv	s0,a1
   1a1a0:	00100593          	li	a1,1
   1a1a4:	02912223          	sw	s1,36(sp)
   1a1a8:	03212023          	sw	s2,32(sp)
   1a1ac:	00060493          	mv	s1,a2
   1a1b0:	01312e23          	sw	s3,28(sp)
   1a1b4:	01412c23          	sw	s4,24(sp)
   1a1b8:	00070913          	mv	s2,a4
   1a1bc:	02112623          	sw	ra,44(sp)
   1a1c0:	00068a13          	mv	s4,a3
   1a1c4:	bd4ff0ef          	jal	ra,19598 <_Balloc>
   1a1c8:	00100737          	lui	a4,0x100
   1a1cc:	fff70793          	addi	a5,a4,-1 # fffff <__global_pointer$+0xd9d8f>
   1a1d0:	0097f7b3          	and	a5,a5,s1
   1a1d4:	0144d493          	srli	s1,s1,0x14
   1a1d8:	7ff4f493          	andi	s1,s1,2047
   1a1dc:	00050993          	mv	s3,a0
   1a1e0:	08049a63          	bnez	s1,1a274 <__d2b+0xe0>
   1a1e4:	00f12623          	sw	a5,12(sp)
   1a1e8:	08040e63          	beqz	s0,1a284 <__d2b+0xf0>
   1a1ec:	00810513          	addi	a0,sp,8
   1a1f0:	00812423          	sw	s0,8(sp)
   1a1f4:	f1cff0ef          	jal	ra,19910 <__lo0bits>
   1a1f8:	00812683          	lw	a3,8(sp)
   1a1fc:	08050063          	beqz	a0,1a27c <__d2b+0xe8>
   1a200:	00c12703          	lw	a4,12(sp)
   1a204:	02000793          	li	a5,32
   1a208:	40a787b3          	sub	a5,a5,a0
   1a20c:	00f717b3          	sll	a5,a4,a5
   1a210:	00d7e7b3          	or	a5,a5,a3
   1a214:	00a75733          	srl	a4,a4,a0
   1a218:	00f9aa23          	sw	a5,20(s3)
   1a21c:	00e12623          	sw	a4,12(sp)
   1a220:	00c12403          	lw	s0,12(sp)
   1a224:	0089ac23          	sw	s0,24(s3)
   1a228:	00803433          	snez	s0,s0
   1a22c:	00140413          	addi	s0,s0,1
   1a230:	0089a823          	sw	s0,16(s3)
   1a234:	06048a63          	beqz	s1,1a2a8 <__d2b+0x114>
   1a238:	bcd48493          	addi	s1,s1,-1075
   1a23c:	00a484b3          	add	s1,s1,a0
   1a240:	03500793          	li	a5,53
   1a244:	009a2023          	sw	s1,0(s4)
   1a248:	40a78533          	sub	a0,a5,a0
   1a24c:	00a92023          	sw	a0,0(s2)
   1a250:	02c12083          	lw	ra,44(sp)
   1a254:	02812403          	lw	s0,40(sp)
   1a258:	00098513          	mv	a0,s3
   1a25c:	02412483          	lw	s1,36(sp)
   1a260:	02012903          	lw	s2,32(sp)
   1a264:	01c12983          	lw	s3,28(sp)
   1a268:	01812a03          	lw	s4,24(sp)
   1a26c:	03010113          	addi	sp,sp,48
   1a270:	00008067          	ret
   1a274:	00e7e7b3          	or	a5,a5,a4
   1a278:	f6dff06f          	j	1a1e4 <__d2b+0x50>
   1a27c:	00d9aa23          	sw	a3,20(s3)
   1a280:	fa1ff06f          	j	1a220 <__d2b+0x8c>
   1a284:	00c10513          	addi	a0,sp,12
   1a288:	e88ff0ef          	jal	ra,19910 <__lo0bits>
   1a28c:	00c12783          	lw	a5,12(sp)
   1a290:	02050513          	addi	a0,a0,32
   1a294:	00100413          	li	s0,1
   1a298:	00f9aa23          	sw	a5,20(s3)
   1a29c:	00100793          	li	a5,1
   1a2a0:	00f9a823          	sw	a5,16(s3)
   1a2a4:	f91ff06f          	j	1a234 <__d2b+0xa0>
   1a2a8:	00241793          	slli	a5,s0,0x2
   1a2ac:	bce50513          	addi	a0,a0,-1074
   1a2b0:	00f987b3          	add	a5,s3,a5
   1a2b4:	00aa2023          	sw	a0,0(s4)
   1a2b8:	0107a503          	lw	a0,16(a5) # 80000010 <__global_pointer$+0x7ffd9da0>
   1a2bc:	00541413          	slli	s0,s0,0x5
   1a2c0:	de0ff0ef          	jal	ra,198a0 <__hi0bits>
   1a2c4:	40a40433          	sub	s0,s0,a0
   1a2c8:	00892023          	sw	s0,0(s2)
   1a2cc:	f85ff06f          	j	1a250 <__d2b+0xbc>

0001a2d0 <__ratio>:
   1a2d0:	fd010113          	addi	sp,sp,-48
   1a2d4:	03212023          	sw	s2,32(sp)
   1a2d8:	00058913          	mv	s2,a1
   1a2dc:	00810593          	addi	a1,sp,8
   1a2e0:	02112623          	sw	ra,44(sp)
   1a2e4:	02812423          	sw	s0,40(sp)
   1a2e8:	02912223          	sw	s1,36(sp)
   1a2ec:	01312e23          	sw	s3,28(sp)
   1a2f0:	01412c23          	sw	s4,24(sp)
   1a2f4:	00050a13          	mv	s4,a0
   1a2f8:	d99ff0ef          	jal	ra,1a090 <__b2d>
   1a2fc:	00050993          	mv	s3,a0
   1a300:	00058493          	mv	s1,a1
   1a304:	00058413          	mv	s0,a1
   1a308:	00090513          	mv	a0,s2
   1a30c:	00c10593          	addi	a1,sp,12
   1a310:	d81ff0ef          	jal	ra,1a090 <__b2d>
   1a314:	01092783          	lw	a5,16(s2)
   1a318:	010a2703          	lw	a4,16(s4)
   1a31c:	00812683          	lw	a3,8(sp)
   1a320:	40f70733          	sub	a4,a4,a5
   1a324:	00c12783          	lw	a5,12(sp)
   1a328:	00571713          	slli	a4,a4,0x5
   1a32c:	40f686b3          	sub	a3,a3,a5
   1a330:	00d707b3          	add	a5,a4,a3
   1a334:	04f05463          	blez	a5,1a37c <__ratio+0xac>
   1a338:	01479793          	slli	a5,a5,0x14
   1a33c:	00058613          	mv	a2,a1
   1a340:	00978433          	add	s0,a5,s1
   1a344:	00060713          	mv	a4,a2
   1a348:	00040593          	mv	a1,s0
   1a34c:	00050613          	mv	a2,a0
   1a350:	00070693          	mv	a3,a4
   1a354:	00098513          	mv	a0,s3
   1a358:	c8cf80ef          	jal	ra,127e4 <__divdf3>
   1a35c:	02c12083          	lw	ra,44(sp)
   1a360:	02812403          	lw	s0,40(sp)
   1a364:	02412483          	lw	s1,36(sp)
   1a368:	02012903          	lw	s2,32(sp)
   1a36c:	01c12983          	lw	s3,28(sp)
   1a370:	01812a03          	lw	s4,24(sp)
   1a374:	03010113          	addi	sp,sp,48
   1a378:	00008067          	ret
   1a37c:	01479793          	slli	a5,a5,0x14
   1a380:	40f58633          	sub	a2,a1,a5
   1a384:	fc1ff06f          	j	1a344 <__ratio+0x74>

0001a388 <_mprec_log10>:
   1a388:	ff010113          	addi	sp,sp,-16
   1a38c:	00812423          	sw	s0,8(sp)
   1a390:	00112623          	sw	ra,12(sp)
   1a394:	01212223          	sw	s2,4(sp)
   1a398:	01312023          	sw	s3,0(sp)
   1a39c:	01700793          	li	a5,23
   1a3a0:	00050413          	mv	s0,a0
   1a3a4:	02a7ca63          	blt	a5,a0,1a3d8 <_mprec_log10+0x50>
   1a3a8:	000247b7          	lui	a5,0x24
   1a3ac:	00351413          	slli	s0,a0,0x3
   1a3b0:	77078793          	addi	a5,a5,1904 # 24770 <p05.3308>
   1a3b4:	00878433          	add	s0,a5,s0
   1a3b8:	01042503          	lw	a0,16(s0)
   1a3bc:	01442583          	lw	a1,20(s0)
   1a3c0:	00c12083          	lw	ra,12(sp)
   1a3c4:	00812403          	lw	s0,8(sp)
   1a3c8:	00412903          	lw	s2,4(sp)
   1a3cc:	00012983          	lw	s3,0(sp)
   1a3d0:	01010113          	addi	sp,sp,16
   1a3d4:	00008067          	ret
   1a3d8:	000267b7          	lui	a5,0x26
   1a3dc:	a707a503          	lw	a0,-1424(a5) # 25a70 <__TMC_END__+0x4>
   1a3e0:	a747a583          	lw	a1,-1420(a5)
   1a3e4:	000267b7          	lui	a5,0x26
   1a3e8:	a787a903          	lw	s2,-1416(a5) # 25a78 <__TMC_END__+0xc>
   1a3ec:	a7c7a983          	lw	s3,-1412(a5)
   1a3f0:	00090613          	mv	a2,s2
   1a3f4:	00098693          	mv	a3,s3
   1a3f8:	fff40413          	addi	s0,s0,-1
   1a3fc:	4f9050ef          	jal	ra,200f4 <__muldf3>
   1a400:	fe0418e3          	bnez	s0,1a3f0 <_mprec_log10+0x68>
   1a404:	fbdff06f          	j	1a3c0 <_mprec_log10+0x38>

0001a408 <__copybits>:
   1a408:	fff58793          	addi	a5,a1,-1
   1a40c:	01062703          	lw	a4,16(a2)
   1a410:	4057d793          	srai	a5,a5,0x5
   1a414:	00178793          	addi	a5,a5,1
   1a418:	00279793          	slli	a5,a5,0x2
   1a41c:	01460693          	addi	a3,a2,20
   1a420:	00271713          	slli	a4,a4,0x2
   1a424:	00f507b3          	add	a5,a0,a5
   1a428:	00e68733          	add	a4,a3,a4
   1a42c:	00e6e663          	bltu	a3,a4,1a438 <__copybits+0x30>
   1a430:	00f56e63          	bltu	a0,a5,1a44c <__copybits+0x44>
   1a434:	00008067          	ret
   1a438:	00468693          	addi	a3,a3,4 # 3ff00004 <__global_pointer$+0x3fed9d94>
   1a43c:	ffc6a603          	lw	a2,-4(a3)
   1a440:	00450513          	addi	a0,a0,4
   1a444:	fec52e23          	sw	a2,-4(a0)
   1a448:	fe5ff06f          	j	1a42c <__copybits+0x24>
   1a44c:	00450513          	addi	a0,a0,4
   1a450:	fe052e23          	sw	zero,-4(a0)
   1a454:	fddff06f          	j	1a430 <__copybits+0x28>

0001a458 <__any_on>:
   1a458:	01052683          	lw	a3,16(a0)
   1a45c:	4055d793          	srai	a5,a1,0x5
   1a460:	01450713          	addi	a4,a0,20
   1a464:	04f6c063          	blt	a3,a5,1a4a4 <__any_on+0x4c>
   1a468:	02d7d463          	ble	a3,a5,1a490 <__any_on+0x38>
   1a46c:	01f5f593          	andi	a1,a1,31
   1a470:	02058063          	beqz	a1,1a490 <__any_on+0x38>
   1a474:	00279693          	slli	a3,a5,0x2
   1a478:	00d706b3          	add	a3,a4,a3
   1a47c:	0006a603          	lw	a2,0(a3)
   1a480:	00100513          	li	a0,1
   1a484:	00b656b3          	srl	a3,a2,a1
   1a488:	00b695b3          	sll	a1,a3,a1
   1a48c:	02b61863          	bne	a2,a1,1a4bc <__any_on+0x64>
   1a490:	00279793          	slli	a5,a5,0x2
   1a494:	00f707b3          	add	a5,a4,a5
   1a498:	00f76a63          	bltu	a4,a5,1a4ac <__any_on+0x54>
   1a49c:	00000513          	li	a0,0
   1a4a0:	00008067          	ret
   1a4a4:	00068793          	mv	a5,a3
   1a4a8:	fe9ff06f          	j	1a490 <__any_on+0x38>
   1a4ac:	ffc78793          	addi	a5,a5,-4
   1a4b0:	0007a683          	lw	a3,0(a5)
   1a4b4:	fe0682e3          	beqz	a3,1a498 <__any_on+0x40>
   1a4b8:	00100513          	li	a0,1
   1a4bc:	00008067          	ret

0001a4c0 <_realloc_r>:
   1a4c0:	fc010113          	addi	sp,sp,-64
   1a4c4:	02812c23          	sw	s0,56(sp)
   1a4c8:	02112e23          	sw	ra,60(sp)
   1a4cc:	00058413          	mv	s0,a1
   1a4d0:	02912a23          	sw	s1,52(sp)
   1a4d4:	03212823          	sw	s2,48(sp)
   1a4d8:	03312623          	sw	s3,44(sp)
   1a4dc:	03412423          	sw	s4,40(sp)
   1a4e0:	03512223          	sw	s5,36(sp)
   1a4e4:	03612023          	sw	s6,32(sp)
   1a4e8:	01712e23          	sw	s7,28(sp)
   1a4ec:	01812c23          	sw	s8,24(sp)
   1a4f0:	00060593          	mv	a1,a2
   1a4f4:	02041a63          	bnez	s0,1a528 <_realloc_r+0x68>
   1a4f8:	03812403          	lw	s0,56(sp)
   1a4fc:	03c12083          	lw	ra,60(sp)
   1a500:	03412483          	lw	s1,52(sp)
   1a504:	03012903          	lw	s2,48(sp)
   1a508:	02c12983          	lw	s3,44(sp)
   1a50c:	02812a03          	lw	s4,40(sp)
   1a510:	02412a83          	lw	s5,36(sp)
   1a514:	02012b03          	lw	s6,32(sp)
   1a518:	01c12b83          	lw	s7,28(sp)
   1a51c:	01812c03          	lw	s8,24(sp)
   1a520:	04010113          	addi	sp,sp,64
   1a524:	83dfe06f          	j	18d60 <_malloc_r>
   1a528:	00050a93          	mv	s5,a0
   1a52c:	00c12623          	sw	a2,12(sp)
   1a530:	860ff0ef          	jal	ra,19590 <__malloc_lock>
   1a534:	00c12583          	lw	a1,12(sp)
   1a538:	01600793          	li	a5,22
   1a53c:	00b58993          	addi	s3,a1,11
   1a540:	0537f663          	bleu	s3,a5,1a58c <_realloc_r+0xcc>
   1a544:	ff89fb13          	andi	s6,s3,-8
   1a548:	040b5463          	bgez	s6,1a590 <_realloc_r+0xd0>
   1a54c:	00c00793          	li	a5,12
   1a550:	00faa023          	sw	a5,0(s5)
   1a554:	00000a13          	li	s4,0
   1a558:	03c12083          	lw	ra,60(sp)
   1a55c:	03812403          	lw	s0,56(sp)
   1a560:	000a0513          	mv	a0,s4
   1a564:	03412483          	lw	s1,52(sp)
   1a568:	03012903          	lw	s2,48(sp)
   1a56c:	02c12983          	lw	s3,44(sp)
   1a570:	02812a03          	lw	s4,40(sp)
   1a574:	02412a83          	lw	s5,36(sp)
   1a578:	02012b03          	lw	s6,32(sp)
   1a57c:	01c12b83          	lw	s7,28(sp)
   1a580:	01812c03          	lw	s8,24(sp)
   1a584:	04010113          	addi	sp,sp,64
   1a588:	00008067          	ret
   1a58c:	01000b13          	li	s6,16
   1a590:	fabb6ee3          	bltu	s6,a1,1a54c <_realloc_r+0x8c>
   1a594:	ffc42683          	lw	a3,-4(s0)
   1a598:	ff840b93          	addi	s7,s0,-8
   1a59c:	ffc6f913          	andi	s2,a3,-4
   1a5a0:	45695c63          	ble	s6,s2,1a9f8 <_realloc_r+0x538>
   1a5a4:	00025c37          	lui	s8,0x25
   1a5a8:	664c0713          	addi	a4,s8,1636 # 25664 <__malloc_av_>
   1a5ac:	00872603          	lw	a2,8(a4)
   1a5b0:	012b87b3          	add	a5,s7,s2
   1a5b4:	0047a703          	lw	a4,4(a5)
   1a5b8:	664c0c13          	addi	s8,s8,1636
   1a5bc:	00f60c63          	beq	a2,a5,1a5d4 <_realloc_r+0x114>
   1a5c0:	ffe77513          	andi	a0,a4,-2
   1a5c4:	00a78533          	add	a0,a5,a0
   1a5c8:	00452503          	lw	a0,4(a0)
   1a5cc:	00157513          	andi	a0,a0,1
   1a5d0:	06051463          	bnez	a0,1a638 <_realloc_r+0x178>
   1a5d4:	ffc77713          	andi	a4,a4,-4
   1a5d8:	00e909b3          	add	s3,s2,a4
   1a5dc:	04f61063          	bne	a2,a5,1a61c <_realloc_r+0x15c>
   1a5e0:	010b0513          	addi	a0,s6,16
   1a5e4:	04a9ce63          	blt	s3,a0,1a640 <_realloc_r+0x180>
   1a5e8:	016b8bb3          	add	s7,s7,s6
   1a5ec:	416989b3          	sub	s3,s3,s6
   1a5f0:	017c2423          	sw	s7,8(s8)
   1a5f4:	0019e993          	ori	s3,s3,1
   1a5f8:	013ba223          	sw	s3,4(s7)
   1a5fc:	ffc42983          	lw	s3,-4(s0)
   1a600:	000a8513          	mv	a0,s5
   1a604:	00040a13          	mv	s4,s0
   1a608:	0019f993          	andi	s3,s3,1
   1a60c:	0169e9b3          	or	s3,s3,s6
   1a610:	ff342e23          	sw	s3,-4(s0)
   1a614:	f81fe0ef          	jal	ra,19594 <__malloc_unlock>
   1a618:	f41ff06f          	j	1a558 <_realloc_r+0x98>
   1a61c:	0369c263          	blt	s3,s6,1a640 <_realloc_r+0x180>
   1a620:	00c7a703          	lw	a4,12(a5)
   1a624:	0087a783          	lw	a5,8(a5)
   1a628:	00e7a623          	sw	a4,12(a5)
   1a62c:	00f72423          	sw	a5,8(a4)
   1a630:	000b8493          	mv	s1,s7
   1a634:	1900006f          	j	1a7c4 <_realloc_r+0x304>
   1a638:	00000713          	li	a4,0
   1a63c:	00000793          	li	a5,0
   1a640:	0016f693          	andi	a3,a3,1
   1a644:	2c069863          	bnez	a3,1a914 <_realloc_r+0x454>
   1a648:	ff842483          	lw	s1,-8(s0)
   1a64c:	409b84b3          	sub	s1,s7,s1
   1a650:	0044aa03          	lw	s4,4(s1)
   1a654:	ffca7a13          	andi	s4,s4,-4
   1a658:	012a0a33          	add	s4,s4,s2
   1a65c:	20078263          	beqz	a5,1a860 <_realloc_r+0x3a0>
   1a660:	014709b3          	add	s3,a4,s4
   1a664:	0ef61663          	bne	a2,a5,1a750 <_realloc_r+0x290>
   1a668:	010b0793          	addi	a5,s6,16
   1a66c:	1ef9ca63          	blt	s3,a5,1a860 <_realloc_r+0x3a0>
   1a670:	0084a703          	lw	a4,8(s1)
   1a674:	00c4a783          	lw	a5,12(s1)
   1a678:	ffc90613          	addi	a2,s2,-4
   1a67c:	00848a13          	addi	s4,s1,8
   1a680:	00f72623          	sw	a5,12(a4)
   1a684:	00e7a423          	sw	a4,8(a5)
   1a688:	02400713          	li	a4,36
   1a68c:	0ac76a63          	bltu	a4,a2,1a740 <_realloc_r+0x280>
   1a690:	01300693          	li	a3,19
   1a694:	000a0793          	mv	a5,s4
   1a698:	02c6f263          	bleu	a2,a3,1a6bc <_realloc_r+0x1fc>
   1a69c:	00042783          	lw	a5,0(s0)
   1a6a0:	00f4a423          	sw	a5,8(s1)
   1a6a4:	00442783          	lw	a5,4(s0)
   1a6a8:	00f4a623          	sw	a5,12(s1)
   1a6ac:	01b00793          	li	a5,27
   1a6b0:	04c7ea63          	bltu	a5,a2,1a704 <_realloc_r+0x244>
   1a6b4:	00840413          	addi	s0,s0,8
   1a6b8:	01048793          	addi	a5,s1,16
   1a6bc:	00042703          	lw	a4,0(s0)
   1a6c0:	00e7a023          	sw	a4,0(a5)
   1a6c4:	00442703          	lw	a4,4(s0)
   1a6c8:	00e7a223          	sw	a4,4(a5)
   1a6cc:	00842703          	lw	a4,8(s0)
   1a6d0:	00e7a423          	sw	a4,8(a5)
   1a6d4:	016487b3          	add	a5,s1,s6
   1a6d8:	416989b3          	sub	s3,s3,s6
   1a6dc:	00fc2423          	sw	a5,8(s8)
   1a6e0:	0019e993          	ori	s3,s3,1
   1a6e4:	0137a223          	sw	s3,4(a5)
   1a6e8:	0044a783          	lw	a5,4(s1)
   1a6ec:	0017f793          	andi	a5,a5,1
   1a6f0:	0167e9b3          	or	s3,a5,s6
   1a6f4:	0134a223          	sw	s3,4(s1)
   1a6f8:	000a8513          	mv	a0,s5
   1a6fc:	e99fe0ef          	jal	ra,19594 <__malloc_unlock>
   1a700:	e59ff06f          	j	1a558 <_realloc_r+0x98>
   1a704:	00842783          	lw	a5,8(s0)
   1a708:	00f4a823          	sw	a5,16(s1)
   1a70c:	00c42783          	lw	a5,12(s0)
   1a710:	00f4aa23          	sw	a5,20(s1)
   1a714:	00e60863          	beq	a2,a4,1a724 <_realloc_r+0x264>
   1a718:	01040413          	addi	s0,s0,16
   1a71c:	01848793          	addi	a5,s1,24
   1a720:	f9dff06f          	j	1a6bc <_realloc_r+0x1fc>
   1a724:	01042783          	lw	a5,16(s0)
   1a728:	01840413          	addi	s0,s0,24
   1a72c:	00f4ac23          	sw	a5,24(s1)
   1a730:	ffc42703          	lw	a4,-4(s0)
   1a734:	02048793          	addi	a5,s1,32
   1a738:	00e4ae23          	sw	a4,28(s1)
   1a73c:	f81ff06f          	j	1a6bc <_realloc_r+0x1fc>
   1a740:	00040593          	mv	a1,s0
   1a744:	000a0513          	mv	a0,s4
   1a748:	dedfe0ef          	jal	ra,19534 <memmove>
   1a74c:	f89ff06f          	j	1a6d4 <_realloc_r+0x214>
   1a750:	1169c863          	blt	s3,s6,1a860 <_realloc_r+0x3a0>
   1a754:	00c7a703          	lw	a4,12(a5)
   1a758:	0087a783          	lw	a5,8(a5)
   1a75c:	ffc90613          	addi	a2,s2,-4
   1a760:	00848513          	addi	a0,s1,8
   1a764:	00e7a623          	sw	a4,12(a5)
   1a768:	00f72423          	sw	a5,8(a4)
   1a76c:	0084a703          	lw	a4,8(s1)
   1a770:	00c4a783          	lw	a5,12(s1)
   1a774:	00f72623          	sw	a5,12(a4)
   1a778:	00e7a423          	sw	a4,8(a5)
   1a77c:	02400793          	li	a5,36
   1a780:	0cc7ea63          	bltu	a5,a2,1a854 <_realloc_r+0x394>
   1a784:	01300713          	li	a4,19
   1a788:	02c77263          	bleu	a2,a4,1a7ac <_realloc_r+0x2ec>
   1a78c:	00042703          	lw	a4,0(s0)
   1a790:	00e4a423          	sw	a4,8(s1)
   1a794:	00442703          	lw	a4,4(s0)
   1a798:	00e4a623          	sw	a4,12(s1)
   1a79c:	01b00713          	li	a4,27
   1a7a0:	06c76c63          	bltu	a4,a2,1a818 <_realloc_r+0x358>
   1a7a4:	00840413          	addi	s0,s0,8
   1a7a8:	01048513          	addi	a0,s1,16
   1a7ac:	00042783          	lw	a5,0(s0)
   1a7b0:	00f52023          	sw	a5,0(a0)
   1a7b4:	00442783          	lw	a5,4(s0)
   1a7b8:	00f52223          	sw	a5,4(a0)
   1a7bc:	00842783          	lw	a5,8(s0)
   1a7c0:	00f52423          	sw	a5,8(a0)
   1a7c4:	0044a703          	lw	a4,4(s1)
   1a7c8:	416986b3          	sub	a3,s3,s6
   1a7cc:	00f00613          	li	a2,15
   1a7d0:	00177713          	andi	a4,a4,1
   1a7d4:	013487b3          	add	a5,s1,s3
   1a7d8:	22d67463          	bleu	a3,a2,1aa00 <_realloc_r+0x540>
   1a7dc:	00eb69b3          	or	s3,s6,a4
   1a7e0:	0134a223          	sw	s3,4(s1)
   1a7e4:	016485b3          	add	a1,s1,s6
   1a7e8:	0016e693          	ori	a3,a3,1
   1a7ec:	00d5a223          	sw	a3,4(a1)
   1a7f0:	0047a703          	lw	a4,4(a5)
   1a7f4:	00858593          	addi	a1,a1,8
   1a7f8:	000a8513          	mv	a0,s5
   1a7fc:	00176713          	ori	a4,a4,1
   1a800:	00e7a223          	sw	a4,4(a5)
   1a804:	b19fb0ef          	jal	ra,1631c <_free_r>
   1a808:	000a8513          	mv	a0,s5
   1a80c:	d89fe0ef          	jal	ra,19594 <__malloc_unlock>
   1a810:	00848a13          	addi	s4,s1,8
   1a814:	d45ff06f          	j	1a558 <_realloc_r+0x98>
   1a818:	00842703          	lw	a4,8(s0)
   1a81c:	00e4a823          	sw	a4,16(s1)
   1a820:	00c42703          	lw	a4,12(s0)
   1a824:	00e4aa23          	sw	a4,20(s1)
   1a828:	00f60863          	beq	a2,a5,1a838 <_realloc_r+0x378>
   1a82c:	01040413          	addi	s0,s0,16
   1a830:	01848513          	addi	a0,s1,24
   1a834:	f79ff06f          	j	1a7ac <_realloc_r+0x2ec>
   1a838:	01042783          	lw	a5,16(s0)
   1a83c:	02048513          	addi	a0,s1,32
   1a840:	01840413          	addi	s0,s0,24
   1a844:	00f4ac23          	sw	a5,24(s1)
   1a848:	ffc42783          	lw	a5,-4(s0)
   1a84c:	00f4ae23          	sw	a5,28(s1)
   1a850:	f5dff06f          	j	1a7ac <_realloc_r+0x2ec>
   1a854:	00040593          	mv	a1,s0
   1a858:	cddfe0ef          	jal	ra,19534 <memmove>
   1a85c:	f69ff06f          	j	1a7c4 <_realloc_r+0x304>
   1a860:	0b6a4a63          	blt	s4,s6,1a914 <_realloc_r+0x454>
   1a864:	00c4a783          	lw	a5,12(s1)
   1a868:	0084a703          	lw	a4,8(s1)
   1a86c:	ffc90613          	addi	a2,s2,-4
   1a870:	00848513          	addi	a0,s1,8
   1a874:	00f72623          	sw	a5,12(a4)
   1a878:	00e7a423          	sw	a4,8(a5)
   1a87c:	02400793          	li	a5,36
   1a880:	08c7e463          	bltu	a5,a2,1a908 <_realloc_r+0x448>
   1a884:	01300713          	li	a4,19
   1a888:	02c77263          	bleu	a2,a4,1a8ac <_realloc_r+0x3ec>
   1a88c:	00042703          	lw	a4,0(s0)
   1a890:	00e4a423          	sw	a4,8(s1)
   1a894:	00442703          	lw	a4,4(s0)
   1a898:	00e4a623          	sw	a4,12(s1)
   1a89c:	01b00713          	li	a4,27
   1a8a0:	02c76663          	bltu	a4,a2,1a8cc <_realloc_r+0x40c>
   1a8a4:	00840413          	addi	s0,s0,8
   1a8a8:	01048513          	addi	a0,s1,16
   1a8ac:	00042783          	lw	a5,0(s0)
   1a8b0:	00f52023          	sw	a5,0(a0)
   1a8b4:	00442783          	lw	a5,4(s0)
   1a8b8:	00f52223          	sw	a5,4(a0)
   1a8bc:	00842783          	lw	a5,8(s0)
   1a8c0:	00f52423          	sw	a5,8(a0)
   1a8c4:	000a0993          	mv	s3,s4
   1a8c8:	efdff06f          	j	1a7c4 <_realloc_r+0x304>
   1a8cc:	00842703          	lw	a4,8(s0)
   1a8d0:	00e4a823          	sw	a4,16(s1)
   1a8d4:	00c42703          	lw	a4,12(s0)
   1a8d8:	00e4aa23          	sw	a4,20(s1)
   1a8dc:	00f60863          	beq	a2,a5,1a8ec <_realloc_r+0x42c>
   1a8e0:	01040413          	addi	s0,s0,16
   1a8e4:	01848513          	addi	a0,s1,24
   1a8e8:	fc5ff06f          	j	1a8ac <_realloc_r+0x3ec>
   1a8ec:	01042783          	lw	a5,16(s0)
   1a8f0:	02048513          	addi	a0,s1,32
   1a8f4:	01840413          	addi	s0,s0,24
   1a8f8:	00f4ac23          	sw	a5,24(s1)
   1a8fc:	ffc42783          	lw	a5,-4(s0)
   1a900:	00f4ae23          	sw	a5,28(s1)
   1a904:	fa9ff06f          	j	1a8ac <_realloc_r+0x3ec>
   1a908:	00040593          	mv	a1,s0
   1a90c:	c29fe0ef          	jal	ra,19534 <memmove>
   1a910:	fb5ff06f          	j	1a8c4 <_realloc_r+0x404>
   1a914:	000a8513          	mv	a0,s5
   1a918:	c48fe0ef          	jal	ra,18d60 <_malloc_r>
   1a91c:	00050a13          	mv	s4,a0
   1a920:	dc050ce3          	beqz	a0,1a6f8 <_realloc_r+0x238>
   1a924:	ffc42783          	lw	a5,-4(s0)
   1a928:	ff850713          	addi	a4,a0,-8
   1a92c:	ffe7f793          	andi	a5,a5,-2
   1a930:	00fb87b3          	add	a5,s7,a5
   1a934:	00e79a63          	bne	a5,a4,1a948 <_realloc_r+0x488>
   1a938:	ffc52983          	lw	s3,-4(a0)
   1a93c:	ffc9f993          	andi	s3,s3,-4
   1a940:	012989b3          	add	s3,s3,s2
   1a944:	cedff06f          	j	1a630 <_realloc_r+0x170>
   1a948:	ffc90613          	addi	a2,s2,-4
   1a94c:	02400793          	li	a5,36
   1a950:	08c7ee63          	bltu	a5,a2,1a9ec <_realloc_r+0x52c>
   1a954:	01300713          	li	a4,19
   1a958:	08c77463          	bleu	a2,a4,1a9e0 <_realloc_r+0x520>
   1a95c:	00042703          	lw	a4,0(s0)
   1a960:	00e52023          	sw	a4,0(a0)
   1a964:	00442703          	lw	a4,4(s0)
   1a968:	00e52223          	sw	a4,4(a0)
   1a96c:	01b00713          	li	a4,27
   1a970:	02c76a63          	bltu	a4,a2,1a9a4 <_realloc_r+0x4e4>
   1a974:	00840713          	addi	a4,s0,8
   1a978:	00850793          	addi	a5,a0,8
   1a97c:	00072683          	lw	a3,0(a4)
   1a980:	00d7a023          	sw	a3,0(a5)
   1a984:	00472683          	lw	a3,4(a4)
   1a988:	00d7a223          	sw	a3,4(a5)
   1a98c:	00872703          	lw	a4,8(a4)
   1a990:	00e7a423          	sw	a4,8(a5)
   1a994:	00040593          	mv	a1,s0
   1a998:	000a8513          	mv	a0,s5
   1a99c:	981fb0ef          	jal	ra,1631c <_free_r>
   1a9a0:	d59ff06f          	j	1a6f8 <_realloc_r+0x238>
   1a9a4:	00842703          	lw	a4,8(s0)
   1a9a8:	00e52423          	sw	a4,8(a0)
   1a9ac:	00c42703          	lw	a4,12(s0)
   1a9b0:	00e52623          	sw	a4,12(a0)
   1a9b4:	00f60863          	beq	a2,a5,1a9c4 <_realloc_r+0x504>
   1a9b8:	01040713          	addi	a4,s0,16
   1a9bc:	01050793          	addi	a5,a0,16
   1a9c0:	fbdff06f          	j	1a97c <_realloc_r+0x4bc>
   1a9c4:	01042783          	lw	a5,16(s0)
   1a9c8:	01840713          	addi	a4,s0,24
   1a9cc:	00f52823          	sw	a5,16(a0)
   1a9d0:	01442683          	lw	a3,20(s0)
   1a9d4:	01850793          	addi	a5,a0,24
   1a9d8:	00d52a23          	sw	a3,20(a0)
   1a9dc:	fa1ff06f          	j	1a97c <_realloc_r+0x4bc>
   1a9e0:	00050793          	mv	a5,a0
   1a9e4:	00040713          	mv	a4,s0
   1a9e8:	f95ff06f          	j	1a97c <_realloc_r+0x4bc>
   1a9ec:	00040593          	mv	a1,s0
   1a9f0:	b45fe0ef          	jal	ra,19534 <memmove>
   1a9f4:	fa1ff06f          	j	1a994 <_realloc_r+0x4d4>
   1a9f8:	00090993          	mv	s3,s2
   1a9fc:	c35ff06f          	j	1a630 <_realloc_r+0x170>
   1aa00:	00e9e9b3          	or	s3,s3,a4
   1aa04:	0134a223          	sw	s3,4(s1)
   1aa08:	0047a703          	lw	a4,4(a5)
   1aa0c:	00176713          	ori	a4,a4,1
   1aa10:	00e7a223          	sw	a4,4(a5)
   1aa14:	df5ff06f          	j	1a808 <_realloc_r+0x348>

0001aa18 <_sbrk_r>:
   1aa18:	ff010113          	addi	sp,sp,-16
   1aa1c:	00812423          	sw	s0,8(sp)
   1aa20:	00912223          	sw	s1,4(sp)
   1aa24:	00050493          	mv	s1,a0
   1aa28:	00058513          	mv	a0,a1
   1aa2c:	00112623          	sw	ra,12(sp)
   1aa30:	8c01a023          	sw	zero,-1856(gp) # 25b30 <errno>
   1aa34:	15d040ef          	jal	ra,1f390 <_sbrk>
   1aa38:	fff00793          	li	a5,-1
   1aa3c:	00f51863          	bne	a0,a5,1aa4c <_sbrk_r+0x34>
   1aa40:	8c01a783          	lw	a5,-1856(gp) # 25b30 <errno>
   1aa44:	00078463          	beqz	a5,1aa4c <_sbrk_r+0x34>
   1aa48:	00f4a023          	sw	a5,0(s1)
   1aa4c:	00c12083          	lw	ra,12(sp)
   1aa50:	00812403          	lw	s0,8(sp)
   1aa54:	00412483          	lw	s1,4(sp)
   1aa58:	01010113          	addi	sp,sp,16
   1aa5c:	00008067          	ret

0001aa60 <frexp>:
   1aa60:	ff010113          	addi	sp,sp,-16
   1aa64:	00912223          	sw	s1,4(sp)
   1aa68:	800004b7          	lui	s1,0x80000
   1aa6c:	00812423          	sw	s0,8(sp)
   1aa70:	00112623          	sw	ra,12(sp)
   1aa74:	fff4c493          	not	s1,s1
   1aa78:	00b4f733          	and	a4,s1,a1
   1aa7c:	00062023          	sw	zero,0(a2)
   1aa80:	7ff00837          	lui	a6,0x7ff00
   1aa84:	00050693          	mv	a3,a0
   1aa88:	00058793          	mv	a5,a1
   1aa8c:	00060413          	mv	s0,a2
   1aa90:	07075263          	ble	a6,a4,1aaf4 <frexp+0x94>
   1aa94:	00a768b3          	or	a7,a4,a0
   1aa98:	04088e63          	beqz	a7,1aaf4 <frexp+0x94>
   1aa9c:	0105f833          	and	a6,a1,a6
   1aaa0:	00058613          	mv	a2,a1
   1aaa4:	02081463          	bnez	a6,1aacc <frexp+0x6c>
   1aaa8:	000267b7          	lui	a5,0x26
   1aaac:	a887a603          	lw	a2,-1400(a5) # 25a88 <__TMC_END__+0x1c>
   1aab0:	a8c7a683          	lw	a3,-1396(a5)
   1aab4:	640050ef          	jal	ra,200f4 <__muldf3>
   1aab8:	fca00793          	li	a5,-54
   1aabc:	00050693          	mv	a3,a0
   1aac0:	00058613          	mv	a2,a1
   1aac4:	00b4f733          	and	a4,s1,a1
   1aac8:	00f42023          	sw	a5,0(s0)
   1aacc:	00042783          	lw	a5,0(s0)
   1aad0:	41475713          	srai	a4,a4,0x14
   1aad4:	c0270713          	addi	a4,a4,-1022
   1aad8:	00e78733          	add	a4,a5,a4
   1aadc:	801007b7          	lui	a5,0x80100
   1aae0:	fff78793          	addi	a5,a5,-1 # 800fffff <__global_pointer$+0x800d9d8f>
   1aae4:	00f67633          	and	a2,a2,a5
   1aae8:	3fe007b7          	lui	a5,0x3fe00
   1aaec:	00e42023          	sw	a4,0(s0)
   1aaf0:	00f667b3          	or	a5,a2,a5
   1aaf4:	00c12083          	lw	ra,12(sp)
   1aaf8:	00812403          	lw	s0,8(sp)
   1aafc:	00412483          	lw	s1,4(sp)
   1ab00:	00068513          	mv	a0,a3
   1ab04:	00078593          	mv	a1,a5
   1ab08:	01010113          	addi	sp,sp,16
   1ab0c:	00008067          	ret

0001ab10 <_sprintf_r>:
   1ab10:	f6010113          	addi	sp,sp,-160
   1ab14:	08f12a23          	sw	a5,148(sp)
   1ab18:	800007b7          	lui	a5,0x80000
   1ab1c:	fff7c793          	not	a5,a5
   1ab20:	00f12e23          	sw	a5,28(sp)
   1ab24:	00f12823          	sw	a5,16(sp)
   1ab28:	ffff07b7          	lui	a5,0xffff0
   1ab2c:	08d12623          	sw	a3,140(sp)
   1ab30:	00b12423          	sw	a1,8(sp)
   1ab34:	00b12c23          	sw	a1,24(sp)
   1ab38:	20878793          	addi	a5,a5,520 # ffff0208 <__global_pointer$+0xfffc9f98>
   1ab3c:	08c10693          	addi	a3,sp,140
   1ab40:	00810593          	addi	a1,sp,8
   1ab44:	06112e23          	sw	ra,124(sp)
   1ab48:	00f12a23          	sw	a5,20(sp)
   1ab4c:	08e12823          	sw	a4,144(sp)
   1ab50:	09012c23          	sw	a6,152(sp)
   1ab54:	09112e23          	sw	a7,156(sp)
   1ab58:	00d12223          	sw	a3,4(sp)
   1ab5c:	394000ef          	jal	ra,1aef0 <_svfprintf_r>
   1ab60:	00812783          	lw	a5,8(sp)
   1ab64:	00078023          	sb	zero,0(a5)
   1ab68:	07c12083          	lw	ra,124(sp)
   1ab6c:	0a010113          	addi	sp,sp,160
   1ab70:	00008067          	ret

0001ab74 <sprintf>:
   1ab74:	f6010113          	addi	sp,sp,-160
   1ab78:	08f12a23          	sw	a5,148(sp)
   1ab7c:	800007b7          	lui	a5,0x80000
   1ab80:	fff7c793          	not	a5,a5
   1ab84:	00f12e23          	sw	a5,28(sp)
   1ab88:	00f12823          	sw	a5,16(sp)
   1ab8c:	ffff07b7          	lui	a5,0xffff0
   1ab90:	20878793          	addi	a5,a5,520 # ffff0208 <__global_pointer$+0xfffc9f98>
   1ab94:	00f12a23          	sw	a5,20(sp)
   1ab98:	00a12423          	sw	a0,8(sp)
   1ab9c:	00a12c23          	sw	a0,24(sp)
   1aba0:	8301a503          	lw	a0,-2000(gp) # 25aa0 <_impure_ptr>
   1aba4:	08c12423          	sw	a2,136(sp)
   1aba8:	08d12623          	sw	a3,140(sp)
   1abac:	00058613          	mv	a2,a1
   1abb0:	08810693          	addi	a3,sp,136
   1abb4:	00810593          	addi	a1,sp,8
   1abb8:	06112e23          	sw	ra,124(sp)
   1abbc:	08e12823          	sw	a4,144(sp)
   1abc0:	09012c23          	sw	a6,152(sp)
   1abc4:	09112e23          	sw	a7,156(sp)
   1abc8:	00d12223          	sw	a3,4(sp)
   1abcc:	324000ef          	jal	ra,1aef0 <_svfprintf_r>
   1abd0:	00812783          	lw	a5,8(sp)
   1abd4:	00078023          	sb	zero,0(a5)
   1abd8:	07c12083          	lw	ra,124(sp)
   1abdc:	0a010113          	addi	sp,sp,160
   1abe0:	00008067          	ret

0001abe4 <__sread>:
   1abe4:	ff010113          	addi	sp,sp,-16
   1abe8:	00812423          	sw	s0,8(sp)
   1abec:	00058413          	mv	s0,a1
   1abf0:	00e59583          	lh	a1,14(a1)
   1abf4:	00112623          	sw	ra,12(sp)
   1abf8:	59c030ef          	jal	ra,1e194 <_read_r>
   1abfc:	02054063          	bltz	a0,1ac1c <__sread+0x38>
   1ac00:	05042783          	lw	a5,80(s0)
   1ac04:	00a787b3          	add	a5,a5,a0
   1ac08:	04f42823          	sw	a5,80(s0)
   1ac0c:	00c12083          	lw	ra,12(sp)
   1ac10:	00812403          	lw	s0,8(sp)
   1ac14:	01010113          	addi	sp,sp,16
   1ac18:	00008067          	ret
   1ac1c:	00c45783          	lhu	a5,12(s0)
   1ac20:	fffff737          	lui	a4,0xfffff
   1ac24:	fff70713          	addi	a4,a4,-1 # ffffefff <__global_pointer$+0xfffd8d8f>
   1ac28:	00e7f7b3          	and	a5,a5,a4
   1ac2c:	00f41623          	sh	a5,12(s0)
   1ac30:	fddff06f          	j	1ac0c <__sread+0x28>

0001ac34 <__seofread>:
   1ac34:	00000513          	li	a0,0
   1ac38:	00008067          	ret

0001ac3c <__swrite>:
   1ac3c:	00c5d783          	lhu	a5,12(a1)
   1ac40:	fe010113          	addi	sp,sp,-32
   1ac44:	00812c23          	sw	s0,24(sp)
   1ac48:	00912a23          	sw	s1,20(sp)
   1ac4c:	01212823          	sw	s2,16(sp)
   1ac50:	01312623          	sw	s3,12(sp)
   1ac54:	00112e23          	sw	ra,28(sp)
   1ac58:	1007f793          	andi	a5,a5,256
   1ac5c:	00050493          	mv	s1,a0
   1ac60:	00058413          	mv	s0,a1
   1ac64:	00060913          	mv	s2,a2
   1ac68:	00068993          	mv	s3,a3
   1ac6c:	00078a63          	beqz	a5,1ac80 <__swrite+0x44>
   1ac70:	00e59583          	lh	a1,14(a1)
   1ac74:	00200693          	li	a3,2
   1ac78:	00000613          	li	a2,0
   1ac7c:	4c8030ef          	jal	ra,1e144 <_lseek_r>
   1ac80:	00c45783          	lhu	a5,12(s0)
   1ac84:	fffff737          	lui	a4,0xfffff
   1ac88:	fff70713          	addi	a4,a4,-1 # ffffefff <__global_pointer$+0xfffd8d8f>
   1ac8c:	00e7f7b3          	and	a5,a5,a4
   1ac90:	00f41623          	sh	a5,12(s0)
   1ac94:	00e41583          	lh	a1,14(s0)
   1ac98:	01812403          	lw	s0,24(sp)
   1ac9c:	01c12083          	lw	ra,28(sp)
   1aca0:	00098693          	mv	a3,s3
   1aca4:	00090613          	mv	a2,s2
   1aca8:	00c12983          	lw	s3,12(sp)
   1acac:	01012903          	lw	s2,16(sp)
   1acb0:	00048513          	mv	a0,s1
   1acb4:	01412483          	lw	s1,20(sp)
   1acb8:	02010113          	addi	sp,sp,32
   1acbc:	0300306f          	j	1dcec <_write_r>

0001acc0 <__sseek>:
   1acc0:	ff010113          	addi	sp,sp,-16
   1acc4:	00812423          	sw	s0,8(sp)
   1acc8:	00058413          	mv	s0,a1
   1accc:	00e59583          	lh	a1,14(a1)
   1acd0:	00112623          	sw	ra,12(sp)
   1acd4:	470030ef          	jal	ra,1e144 <_lseek_r>
   1acd8:	fff00793          	li	a5,-1
   1acdc:	00c45703          	lhu	a4,12(s0)
   1ace0:	02f51263          	bne	a0,a5,1ad04 <__sseek+0x44>
   1ace4:	fffff7b7          	lui	a5,0xfffff
   1ace8:	fff78793          	addi	a5,a5,-1 # ffffefff <__global_pointer$+0xfffd8d8f>
   1acec:	00e7f7b3          	and	a5,a5,a4
   1acf0:	00f41623          	sh	a5,12(s0)
   1acf4:	00c12083          	lw	ra,12(sp)
   1acf8:	00812403          	lw	s0,8(sp)
   1acfc:	01010113          	addi	sp,sp,16
   1ad00:	00008067          	ret
   1ad04:	000017b7          	lui	a5,0x1
   1ad08:	00f767b3          	or	a5,a4,a5
   1ad0c:	00f41623          	sh	a5,12(s0)
   1ad10:	04a42823          	sw	a0,80(s0)
   1ad14:	fe1ff06f          	j	1acf4 <__sseek+0x34>

0001ad18 <__sclose>:
   1ad18:	00e59583          	lh	a1,14(a1)
   1ad1c:	0d00306f          	j	1ddec <_close_r>

0001ad20 <strcmp>:
   1ad20:	00b56733          	or	a4,a0,a1
   1ad24:	fff00393          	li	t2,-1
   1ad28:	00377713          	andi	a4,a4,3
   1ad2c:	10071063          	bnez	a4,1ae2c <strcmp+0x10c>
   1ad30:	7f7f87b7          	lui	a5,0x7f7f8
   1ad34:	f7f78793          	addi	a5,a5,-129 # 7f7f7f7f <__global_pointer$+0x7f7d1d0f>
   1ad38:	00052603          	lw	a2,0(a0)
   1ad3c:	0005a683          	lw	a3,0(a1)
   1ad40:	00f672b3          	and	t0,a2,a5
   1ad44:	00f66333          	or	t1,a2,a5
   1ad48:	00f282b3          	add	t0,t0,a5
   1ad4c:	0062e2b3          	or	t0,t0,t1
   1ad50:	10729263          	bne	t0,t2,1ae54 <strcmp+0x134>
   1ad54:	08d61663          	bne	a2,a3,1ade0 <strcmp+0xc0>
   1ad58:	00452603          	lw	a2,4(a0)
   1ad5c:	0045a683          	lw	a3,4(a1)
   1ad60:	00f672b3          	and	t0,a2,a5
   1ad64:	00f66333          	or	t1,a2,a5
   1ad68:	00f282b3          	add	t0,t0,a5
   1ad6c:	0062e2b3          	or	t0,t0,t1
   1ad70:	0c729e63          	bne	t0,t2,1ae4c <strcmp+0x12c>
   1ad74:	06d61663          	bne	a2,a3,1ade0 <strcmp+0xc0>
   1ad78:	00852603          	lw	a2,8(a0)
   1ad7c:	0085a683          	lw	a3,8(a1)
   1ad80:	00f672b3          	and	t0,a2,a5
   1ad84:	00f66333          	or	t1,a2,a5
   1ad88:	00f282b3          	add	t0,t0,a5
   1ad8c:	0062e2b3          	or	t0,t0,t1
   1ad90:	0c729863          	bne	t0,t2,1ae60 <strcmp+0x140>
   1ad94:	04d61663          	bne	a2,a3,1ade0 <strcmp+0xc0>
   1ad98:	00c52603          	lw	a2,12(a0)
   1ad9c:	00c5a683          	lw	a3,12(a1)
   1ada0:	00f672b3          	and	t0,a2,a5
   1ada4:	00f66333          	or	t1,a2,a5
   1ada8:	00f282b3          	add	t0,t0,a5
   1adac:	0062e2b3          	or	t0,t0,t1
   1adb0:	0c729263          	bne	t0,t2,1ae74 <strcmp+0x154>
   1adb4:	02d61663          	bne	a2,a3,1ade0 <strcmp+0xc0>
   1adb8:	01052603          	lw	a2,16(a0)
   1adbc:	0105a683          	lw	a3,16(a1)
   1adc0:	00f672b3          	and	t0,a2,a5
   1adc4:	00f66333          	or	t1,a2,a5
   1adc8:	00f282b3          	add	t0,t0,a5
   1adcc:	0062e2b3          	or	t0,t0,t1
   1add0:	0a729c63          	bne	t0,t2,1ae88 <strcmp+0x168>
   1add4:	01450513          	addi	a0,a0,20
   1add8:	01458593          	addi	a1,a1,20
   1addc:	f4d60ee3          	beq	a2,a3,1ad38 <strcmp+0x18>
   1ade0:	01061713          	slli	a4,a2,0x10
   1ade4:	01069793          	slli	a5,a3,0x10
   1ade8:	00f71e63          	bne	a4,a5,1ae04 <strcmp+0xe4>
   1adec:	01065713          	srli	a4,a2,0x10
   1adf0:	0106d793          	srli	a5,a3,0x10
   1adf4:	40f70533          	sub	a0,a4,a5
   1adf8:	0ff57593          	andi	a1,a0,255
   1adfc:	02059063          	bnez	a1,1ae1c <strcmp+0xfc>
   1ae00:	00008067          	ret
   1ae04:	01075713          	srli	a4,a4,0x10
   1ae08:	0107d793          	srli	a5,a5,0x10
   1ae0c:	40f70533          	sub	a0,a4,a5
   1ae10:	0ff57593          	andi	a1,a0,255
   1ae14:	00059463          	bnez	a1,1ae1c <strcmp+0xfc>
   1ae18:	00008067          	ret
   1ae1c:	0ff77713          	andi	a4,a4,255
   1ae20:	0ff7f793          	andi	a5,a5,255
   1ae24:	40f70533          	sub	a0,a4,a5
   1ae28:	00008067          	ret
   1ae2c:	00054603          	lbu	a2,0(a0)
   1ae30:	0005c683          	lbu	a3,0(a1)
   1ae34:	00150513          	addi	a0,a0,1
   1ae38:	00158593          	addi	a1,a1,1
   1ae3c:	00d61463          	bne	a2,a3,1ae44 <strcmp+0x124>
   1ae40:	fe0616e3          	bnez	a2,1ae2c <strcmp+0x10c>
   1ae44:	40d60533          	sub	a0,a2,a3
   1ae48:	00008067          	ret
   1ae4c:	00450513          	addi	a0,a0,4
   1ae50:	00458593          	addi	a1,a1,4
   1ae54:	fcd61ce3          	bne	a2,a3,1ae2c <strcmp+0x10c>
   1ae58:	00000513          	li	a0,0
   1ae5c:	00008067          	ret
   1ae60:	00850513          	addi	a0,a0,8
   1ae64:	00858593          	addi	a1,a1,8
   1ae68:	fcd612e3          	bne	a2,a3,1ae2c <strcmp+0x10c>
   1ae6c:	00000513          	li	a0,0
   1ae70:	00008067          	ret
   1ae74:	00c50513          	addi	a0,a0,12
   1ae78:	00c58593          	addi	a1,a1,12
   1ae7c:	fad618e3          	bne	a2,a3,1ae2c <strcmp+0x10c>
   1ae80:	00000513          	li	a0,0
   1ae84:	00008067          	ret
   1ae88:	01050513          	addi	a0,a0,16
   1ae8c:	01058593          	addi	a1,a1,16
   1ae90:	f8d61ee3          	bne	a2,a3,1ae2c <strcmp+0x10c>
   1ae94:	00000513          	li	a0,0
   1ae98:	00008067          	ret

0001ae9c <strcpy>:
   1ae9c:	00050793          	mv	a5,a0
   1aea0:	0005c703          	lbu	a4,0(a1)
   1aea4:	00178793          	addi	a5,a5,1
   1aea8:	00158593          	addi	a1,a1,1
   1aeac:	fee78fa3          	sb	a4,-1(a5)
   1aeb0:	fe0718e3          	bnez	a4,1aea0 <strcpy+0x4>
   1aeb4:	00008067          	ret

0001aeb8 <strncpy>:
   1aeb8:	00050793          	mv	a5,a0
   1aebc:	00060e63          	beqz	a2,1aed8 <strncpy+0x20>
   1aec0:	00158593          	addi	a1,a1,1
   1aec4:	fff5c703          	lbu	a4,-1(a1)
   1aec8:	00178793          	addi	a5,a5,1
   1aecc:	fff60613          	addi	a2,a2,-1
   1aed0:	fee78fa3          	sb	a4,-1(a5)
   1aed4:	fe0714e3          	bnez	a4,1aebc <strncpy+0x4>
   1aed8:	00c78633          	add	a2,a5,a2
   1aedc:	00c79463          	bne	a5,a2,1aee4 <strncpy+0x2c>
   1aee0:	00008067          	ret
   1aee4:	00178793          	addi	a5,a5,1
   1aee8:	fe078fa3          	sb	zero,-1(a5)
   1aeec:	ff1ff06f          	j	1aedc <strncpy+0x24>

0001aef0 <_svfprintf_r>:
   1aef0:	e2010113          	addi	sp,sp,-480
   1aef4:	1c112e23          	sw	ra,476(sp)
   1aef8:	1c912a23          	sw	s1,468(sp)
   1aefc:	1d212823          	sw	s2,464(sp)
   1af00:	1d312623          	sw	s3,460(sp)
   1af04:	1d512223          	sw	s5,452(sp)
   1af08:	00058993          	mv	s3,a1
   1af0c:	00060493          	mv	s1,a2
   1af10:	00068a93          	mv	s5,a3
   1af14:	1c812c23          	sw	s0,472(sp)
   1af18:	1d412423          	sw	s4,456(sp)
   1af1c:	1d612023          	sw	s6,448(sp)
   1af20:	1b712e23          	sw	s7,444(sp)
   1af24:	1b812c23          	sw	s8,440(sp)
   1af28:	1b912a23          	sw	s9,436(sp)
   1af2c:	1ba12823          	sw	s10,432(sp)
   1af30:	1bb12623          	sw	s11,428(sp)
   1af34:	00050913          	mv	s2,a0
   1af38:	ba1fd0ef          	jal	ra,18ad8 <_localeconv_r>
   1af3c:	00052783          	lw	a5,0(a0)
   1af40:	00078513          	mv	a0,a5
   1af44:	02f12a23          	sw	a5,52(sp)
   1af48:	8e5f80ef          	jal	ra,1382c <strlen>
   1af4c:	00c9d783          	lhu	a5,12(s3)
   1af50:	02a12023          	sw	a0,32(sp)
   1af54:	0e012023          	sw	zero,224(sp)
   1af58:	0e012223          	sw	zero,228(sp)
   1af5c:	0e012423          	sw	zero,232(sp)
   1af60:	0e012623          	sw	zero,236(sp)
   1af64:	0807f793          	andi	a5,a5,128
   1af68:	04078063          	beqz	a5,1afa8 <_svfprintf_r+0xb8>
   1af6c:	0109a783          	lw	a5,16(s3)
   1af70:	02079c63          	bnez	a5,1afa8 <_svfprintf_r+0xb8>
   1af74:	04000593          	li	a1,64
   1af78:	00090513          	mv	a0,s2
   1af7c:	de5fd0ef          	jal	ra,18d60 <_malloc_r>
   1af80:	00a9a023          	sw	a0,0(s3)
   1af84:	00a9a823          	sw	a0,16(s3)
   1af88:	00051c63          	bnez	a0,1afa0 <_svfprintf_r+0xb0>
   1af8c:	00c00793          	li	a5,12
   1af90:	00f92023          	sw	a5,0(s2)
   1af94:	fff00793          	li	a5,-1
   1af98:	02f12223          	sw	a5,36(sp)
   1af9c:	7ec0006f          	j	1b788 <_svfprintf_r+0x898>
   1afa0:	04000793          	li	a5,64
   1afa4:	00f9aa23          	sw	a5,20(s3)
   1afa8:	000257b7          	lui	a5,0x25
   1afac:	89878793          	addi	a5,a5,-1896 # 24898 <__mprec_bigtens+0x28>
   1afb0:	00025bb7          	lui	s7,0x25
   1afb4:	0fc10893          	addi	a7,sp,252
   1afb8:	04f12623          	sw	a5,76(sp)
   1afbc:	a14b8793          	addi	a5,s7,-1516 # 24a14 <zeroes.4499>
   1afc0:	0d112a23          	sw	a7,212(sp)
   1afc4:	0c012e23          	sw	zero,220(sp)
   1afc8:	0c012c23          	sw	zero,216(sp)
   1afcc:	00000a13          	li	s4,0
   1afd0:	00088c13          	mv	s8,a7
   1afd4:	04012023          	sw	zero,64(sp)
   1afd8:	02012e23          	sw	zero,60(sp)
   1afdc:	00012823          	sw	zero,16(sp)
   1afe0:	02012823          	sw	zero,48(sp)
   1afe4:	02012c23          	sw	zero,56(sp)
   1afe8:	02012223          	sw	zero,36(sp)
   1afec:	00f12a23          	sw	a5,20(sp)
   1aff0:	00048413          	mv	s0,s1
   1aff4:	02500713          	li	a4,37
   1aff8:	00044783          	lbu	a5,0(s0)
   1affc:	00078463          	beqz	a5,1b004 <_svfprintf_r+0x114>
   1b000:	0ae79a63          	bne	a5,a4,1b0b4 <_svfprintf_r+0x1c4>
   1b004:	40940b33          	sub	s6,s0,s1
   1b008:	040b0a63          	beqz	s6,1b05c <_svfprintf_r+0x16c>
   1b00c:	0dc12783          	lw	a5,220(sp)
   1b010:	009c2023          	sw	s1,0(s8)
   1b014:	016c2223          	sw	s6,4(s8)
   1b018:	016787b3          	add	a5,a5,s6
   1b01c:	0cf12e23          	sw	a5,220(sp)
   1b020:	0d812783          	lw	a5,216(sp)
   1b024:	00700713          	li	a4,7
   1b028:	008c0c13          	addi	s8,s8,8
   1b02c:	00178793          	addi	a5,a5,1
   1b030:	0cf12c23          	sw	a5,216(sp)
   1b034:	00f75e63          	ble	a5,a4,1b050 <_svfprintf_r+0x160>
   1b038:	0d410613          	addi	a2,sp,212
   1b03c:	00098593          	mv	a1,s3
   1b040:	00090513          	mv	a0,s2
   1b044:	2f0030ef          	jal	ra,1e334 <__ssprint_r>
   1b048:	72051a63          	bnez	a0,1b77c <_svfprintf_r+0x88c>
   1b04c:	0fc10c13          	addi	s8,sp,252
   1b050:	02412783          	lw	a5,36(sp)
   1b054:	016787b3          	add	a5,a5,s6
   1b058:	02f12223          	sw	a5,36(sp)
   1b05c:	00044783          	lbu	a5,0(s0)
   1b060:	00079463          	bnez	a5,1b068 <_svfprintf_r+0x178>
   1b064:	5a10106f          	j	1ce04 <_svfprintf_r+0x1f14>
   1b068:	00140793          	addi	a5,s0,1
   1b06c:	0a010ba3          	sb	zero,183(sp)
   1b070:	fff00b93          	li	s7,-1
   1b074:	02012423          	sw	zero,40(sp)
   1b078:	00000413          	li	s0,0
   1b07c:	05a00c93          	li	s9,90
   1b080:	00900d93          	li	s11,9
   1b084:	02a00d13          	li	s10,42
   1b088:	0007cb03          	lbu	s6,0(a5)
   1b08c:	00178713          	addi	a4,a5,1
   1b090:	00e12e23          	sw	a4,28(sp)
   1b094:	fe0b0793          	addi	a5,s6,-32
   1b098:	00fcf463          	bleu	a5,s9,1b0a0 <_svfprintf_r+0x1b0>
   1b09c:	2800106f          	j	1c31c <_svfprintf_r+0x142c>
   1b0a0:	04c12703          	lw	a4,76(sp)
   1b0a4:	00279793          	slli	a5,a5,0x2
   1b0a8:	00e787b3          	add	a5,a5,a4
   1b0ac:	0007a783          	lw	a5,0(a5)
   1b0b0:	00078067          	jr	a5
   1b0b4:	00140413          	addi	s0,s0,1
   1b0b8:	f41ff06f          	j	1aff8 <_svfprintf_r+0x108>
   1b0bc:	00090513          	mv	a0,s2
   1b0c0:	a19fd0ef          	jal	ra,18ad8 <_localeconv_r>
   1b0c4:	00452783          	lw	a5,4(a0)
   1b0c8:	00078513          	mv	a0,a5
   1b0cc:	02f12c23          	sw	a5,56(sp)
   1b0d0:	f5cf80ef          	jal	ra,1382c <strlen>
   1b0d4:	02a12823          	sw	a0,48(sp)
   1b0d8:	00090513          	mv	a0,s2
   1b0dc:	9fdfd0ef          	jal	ra,18ad8 <_localeconv_r>
   1b0e0:	00852783          	lw	a5,8(a0)
   1b0e4:	00f12823          	sw	a5,16(sp)
   1b0e8:	03012783          	lw	a5,48(sp)
   1b0ec:	00078c63          	beqz	a5,1b104 <_svfprintf_r+0x214>
   1b0f0:	01012783          	lw	a5,16(sp)
   1b0f4:	00078863          	beqz	a5,1b104 <_svfprintf_r+0x214>
   1b0f8:	0007c783          	lbu	a5,0(a5)
   1b0fc:	00078463          	beqz	a5,1b104 <_svfprintf_r+0x214>
   1b100:	40046413          	ori	s0,s0,1024
   1b104:	01c12783          	lw	a5,28(sp)
   1b108:	f81ff06f          	j	1b088 <_svfprintf_r+0x198>
   1b10c:	0b714783          	lbu	a5,183(sp)
   1b110:	fe079ae3          	bnez	a5,1b104 <_svfprintf_r+0x214>
   1b114:	02000793          	li	a5,32
   1b118:	0af10ba3          	sb	a5,183(sp)
   1b11c:	fe9ff06f          	j	1b104 <_svfprintf_r+0x214>
   1b120:	00146413          	ori	s0,s0,1
   1b124:	fe1ff06f          	j	1b104 <_svfprintf_r+0x214>
   1b128:	000aa783          	lw	a5,0(s5)
   1b12c:	004a8a93          	addi	s5,s5,4
   1b130:	02f12423          	sw	a5,40(sp)
   1b134:	fc07d8e3          	bgez	a5,1b104 <_svfprintf_r+0x214>
   1b138:	40f007b3          	neg	a5,a5
   1b13c:	02f12423          	sw	a5,40(sp)
   1b140:	00446413          	ori	s0,s0,4
   1b144:	fc1ff06f          	j	1b104 <_svfprintf_r+0x214>
   1b148:	02b00793          	li	a5,43
   1b14c:	fcdff06f          	j	1b118 <_svfprintf_r+0x228>
   1b150:	01c12703          	lw	a4,28(sp)
   1b154:	01c12783          	lw	a5,28(sp)
   1b158:	00074b03          	lbu	s6,0(a4)
   1b15c:	00178793          	addi	a5,a5,1
   1b160:	05ab1463          	bne	s6,s10,1b1a8 <_svfprintf_r+0x2b8>
   1b164:	000aab83          	lw	s7,0(s5)
   1b168:	004a8713          	addi	a4,s5,4
   1b16c:	000bd463          	bgez	s7,1b174 <_svfprintf_r+0x284>
   1b170:	fff00b93          	li	s7,-1
   1b174:	00070a93          	mv	s5,a4
   1b178:	00f12e23          	sw	a5,28(sp)
   1b17c:	f89ff06f          	j	1b104 <_svfprintf_r+0x214>
   1b180:	002b9713          	slli	a4,s7,0x2
   1b184:	00178793          	addi	a5,a5,1
   1b188:	01770333          	add	t1,a4,s7
   1b18c:	fff7cb03          	lbu	s6,-1(a5)
   1b190:	00131313          	slli	t1,t1,0x1
   1b194:	00d30bb3          	add	s7,t1,a3
   1b198:	fd0b0693          	addi	a3,s6,-48
   1b19c:	feddf2e3          	bleu	a3,s11,1b180 <_svfprintf_r+0x290>
   1b1a0:	00f12e23          	sw	a5,28(sp)
   1b1a4:	ef1ff06f          	j	1b094 <_svfprintf_r+0x1a4>
   1b1a8:	00000b93          	li	s7,0
   1b1ac:	fedff06f          	j	1b198 <_svfprintf_r+0x2a8>
   1b1b0:	08046413          	ori	s0,s0,128
   1b1b4:	f51ff06f          	j	1b104 <_svfprintf_r+0x214>
   1b1b8:	01c12783          	lw	a5,28(sp)
   1b1bc:	02012423          	sw	zero,40(sp)
   1b1c0:	02812703          	lw	a4,40(sp)
   1b1c4:	02812683          	lw	a3,40(sp)
   1b1c8:	fd0b0b13          	addi	s6,s6,-48
   1b1cc:	00271713          	slli	a4,a4,0x2
   1b1d0:	00d70733          	add	a4,a4,a3
   1b1d4:	00171713          	slli	a4,a4,0x1
   1b1d8:	00178793          	addi	a5,a5,1
   1b1dc:	00eb0733          	add	a4,s6,a4
   1b1e0:	fff7cb03          	lbu	s6,-1(a5)
   1b1e4:	02e12423          	sw	a4,40(sp)
   1b1e8:	fd0b0713          	addi	a4,s6,-48
   1b1ec:	fcedfae3          	bleu	a4,s11,1b1c0 <_svfprintf_r+0x2d0>
   1b1f0:	fb1ff06f          	j	1b1a0 <_svfprintf_r+0x2b0>
   1b1f4:	00846413          	ori	s0,s0,8
   1b1f8:	f0dff06f          	j	1b104 <_svfprintf_r+0x214>
   1b1fc:	01c12783          	lw	a5,28(sp)
   1b200:	0007c703          	lbu	a4,0(a5)
   1b204:	06800793          	li	a5,104
   1b208:	00f71c63          	bne	a4,a5,1b220 <_svfprintf_r+0x330>
   1b20c:	01c12783          	lw	a5,28(sp)
   1b210:	20046413          	ori	s0,s0,512
   1b214:	00178793          	addi	a5,a5,1
   1b218:	00f12e23          	sw	a5,28(sp)
   1b21c:	ee9ff06f          	j	1b104 <_svfprintf_r+0x214>
   1b220:	04046413          	ori	s0,s0,64
   1b224:	ee1ff06f          	j	1b104 <_svfprintf_r+0x214>
   1b228:	01c12783          	lw	a5,28(sp)
   1b22c:	0007c703          	lbu	a4,0(a5)
   1b230:	06c00793          	li	a5,108
   1b234:	00f71c63          	bne	a4,a5,1b24c <_svfprintf_r+0x35c>
   1b238:	01c12783          	lw	a5,28(sp)
   1b23c:	00178793          	addi	a5,a5,1
   1b240:	00f12e23          	sw	a5,28(sp)
   1b244:	02046413          	ori	s0,s0,32
   1b248:	ebdff06f          	j	1b104 <_svfprintf_r+0x214>
   1b24c:	01046413          	ori	s0,s0,16
   1b250:	eb5ff06f          	j	1b104 <_svfprintf_r+0x214>
   1b254:	004a8793          	addi	a5,s5,4
   1b258:	00f12c23          	sw	a5,24(sp)
   1b25c:	000aa783          	lw	a5,0(s5)
   1b260:	0a010ba3          	sb	zero,183(sp)
   1b264:	12f10e23          	sb	a5,316(sp)
   1b268:	00012623          	sw	zero,12(sp)
   1b26c:	00100b93          	li	s7,1
   1b270:	00000713          	li	a4,0
   1b274:	00000d13          	li	s10,0
   1b278:	00000c93          	li	s9,0
   1b27c:	00000d93          	li	s11,0
   1b280:	13c10493          	addi	s1,sp,316
   1b284:	02e12623          	sw	a4,44(sp)
   1b288:	01775463          	ble	s7,a4,1b290 <_svfprintf_r+0x3a0>
   1b28c:	03712623          	sw	s7,44(sp)
   1b290:	0b714683          	lbu	a3,183(sp)
   1b294:	00068863          	beqz	a3,1b2a4 <_svfprintf_r+0x3b4>
   1b298:	02c12783          	lw	a5,44(sp)
   1b29c:	00178793          	addi	a5,a5,1
   1b2a0:	02f12623          	sw	a5,44(sp)
   1b2a4:	00247a93          	andi	s5,s0,2
   1b2a8:	000a8863          	beqz	s5,1b2b8 <_svfprintf_r+0x3c8>
   1b2ac:	02c12783          	lw	a5,44(sp)
   1b2b0:	00278793          	addi	a5,a5,2
   1b2b4:	02f12623          	sw	a5,44(sp)
   1b2b8:	08447793          	andi	a5,s0,132
   1b2bc:	04f12223          	sw	a5,68(sp)
   1b2c0:	08079063          	bnez	a5,1b340 <_svfprintf_r+0x450>
   1b2c4:	02812783          	lw	a5,40(sp)
   1b2c8:	02c12683          	lw	a3,44(sp)
   1b2cc:	40d786b3          	sub	a3,a5,a3
   1b2d0:	06d05863          	blez	a3,1b340 <_svfprintf_r+0x450>
   1b2d4:	000257b7          	lui	a5,0x25
   1b2d8:	01000e13          	li	t3,16
   1b2dc:	a0478813          	addi	a6,a5,-1532 # 24a04 <blanks.4498>
   1b2e0:	00700e93          	li	t4,7
   1b2e4:	0d812603          	lw	a2,216(sp)
   1b2e8:	010c2023          	sw	a6,0(s8)
   1b2ec:	0dc12583          	lw	a1,220(sp)
   1b2f0:	00160613          	addi	a2,a2,1
   1b2f4:	008c0513          	addi	a0,s8,8
   1b2f8:	00de5463          	ble	a3,t3,1b300 <_svfprintf_r+0x410>
   1b2fc:	0340106f          	j	1c330 <_svfprintf_r+0x1440>
   1b300:	00dc2223          	sw	a3,4(s8)
   1b304:	00b686b3          	add	a3,a3,a1
   1b308:	0cd12e23          	sw	a3,220(sp)
   1b30c:	0cc12c23          	sw	a2,216(sp)
   1b310:	00700693          	li	a3,7
   1b314:	00050c13          	mv	s8,a0
   1b318:	02c6d463          	ble	a2,a3,1b340 <_svfprintf_r+0x450>
   1b31c:	0d410613          	addi	a2,sp,212
   1b320:	00098593          	mv	a1,s3
   1b324:	00090513          	mv	a0,s2
   1b328:	04e12423          	sw	a4,72(sp)
   1b32c:	008030ef          	jal	ra,1e334 <__ssprint_r>
   1b330:	00050463          	beqz	a0,1b338 <_svfprintf_r+0x448>
   1b334:	26d0106f          	j	1cda0 <_svfprintf_r+0x1eb0>
   1b338:	04812703          	lw	a4,72(sp)
   1b33c:	0fc10c13          	addi	s8,sp,252
   1b340:	0b714683          	lbu	a3,183(sp)
   1b344:	04068e63          	beqz	a3,1b3a0 <_svfprintf_r+0x4b0>
   1b348:	0b710693          	addi	a3,sp,183
   1b34c:	00dc2023          	sw	a3,0(s8)
   1b350:	00100693          	li	a3,1
   1b354:	00dc2223          	sw	a3,4(s8)
   1b358:	0dc12683          	lw	a3,220(sp)
   1b35c:	00700613          	li	a2,7
   1b360:	008c0c13          	addi	s8,s8,8
   1b364:	00168693          	addi	a3,a3,1
   1b368:	0cd12e23          	sw	a3,220(sp)
   1b36c:	0d812683          	lw	a3,216(sp)
   1b370:	00168693          	addi	a3,a3,1
   1b374:	0cd12c23          	sw	a3,216(sp)
   1b378:	02d65463          	ble	a3,a2,1b3a0 <_svfprintf_r+0x4b0>
   1b37c:	0d410613          	addi	a2,sp,212
   1b380:	00098593          	mv	a1,s3
   1b384:	00090513          	mv	a0,s2
   1b388:	04e12423          	sw	a4,72(sp)
   1b38c:	7a9020ef          	jal	ra,1e334 <__ssprint_r>
   1b390:	00050463          	beqz	a0,1b398 <_svfprintf_r+0x4a8>
   1b394:	20d0106f          	j	1cda0 <_svfprintf_r+0x1eb0>
   1b398:	04812703          	lw	a4,72(sp)
   1b39c:	0fc10c13          	addi	s8,sp,252
   1b3a0:	040a8e63          	beqz	s5,1b3fc <_svfprintf_r+0x50c>
   1b3a4:	0b810693          	addi	a3,sp,184
   1b3a8:	00dc2023          	sw	a3,0(s8)
   1b3ac:	00200693          	li	a3,2
   1b3b0:	00dc2223          	sw	a3,4(s8)
   1b3b4:	0dc12683          	lw	a3,220(sp)
   1b3b8:	00700613          	li	a2,7
   1b3bc:	008c0c13          	addi	s8,s8,8
   1b3c0:	00268693          	addi	a3,a3,2
   1b3c4:	0cd12e23          	sw	a3,220(sp)
   1b3c8:	0d812683          	lw	a3,216(sp)
   1b3cc:	00168693          	addi	a3,a3,1
   1b3d0:	0cd12c23          	sw	a3,216(sp)
   1b3d4:	02d65463          	ble	a3,a2,1b3fc <_svfprintf_r+0x50c>
   1b3d8:	0d410613          	addi	a2,sp,212
   1b3dc:	00098593          	mv	a1,s3
   1b3e0:	00090513          	mv	a0,s2
   1b3e4:	04e12423          	sw	a4,72(sp)
   1b3e8:	74d020ef          	jal	ra,1e334 <__ssprint_r>
   1b3ec:	00050463          	beqz	a0,1b3f4 <_svfprintf_r+0x504>
   1b3f0:	1b10106f          	j	1cda0 <_svfprintf_r+0x1eb0>
   1b3f4:	04812703          	lw	a4,72(sp)
   1b3f8:	0fc10c13          	addi	s8,sp,252
   1b3fc:	04412783          	lw	a5,68(sp)
   1b400:	08000693          	li	a3,128
   1b404:	06d79c63          	bne	a5,a3,1b47c <_svfprintf_r+0x58c>
   1b408:	02812783          	lw	a5,40(sp)
   1b40c:	02c12683          	lw	a3,44(sp)
   1b410:	40d78ab3          	sub	s5,a5,a3
   1b414:	07505463          	blez	s5,1b47c <_svfprintf_r+0x58c>
   1b418:	01000813          	li	a6,16
   1b41c:	00700e13          	li	t3,7
   1b420:	01412783          	lw	a5,20(sp)
   1b424:	0d812683          	lw	a3,216(sp)
   1b428:	0dc12603          	lw	a2,220(sp)
   1b42c:	00fc2023          	sw	a5,0(s8)
   1b430:	00168693          	addi	a3,a3,1
   1b434:	008c0593          	addi	a1,s8,8
   1b438:	755848e3          	blt	a6,s5,1c388 <_svfprintf_r+0x1498>
   1b43c:	015c2223          	sw	s5,4(s8)
   1b440:	00ca8ab3          	add	s5,s5,a2
   1b444:	0d512e23          	sw	s5,220(sp)
   1b448:	0cd12c23          	sw	a3,216(sp)
   1b44c:	00700613          	li	a2,7
   1b450:	00058c13          	mv	s8,a1
   1b454:	02d65463          	ble	a3,a2,1b47c <_svfprintf_r+0x58c>
   1b458:	0d410613          	addi	a2,sp,212
   1b45c:	00098593          	mv	a1,s3
   1b460:	00090513          	mv	a0,s2
   1b464:	04e12223          	sw	a4,68(sp)
   1b468:	6cd020ef          	jal	ra,1e334 <__ssprint_r>
   1b46c:	00050463          	beqz	a0,1b474 <_svfprintf_r+0x584>
   1b470:	1310106f          	j	1cda0 <_svfprintf_r+0x1eb0>
   1b474:	04412703          	lw	a4,68(sp)
   1b478:	0fc10c13          	addi	s8,sp,252
   1b47c:	41770ab3          	sub	s5,a4,s7
   1b480:	07505063          	blez	s5,1b4e0 <_svfprintf_r+0x5f0>
   1b484:	01000813          	li	a6,16
   1b488:	00700e13          	li	t3,7
   1b48c:	01412783          	lw	a5,20(sp)
   1b490:	0d812683          	lw	a3,216(sp)
   1b494:	0dc12703          	lw	a4,220(sp)
   1b498:	00fc2023          	sw	a5,0(s8)
   1b49c:	00168693          	addi	a3,a3,1
   1b4a0:	008c0613          	addi	a2,s8,8
   1b4a4:	735846e3          	blt	a6,s5,1c3d0 <_svfprintf_r+0x14e0>
   1b4a8:	00ea8733          	add	a4,s5,a4
   1b4ac:	015c2223          	sw	s5,4(s8)
   1b4b0:	0ce12e23          	sw	a4,220(sp)
   1b4b4:	0cd12c23          	sw	a3,216(sp)
   1b4b8:	00700713          	li	a4,7
   1b4bc:	00060c13          	mv	s8,a2
   1b4c0:	02d75063          	ble	a3,a4,1b4e0 <_svfprintf_r+0x5f0>
   1b4c4:	0d410613          	addi	a2,sp,212
   1b4c8:	00098593          	mv	a1,s3
   1b4cc:	00090513          	mv	a0,s2
   1b4d0:	665020ef          	jal	ra,1e334 <__ssprint_r>
   1b4d4:	00050463          	beqz	a0,1b4dc <_svfprintf_r+0x5ec>
   1b4d8:	0c90106f          	j	1cda0 <_svfprintf_r+0x1eb0>
   1b4dc:	0fc10c13          	addi	s8,sp,252
   1b4e0:	10047693          	andi	a3,s0,256
   1b4e4:	0dc12703          	lw	a4,220(sp)
   1b4e8:	720694e3          	bnez	a3,1c410 <_svfprintf_r+0x1520>
   1b4ec:	0d812783          	lw	a5,216(sp)
   1b4f0:	00eb8333          	add	t1,s7,a4
   1b4f4:	009c2023          	sw	s1,0(s8)
   1b4f8:	00178793          	addi	a5,a5,1
   1b4fc:	017c2223          	sw	s7,4(s8)
   1b500:	0c612e23          	sw	t1,220(sp)
   1b504:	0cf12c23          	sw	a5,216(sp)
   1b508:	00700713          	li	a4,7
   1b50c:	008c0c13          	addi	s8,s8,8
   1b510:	00f74463          	blt	a4,a5,1b518 <_svfprintf_r+0x628>
   1b514:	1c40106f          	j	1c6d8 <_svfprintf_r+0x17e8>
   1b518:	0d410613          	addi	a2,sp,212
   1b51c:	00098593          	mv	a1,s3
   1b520:	00090513          	mv	a0,s2
   1b524:	611020ef          	jal	ra,1e334 <__ssprint_r>
   1b528:	00050463          	beqz	a0,1b530 <_svfprintf_r+0x640>
   1b52c:	0750106f          	j	1cda0 <_svfprintf_r+0x1eb0>
   1b530:	0fc10c13          	addi	s8,sp,252
   1b534:	1a40106f          	j	1c6d8 <_svfprintf_r+0x17e8>
   1b538:	01046413          	ori	s0,s0,16
   1b53c:	02047793          	andi	a5,s0,32
   1b540:	06078463          	beqz	a5,1b5a8 <_svfprintf_r+0x6b8>
   1b544:	007a8a93          	addi	s5,s5,7
   1b548:	ff8afa93          	andi	s5,s5,-8
   1b54c:	000aad03          	lw	s10,0(s5)
   1b550:	004aad83          	lw	s11,4(s5)
   1b554:	008a8793          	addi	a5,s5,8
   1b558:	00f12c23          	sw	a5,24(sp)
   1b55c:	000dc463          	bltz	s11,1b564 <_svfprintf_r+0x674>
   1b560:	0c50106f          	j	1ce24 <_svfprintf_r+0x1f34>
   1b564:	41a00d33          	neg	s10,s10
   1b568:	01a037b3          	snez	a5,s10
   1b56c:	41b00db3          	neg	s11,s11
   1b570:	40fd8db3          	sub	s11,s11,a5
   1b574:	02d00793          	li	a5,45
   1b578:	0af10ba3          	sb	a5,183(sp)
   1b57c:	00100793          	li	a5,1
   1b580:	fff00713          	li	a4,-1
   1b584:	40eb82e3          	beq	s7,a4,1c188 <_svfprintf_r+0x1298>
   1b588:	00040713          	mv	a4,s0
   1b58c:	01bd66b3          	or	a3,s10,s11
   1b590:	f7f47413          	andi	s0,s0,-129
   1b594:	3e069ae3          	bnez	a3,1c188 <_svfprintf_r+0x1298>
   1b598:	560b84e3          	beqz	s7,1c300 <_svfprintf_r+0x1410>
   1b59c:	00100713          	li	a4,1
   1b5a0:	3ee798e3          	bne	a5,a4,1c190 <_svfprintf_r+0x12a0>
   1b5a4:	0950106f          	j	1ce38 <_svfprintf_r+0x1f48>
   1b5a8:	004a8793          	addi	a5,s5,4
   1b5ac:	00f12c23          	sw	a5,24(sp)
   1b5b0:	01047793          	andi	a5,s0,16
   1b5b4:	00078863          	beqz	a5,1b5c4 <_svfprintf_r+0x6d4>
   1b5b8:	000aad03          	lw	s10,0(s5)
   1b5bc:	41fd5d93          	srai	s11,s10,0x1f
   1b5c0:	f9dff06f          	j	1b55c <_svfprintf_r+0x66c>
   1b5c4:	04047793          	andi	a5,s0,64
   1b5c8:	000aad03          	lw	s10,0(s5)
   1b5cc:	00078863          	beqz	a5,1b5dc <_svfprintf_r+0x6ec>
   1b5d0:	010d1d13          	slli	s10,s10,0x10
   1b5d4:	410d5d13          	srai	s10,s10,0x10
   1b5d8:	fe5ff06f          	j	1b5bc <_svfprintf_r+0x6cc>
   1b5dc:	20047793          	andi	a5,s0,512
   1b5e0:	fc078ee3          	beqz	a5,1b5bc <_svfprintf_r+0x6cc>
   1b5e4:	018d1d13          	slli	s10,s10,0x18
   1b5e8:	418d5d13          	srai	s10,s10,0x18
   1b5ec:	fd1ff06f          	j	1b5bc <_svfprintf_r+0x6cc>
   1b5f0:	00847793          	andi	a5,s0,8
   1b5f4:	0a078863          	beqz	a5,1b6a4 <_svfprintf_r+0x7b4>
   1b5f8:	004a8793          	addi	a5,s5,4
   1b5fc:	00f12c23          	sw	a5,24(sp)
   1b600:	000aa783          	lw	a5,0(s5)
   1b604:	0007a603          	lw	a2,0(a5)
   1b608:	0047a683          	lw	a3,4(a5)
   1b60c:	0087a703          	lw	a4,8(a5)
   1b610:	00c7a783          	lw	a5,12(a5)
   1b614:	0ec12023          	sw	a2,224(sp)
   1b618:	0ed12223          	sw	a3,228(sp)
   1b61c:	0ee12423          	sw	a4,232(sp)
   1b620:	0e010513          	addi	a0,sp,224
   1b624:	0ef12623          	sw	a5,236(sp)
   1b628:	c44fd0ef          	jal	ra,18a6c <_ldcheck>
   1b62c:	0aa12e23          	sw	a0,188(sp)
   1b630:	00200793          	li	a5,2
   1b634:	0af51e63          	bne	a0,a5,1b6f0 <_svfprintf_r+0x800>
   1b638:	0e012783          	lw	a5,224(sp)
   1b63c:	09010593          	addi	a1,sp,144
   1b640:	0a010513          	addi	a0,sp,160
   1b644:	0af12023          	sw	a5,160(sp)
   1b648:	0e412783          	lw	a5,228(sp)
   1b64c:	08012823          	sw	zero,144(sp)
   1b650:	08012a23          	sw	zero,148(sp)
   1b654:	0af12223          	sw	a5,164(sp)
   1b658:	0e812783          	lw	a5,232(sp)
   1b65c:	08012c23          	sw	zero,152(sp)
   1b660:	08012e23          	sw	zero,156(sp)
   1b664:	0af12423          	sw	a5,168(sp)
   1b668:	0ec12783          	lw	a5,236(sp)
   1b66c:	0af12623          	sw	a5,172(sp)
   1b670:	30c050ef          	jal	ra,2097c <__letf2>
   1b674:	00055663          	bgez	a0,1b680 <_svfprintf_r+0x790>
   1b678:	02d00793          	li	a5,45
   1b67c:	0af10ba3          	sb	a5,183(sp)
   1b680:	04700793          	li	a5,71
   1b684:	0767d063          	ble	s6,a5,1b6e4 <_svfprintf_r+0x7f4>
   1b688:	000244b7          	lui	s1,0x24
   1b68c:	4b048493          	addi	s1,s1,1200 # 244b0 <zeroes.4514+0x14>
   1b690:	f7f47413          	andi	s0,s0,-129
   1b694:	00012623          	sw	zero,12(sp)
   1b698:	00300b93          	li	s7,3
   1b69c:	00000713          	li	a4,0
   1b6a0:	34d0006f          	j	1c1ec <_svfprintf_r+0x12fc>
   1b6a4:	007a8a93          	addi	s5,s5,7
   1b6a8:	ff8afa93          	andi	s5,s5,-8
   1b6ac:	000aa583          	lw	a1,0(s5)
   1b6b0:	004aa603          	lw	a2,4(s5)
   1b6b4:	008a8793          	addi	a5,s5,8
   1b6b8:	0a010513          	addi	a0,sp,160
   1b6bc:	00f12c23          	sw	a5,24(sp)
   1b6c0:	7e1070ef          	jal	ra,236a0 <__extenddftf2>
   1b6c4:	0a012783          	lw	a5,160(sp)
   1b6c8:	0ef12023          	sw	a5,224(sp)
   1b6cc:	0a412783          	lw	a5,164(sp)
   1b6d0:	0ef12223          	sw	a5,228(sp)
   1b6d4:	0a812783          	lw	a5,168(sp)
   1b6d8:	0ef12423          	sw	a5,232(sp)
   1b6dc:	0ac12783          	lw	a5,172(sp)
   1b6e0:	f41ff06f          	j	1b620 <_svfprintf_r+0x730>
   1b6e4:	000244b7          	lui	s1,0x24
   1b6e8:	4ac48493          	addi	s1,s1,1196 # 244ac <zeroes.4514+0x10>
   1b6ec:	fa5ff06f          	j	1b690 <_svfprintf_r+0x7a0>
   1b6f0:	00100793          	li	a5,1
   1b6f4:	02f51a63          	bne	a0,a5,1b728 <_svfprintf_r+0x838>
   1b6f8:	0ec12783          	lw	a5,236(sp)
   1b6fc:	0007d663          	bgez	a5,1b708 <_svfprintf_r+0x818>
   1b700:	02d00793          	li	a5,45
   1b704:	0af10ba3          	sb	a5,183(sp)
   1b708:	04700793          	li	a5,71
   1b70c:	0167d863          	ble	s6,a5,1b71c <_svfprintf_r+0x82c>
   1b710:	000244b7          	lui	s1,0x24
   1b714:	4b848493          	addi	s1,s1,1208 # 244b8 <zeroes.4514+0x1c>
   1b718:	f79ff06f          	j	1b690 <_svfprintf_r+0x7a0>
   1b71c:	000244b7          	lui	s1,0x24
   1b720:	4b448493          	addi	s1,s1,1204 # 244b4 <zeroes.4514+0x18>
   1b724:	f6dff06f          	j	1b690 <_svfprintf_r+0x7a0>
   1b728:	fdfb7c93          	andi	s9,s6,-33
   1b72c:	04100793          	li	a5,65
   1b730:	08fc9c63          	bne	s9,a5,1b7c8 <_svfprintf_r+0x8d8>
   1b734:	03000793          	li	a5,48
   1b738:	0af10c23          	sb	a5,184(sp)
   1b73c:	06100713          	li	a4,97
   1b740:	07800793          	li	a5,120
   1b744:	00eb0463          	beq	s6,a4,1b74c <_svfprintf_r+0x85c>
   1b748:	05800793          	li	a5,88
   1b74c:	0af10ca3          	sb	a5,185(sp)
   1b750:	06300793          	li	a5,99
   1b754:	00246413          	ori	s0,s0,2
   1b758:	4f77d263          	ble	s7,a5,1bc3c <_svfprintf_r+0xd4c>
   1b75c:	001b8593          	addi	a1,s7,1
   1b760:	00090513          	mv	a0,s2
   1b764:	dfcfd0ef          	jal	ra,18d60 <_malloc_r>
   1b768:	00050493          	mv	s1,a0
   1b76c:	4c051e63          	bnez	a0,1bc48 <_svfprintf_r+0xd58>
   1b770:	00c9d783          	lhu	a5,12(s3)
   1b774:	0407e793          	ori	a5,a5,64
   1b778:	00f99623          	sh	a5,12(s3)
   1b77c:	00c9d783          	lhu	a5,12(s3)
   1b780:	0407f793          	andi	a5,a5,64
   1b784:	800798e3          	bnez	a5,1af94 <_svfprintf_r+0xa4>
   1b788:	1dc12083          	lw	ra,476(sp)
   1b78c:	1d812403          	lw	s0,472(sp)
   1b790:	02412503          	lw	a0,36(sp)
   1b794:	1d412483          	lw	s1,468(sp)
   1b798:	1d012903          	lw	s2,464(sp)
   1b79c:	1cc12983          	lw	s3,460(sp)
   1b7a0:	1c812a03          	lw	s4,456(sp)
   1b7a4:	1c412a83          	lw	s5,452(sp)
   1b7a8:	1c012b03          	lw	s6,448(sp)
   1b7ac:	1bc12b83          	lw	s7,444(sp)
   1b7b0:	1b812c03          	lw	s8,440(sp)
   1b7b4:	1b412c83          	lw	s9,436(sp)
   1b7b8:	1b012d03          	lw	s10,432(sp)
   1b7bc:	1ac12d83          	lw	s11,428(sp)
   1b7c0:	1e010113          	addi	sp,sp,480
   1b7c4:	00008067          	ret
   1b7c8:	fff00793          	li	a5,-1
   1b7cc:	48fb8263          	beq	s7,a5,1bc50 <_svfprintf_r+0xd60>
   1b7d0:	04700793          	li	a5,71
   1b7d4:	00012623          	sw	zero,12(sp)
   1b7d8:	00fc9863          	bne	s9,a5,1b7e8 <_svfprintf_r+0x8f8>
   1b7dc:	000b9663          	bnez	s7,1b7e8 <_svfprintf_r+0x8f8>
   1b7e0:	01712623          	sw	s7,12(sp)
   1b7e4:	00100b93          	li	s7,1
   1b7e8:	0ec12a03          	lw	s4,236(sp)
   1b7ec:	10046793          	ori	a5,s0,256
   1b7f0:	02f12623          	sw	a5,44(sp)
   1b7f4:	04012223          	sw	zero,68(sp)
   1b7f8:	0e012e83          	lw	t4,224(sp)
   1b7fc:	0e412e03          	lw	t3,228(sp)
   1b800:	0e812d83          	lw	s11,232(sp)
   1b804:	000a5a63          	bgez	s4,1b818 <_svfprintf_r+0x928>
   1b808:	800007b7          	lui	a5,0x80000
   1b80c:	0147ca33          	xor	s4,a5,s4
   1b810:	02d00793          	li	a5,45
   1b814:	04f12223          	sw	a5,68(sp)
   1b818:	04100793          	li	a5,65
   1b81c:	48fc9463          	bne	s9,a5,1bca4 <_svfprintf_r+0xdb4>
   1b820:	0a010513          	addi	a0,sp,160
   1b824:	0bd12023          	sw	t4,160(sp)
   1b828:	0bc12223          	sw	t3,164(sp)
   1b82c:	0bb12423          	sw	s11,168(sp)
   1b830:	0b412623          	sw	s4,172(sp)
   1b834:	074080ef          	jal	ra,238a8 <__trunctfdf2>
   1b838:	0bc10613          	addi	a2,sp,188
   1b83c:	a24ff0ef          	jal	ra,1aa60 <frexp>
   1b840:	00058613          	mv	a2,a1
   1b844:	00050593          	mv	a1,a0
   1b848:	0a010513          	addi	a0,sp,160
   1b84c:	655070ef          	jal	ra,236a0 <__extenddftf2>
   1b850:	0a012783          	lw	a5,160(sp)
   1b854:	07010613          	addi	a2,sp,112
   1b858:	08010593          	addi	a1,sp,128
   1b85c:	08f12023          	sw	a5,128(sp)
   1b860:	0a412783          	lw	a5,164(sp)
   1b864:	09010513          	addi	a0,sp,144
   1b868:	06012823          	sw	zero,112(sp)
   1b86c:	08f12223          	sw	a5,132(sp)
   1b870:	0a812783          	lw	a5,168(sp)
   1b874:	06012a23          	sw	zero,116(sp)
   1b878:	06012c23          	sw	zero,120(sp)
   1b87c:	08f12423          	sw	a5,136(sp)
   1b880:	0ac12783          	lw	a5,172(sp)
   1b884:	08f12623          	sw	a5,140(sp)
   1b888:	3ffc07b7          	lui	a5,0x3ffc0
   1b88c:	06f12e23          	sw	a5,124(sp)
   1b890:	234050ef          	jal	ra,20ac4 <__multf3>
   1b894:	09012803          	lw	a6,144(sp)
   1b898:	09412603          	lw	a2,148(sp)
   1b89c:	09812683          	lw	a3,152(sp)
   1b8a0:	09c12d83          	lw	s11,156(sp)
   1b8a4:	09010593          	addi	a1,sp,144
   1b8a8:	0a010513          	addi	a0,sp,160
   1b8ac:	0b012023          	sw	a6,160(sp)
   1b8b0:	05012a23          	sw	a6,84(sp)
   1b8b4:	0ac12223          	sw	a2,164(sp)
   1b8b8:	04c12823          	sw	a2,80(sp)
   1b8bc:	0ad12423          	sw	a3,168(sp)
   1b8c0:	04d12423          	sw	a3,72(sp)
   1b8c4:	0bb12623          	sw	s11,172(sp)
   1b8c8:	08012823          	sw	zero,144(sp)
   1b8cc:	08012a23          	sw	zero,148(sp)
   1b8d0:	08012c23          	sw	zero,152(sp)
   1b8d4:	08012e23          	sw	zero,156(sp)
   1b8d8:	691040ef          	jal	ra,20768 <__eqtf2>
   1b8dc:	04812683          	lw	a3,72(sp)
   1b8e0:	05012603          	lw	a2,80(sp)
   1b8e4:	05412803          	lw	a6,84(sp)
   1b8e8:	00051663          	bnez	a0,1b8f4 <_svfprintf_r+0xa04>
   1b8ec:	00100793          	li	a5,1
   1b8f0:	0af12e23          	sw	a5,188(sp)
   1b8f4:	06100793          	li	a5,97
   1b8f8:	36fb0263          	beq	s6,a5,1bc5c <_svfprintf_r+0xd6c>
   1b8fc:	00024a37          	lui	s4,0x24
   1b900:	4d0a0a13          	addi	s4,s4,1232 # 244d0 <zeroes.4514+0x34>
   1b904:	fffb8e13          	addi	t3,s7,-1
   1b908:	00048d13          	mv	s10,s1
   1b90c:	400307b7          	lui	a5,0x40030
   1b910:	09010593          	addi	a1,sp,144
   1b914:	08c12a23          	sw	a2,148(sp)
   1b918:	0a010513          	addi	a0,sp,160
   1b91c:	08010613          	addi	a2,sp,128
   1b920:	05c12c23          	sw	t3,88(sp)
   1b924:	08f12623          	sw	a5,140(sp)
   1b928:	09012823          	sw	a6,144(sp)
   1b92c:	08d12c23          	sw	a3,152(sp)
   1b930:	09b12e23          	sw	s11,156(sp)
   1b934:	08012023          	sw	zero,128(sp)
   1b938:	08012223          	sw	zero,132(sp)
   1b93c:	08012423          	sw	zero,136(sp)
   1b940:	184050ef          	jal	ra,20ac4 <__multf3>
   1b944:	0a012603          	lw	a2,160(sp)
   1b948:	0a412683          	lw	a3,164(sp)
   1b94c:	0a812703          	lw	a4,168(sp)
   1b950:	0a010513          	addi	a0,sp,160
   1b954:	04c12a23          	sw	a2,84(sp)
   1b958:	04d12823          	sw	a3,80(sp)
   1b95c:	04e12423          	sw	a4,72(sp)
   1b960:	265070ef          	jal	ra,233c4 <__fixtfsi>
   1b964:	00050593          	mv	a1,a0
   1b968:	00050a93          	mv	s5,a0
   1b96c:	0a010513          	addi	a0,sp,160
   1b970:	0ac12d83          	lw	s11,172(sp)
   1b974:	3a1070ef          	jal	ra,23514 <__floatsitf>
   1b978:	04812703          	lw	a4,72(sp)
   1b97c:	05412603          	lw	a2,84(sp)
   1b980:	05012683          	lw	a3,80(sp)
   1b984:	08e12423          	sw	a4,136(sp)
   1b988:	0a012703          	lw	a4,160(sp)
   1b98c:	08c12023          	sw	a2,128(sp)
   1b990:	08010593          	addi	a1,sp,128
   1b994:	06e12823          	sw	a4,112(sp)
   1b998:	0a412703          	lw	a4,164(sp)
   1b99c:	07010613          	addi	a2,sp,112
   1b9a0:	09010513          	addi	a0,sp,144
   1b9a4:	06e12a23          	sw	a4,116(sp)
   1b9a8:	0a812703          	lw	a4,168(sp)
   1b9ac:	09b12623          	sw	s11,140(sp)
   1b9b0:	08d12223          	sw	a3,132(sp)
   1b9b4:	06e12c23          	sw	a4,120(sp)
   1b9b8:	0ac12703          	lw	a4,172(sp)
   1b9bc:	001d0d13          	addi	s10,s10,1
   1b9c0:	06e12e23          	sw	a4,124(sp)
   1b9c4:	468060ef          	jal	ra,21e2c <__subtf3>
   1b9c8:	015a05b3          	add	a1,s4,s5
   1b9cc:	0005c583          	lbu	a1,0(a1)
   1b9d0:	05812e03          	lw	t3,88(sp)
   1b9d4:	09c12e83          	lw	t4,156(sp)
   1b9d8:	09012283          	lw	t0,144(sp)
   1b9dc:	09412f83          	lw	t6,148(sp)
   1b9e0:	09812f03          	lw	t5,152(sp)
   1b9e4:	05c12423          	sw	t3,72(sp)
   1b9e8:	febd0fa3          	sb	a1,-1(s10)
   1b9ec:	fff00793          	li	a5,-1
   1b9f0:	000e8d93          	mv	s11,t4
   1b9f4:	06fe0c63          	beq	t3,a5,1ba6c <_svfprintf_r+0xb7c>
   1b9f8:	fffe0e13          	addi	t3,t3,-1
   1b9fc:	09010593          	addi	a1,sp,144
   1ba00:	0a010513          	addi	a0,sp,160
   1ba04:	07d12623          	sw	t4,108(sp)
   1ba08:	07e12423          	sw	t5,104(sp)
   1ba0c:	07f12223          	sw	t6,100(sp)
   1ba10:	06512023          	sw	t0,96(sp)
   1ba14:	05c12e23          	sw	t3,92(sp)
   1ba18:	0a512023          	sw	t0,160(sp)
   1ba1c:	04512c23          	sw	t0,88(sp)
   1ba20:	0bf12223          	sw	t6,164(sp)
   1ba24:	05f12a23          	sw	t6,84(sp)
   1ba28:	0be12423          	sw	t5,168(sp)
   1ba2c:	05e12823          	sw	t5,80(sp)
   1ba30:	0bd12623          	sw	t4,172(sp)
   1ba34:	08012823          	sw	zero,144(sp)
   1ba38:	08012a23          	sw	zero,148(sp)
   1ba3c:	08012c23          	sw	zero,152(sp)
   1ba40:	08012e23          	sw	zero,156(sp)
   1ba44:	525040ef          	jal	ra,20768 <__eqtf2>
   1ba48:	05012683          	lw	a3,80(sp)
   1ba4c:	05412603          	lw	a2,84(sp)
   1ba50:	05812803          	lw	a6,88(sp)
   1ba54:	05c12e03          	lw	t3,92(sp)
   1ba58:	06012283          	lw	t0,96(sp)
   1ba5c:	06412f83          	lw	t6,100(sp)
   1ba60:	06812f03          	lw	t5,104(sp)
   1ba64:	06c12e83          	lw	t4,108(sp)
   1ba68:	ea0512e3          	bnez	a0,1b90c <_svfprintf_r+0xa1c>
   1ba6c:	3ffe0db7          	lui	s11,0x3ffe0
   1ba70:	09010593          	addi	a1,sp,144
   1ba74:	0a010513          	addi	a0,sp,160
   1ba78:	0a512023          	sw	t0,160(sp)
   1ba7c:	04512e23          	sw	t0,92(sp)
   1ba80:	0bf12223          	sw	t6,164(sp)
   1ba84:	05f12c23          	sw	t6,88(sp)
   1ba88:	0be12423          	sw	t5,168(sp)
   1ba8c:	05e12a23          	sw	t5,84(sp)
   1ba90:	0bd12623          	sw	t4,172(sp)
   1ba94:	05d12823          	sw	t4,80(sp)
   1ba98:	08012823          	sw	zero,144(sp)
   1ba9c:	08012a23          	sw	zero,148(sp)
   1baa0:	08012c23          	sw	zero,152(sp)
   1baa4:	09b12e23          	sw	s11,156(sp)
   1baa8:	58d040ef          	jal	ra,20834 <__getf2>
   1baac:	04a04663          	bgtz	a0,1baf8 <_svfprintf_r+0xc08>
   1bab0:	05c12283          	lw	t0,92(sp)
   1bab4:	05812f83          	lw	t6,88(sp)
   1bab8:	05412f03          	lw	t5,84(sp)
   1babc:	05012e83          	lw	t4,80(sp)
   1bac0:	09010593          	addi	a1,sp,144
   1bac4:	0a010513          	addi	a0,sp,160
   1bac8:	0a512023          	sw	t0,160(sp)
   1bacc:	0bf12223          	sw	t6,164(sp)
   1bad0:	0be12423          	sw	t5,168(sp)
   1bad4:	0bd12623          	sw	t4,172(sp)
   1bad8:	08012823          	sw	zero,144(sp)
   1badc:	08012a23          	sw	zero,148(sp)
   1bae0:	08012c23          	sw	zero,152(sp)
   1bae4:	09b12e23          	sw	s11,156(sp)
   1bae8:	481040ef          	jal	ra,20768 <__eqtf2>
   1baec:	1a051263          	bnez	a0,1bc90 <_svfprintf_r+0xda0>
   1baf0:	001afa93          	andi	s5,s5,1
   1baf4:	180a8e63          	beqz	s5,1bc90 <_svfprintf_r+0xda0>
   1baf8:	00fa4603          	lbu	a2,15(s4)
   1bafc:	0da12623          	sw	s10,204(sp)
   1bb00:	03000593          	li	a1,48
   1bb04:	0cc12683          	lw	a3,204(sp)
   1bb08:	fff68713          	addi	a4,a3,-1
   1bb0c:	0ce12623          	sw	a4,204(sp)
   1bb10:	fff6c703          	lbu	a4,-1(a3)
   1bb14:	14c70a63          	beq	a4,a2,1bc68 <_svfprintf_r+0xd78>
   1bb18:	03900613          	li	a2,57
   1bb1c:	14c71a63          	bne	a4,a2,1bc70 <_svfprintf_r+0xd80>
   1bb20:	00aa4703          	lbu	a4,10(s4)
   1bb24:	fee68fa3          	sb	a4,-1(a3)
   1bb28:	000d0a13          	mv	s4,s10
   1bb2c:	04700713          	li	a4,71
   1bb30:	409a0a33          	sub	s4,s4,s1
   1bb34:	0bc12d83          	lw	s11,188(sp)
   1bb38:	2aec9663          	bne	s9,a4,1bde4 <_svfprintf_r+0xef4>
   1bb3c:	ffd00713          	li	a4,-3
   1bb40:	00edc463          	blt	s11,a4,1bb48 <_svfprintf_r+0xc58>
   1bb44:	33bbd063          	ble	s11,s7,1be64 <_svfprintf_r+0xf74>
   1bb48:	ffeb0b13          	addi	s6,s6,-2
   1bb4c:	fffd8a93          	addi	s5,s11,-1 # 3ffdffff <__global_pointer$+0x3ffb9d8f>
   1bb50:	0b512e23          	sw	s5,188(sp)
   1bb54:	fdfb7693          	andi	a3,s6,-33
   1bb58:	04100593          	li	a1,65
   1bb5c:	0ffb7713          	andi	a4,s6,255
   1bb60:	00000613          	li	a2,0
   1bb64:	00b69863          	bne	a3,a1,1bb74 <_svfprintf_r+0xc84>
   1bb68:	00f70713          	addi	a4,a4,15
   1bb6c:	0ff77713          	andi	a4,a4,255
   1bb70:	00100613          	li	a2,1
   1bb74:	0ce10223          	sb	a4,196(sp)
   1bb78:	02b00793          	li	a5,43
   1bb7c:	000ad863          	bgez	s5,1bb8c <_svfprintf_r+0xc9c>
   1bb80:	00100a93          	li	s5,1
   1bb84:	41ba8ab3          	sub	s5,s5,s11
   1bb88:	02d00793          	li	a5,45
   1bb8c:	0cf102a3          	sb	a5,197(sp)
   1bb90:	00900793          	li	a5,9
   1bb94:	2957de63          	ble	s5,a5,1be30 <_svfprintf_r+0xf40>
   1bb98:	0d310c93          	addi	s9,sp,211
   1bb9c:	000c8d93          	mv	s11,s9
   1bba0:	06300b93          	li	s7,99
   1bba4:	00a00593          	li	a1,10
   1bba8:	000a8513          	mv	a0,s5
   1bbac:	f84f70ef          	jal	ra,13330 <__modsi3>
   1bbb0:	03050513          	addi	a0,a0,48
   1bbb4:	feac8fa3          	sb	a0,-1(s9)
   1bbb8:	00a00593          	li	a1,10
   1bbbc:	000a8513          	mv	a0,s5
   1bbc0:	fffc8d13          	addi	s10,s9,-1
   1bbc4:	ee8f70ef          	jal	ra,132ac <__divsi3>
   1bbc8:	255bc463          	blt	s7,s5,1be10 <_svfprintf_r+0xf20>
   1bbcc:	03050513          	addi	a0,a0,48
   1bbd0:	ffec8c93          	addi	s9,s9,-2
   1bbd4:	fead0fa3          	sb	a0,-1(s10)
   1bbd8:	0c610793          	addi	a5,sp,198
   1bbdc:	25bce063          	bltu	s9,s11,1be1c <_svfprintf_r+0xf2c>
   1bbe0:	0c410713          	addi	a4,sp,196
   1bbe4:	40e787b3          	sub	a5,a5,a4
   1bbe8:	02f12e23          	sw	a5,60(sp)
   1bbec:	01478bb3          	add	s7,a5,s4
   1bbf0:	00100793          	li	a5,1
   1bbf4:	0147c663          	blt	a5,s4,1bc00 <_svfprintf_r+0xd10>
   1bbf8:	00147793          	andi	a5,s0,1
   1bbfc:	00078663          	beqz	a5,1bc08 <_svfprintf_r+0xd18>
   1bc00:	02012783          	lw	a5,32(sp)
   1bc04:	00fb8bb3          	add	s7,s7,a5
   1bc08:	bff47413          	andi	s0,s0,-1025
   1bc0c:	10046793          	ori	a5,s0,256
   1bc10:	02f12623          	sw	a5,44(sp)
   1bc14:	00000d13          	li	s10,0
   1bc18:	00000c93          	li	s9,0
   1bc1c:	00000d93          	li	s11,0
   1bc20:	04412783          	lw	a5,68(sp)
   1bc24:	00078663          	beqz	a5,1bc30 <_svfprintf_r+0xd40>
   1bc28:	02d00713          	li	a4,45
   1bc2c:	0ae10ba3          	sb	a4,183(sp)
   1bc30:	02c12403          	lw	s0,44(sp)
   1bc34:	00000713          	li	a4,0
   1bc38:	e4cff06f          	j	1b284 <_svfprintf_r+0x394>
   1bc3c:	00012623          	sw	zero,12(sp)
   1bc40:	13c10493          	addi	s1,sp,316
   1bc44:	ba5ff06f          	j	1b7e8 <_svfprintf_r+0x8f8>
   1bc48:	00a12623          	sw	a0,12(sp)
   1bc4c:	b9dff06f          	j	1b7e8 <_svfprintf_r+0x8f8>
   1bc50:	00012623          	sw	zero,12(sp)
   1bc54:	00600b93          	li	s7,6
   1bc58:	b91ff06f          	j	1b7e8 <_svfprintf_r+0x8f8>
   1bc5c:	00024a37          	lui	s4,0x24
   1bc60:	4bca0a13          	addi	s4,s4,1212 # 244bc <zeroes.4514+0x20>
   1bc64:	ca1ff06f          	j	1b904 <_svfprintf_r+0xa14>
   1bc68:	feb68fa3          	sb	a1,-1(a3)
   1bc6c:	e99ff06f          	j	1bb04 <_svfprintf_r+0xc14>
   1bc70:	00170713          	addi	a4,a4,1
   1bc74:	0ff77713          	andi	a4,a4,255
   1bc78:	eadff06f          	j	1bb24 <_svfprintf_r+0xc34>
   1bc7c:	001a0a13          	addi	s4,s4,1
   1bc80:	feea0fa3          	sb	a4,-1(s4)
   1bc84:	414d07b3          	sub	a5,s10,s4
   1bc88:	fe07dae3          	bgez	a5,1bc7c <_svfprintf_r+0xd8c>
   1bc8c:	ea1ff06f          	j	1bb2c <_svfprintf_r+0xc3c>
   1bc90:	04812783          	lw	a5,72(sp)
   1bc94:	000d0a13          	mv	s4,s10
   1bc98:	03000713          	li	a4,48
   1bc9c:	00fd0d33          	add	s10,s10,a5
   1bca0:	fe5ff06f          	j	1bc84 <_svfprintf_r+0xd94>
   1bca4:	04600793          	li	a5,70
   1bca8:	00fc8e63          	beq	s9,a5,1bcc4 <_svfprintf_r+0xdd4>
   1bcac:	04500793          	li	a5,69
   1bcb0:	001b8a93          	addi	s5,s7,1
   1bcb4:	00fc8463          	beq	s9,a5,1bcbc <_svfprintf_r+0xdcc>
   1bcb8:	000b8a93          	mv	s5,s7
   1bcbc:	00200613          	li	a2,2
   1bcc0:	00c0006f          	j	1bccc <_svfprintf_r+0xddc>
   1bcc4:	000b8a93          	mv	s5,s7
   1bcc8:	00300613          	li	a2,3
   1bccc:	0c010793          	addi	a5,sp,192
   1bcd0:	0cc10813          	addi	a6,sp,204
   1bcd4:	0bc10713          	addi	a4,sp,188
   1bcd8:	000a8693          	mv	a3,s5
   1bcdc:	0a010593          	addi	a1,sp,160
   1bce0:	00090513          	mv	a0,s2
   1bce4:	0bd12023          	sw	t4,160(sp)
   1bce8:	05d12823          	sw	t4,80(sp)
   1bcec:	0bc12223          	sw	t3,164(sp)
   1bcf0:	05c12423          	sw	t3,72(sp)
   1bcf4:	0bb12423          	sw	s11,168(sp)
   1bcf8:	0b412623          	sw	s4,172(sp)
   1bcfc:	980fc0ef          	jal	ra,17e7c <_ldtoa_r>
   1bd00:	04700793          	li	a5,71
   1bd04:	00050493          	mv	s1,a0
   1bd08:	04812e03          	lw	t3,72(sp)
   1bd0c:	05012e83          	lw	t4,80(sp)
   1bd10:	00fc9a63          	bne	s9,a5,1bd24 <_svfprintf_r+0xe34>
   1bd14:	00147793          	andi	a5,s0,1
   1bd18:	00079663          	bnez	a5,1bd24 <_svfprintf_r+0xe34>
   1bd1c:	0cc12a03          	lw	s4,204(sp)
   1bd20:	e0dff06f          	j	1bb2c <_svfprintf_r+0xc3c>
   1bd24:	04600793          	li	a5,70
   1bd28:	01548d33          	add	s10,s1,s5
   1bd2c:	06fc9263          	bne	s9,a5,1bd90 <_svfprintf_r+0xea0>
   1bd30:	0004c703          	lbu	a4,0(s1)
   1bd34:	03000793          	li	a5,48
   1bd38:	04f71863          	bne	a4,a5,1bd88 <_svfprintf_r+0xe98>
   1bd3c:	09010593          	addi	a1,sp,144
   1bd40:	0a010513          	addi	a0,sp,160
   1bd44:	0bd12023          	sw	t4,160(sp)
   1bd48:	05d12823          	sw	t4,80(sp)
   1bd4c:	0bc12223          	sw	t3,164(sp)
   1bd50:	05c12423          	sw	t3,72(sp)
   1bd54:	0bb12423          	sw	s11,168(sp)
   1bd58:	0b412623          	sw	s4,172(sp)
   1bd5c:	08012823          	sw	zero,144(sp)
   1bd60:	08012a23          	sw	zero,148(sp)
   1bd64:	08012c23          	sw	zero,152(sp)
   1bd68:	08012e23          	sw	zero,156(sp)
   1bd6c:	1fd040ef          	jal	ra,20768 <__eqtf2>
   1bd70:	04812e03          	lw	t3,72(sp)
   1bd74:	05012e83          	lw	t4,80(sp)
   1bd78:	00050863          	beqz	a0,1bd88 <_svfprintf_r+0xe98>
   1bd7c:	00100793          	li	a5,1
   1bd80:	41578ab3          	sub	s5,a5,s5
   1bd84:	0b512e23          	sw	s5,188(sp)
   1bd88:	0bc12783          	lw	a5,188(sp)
   1bd8c:	00fd0d33          	add	s10,s10,a5
   1bd90:	09010593          	addi	a1,sp,144
   1bd94:	0a010513          	addi	a0,sp,160
   1bd98:	0bd12023          	sw	t4,160(sp)
   1bd9c:	0bc12223          	sw	t3,164(sp)
   1bda0:	0bb12423          	sw	s11,168(sp)
   1bda4:	0b412623          	sw	s4,172(sp)
   1bda8:	08012823          	sw	zero,144(sp)
   1bdac:	08012a23          	sw	zero,148(sp)
   1bdb0:	08012c23          	sw	zero,152(sp)
   1bdb4:	08012e23          	sw	zero,156(sp)
   1bdb8:	1b1040ef          	jal	ra,20768 <__eqtf2>
   1bdbc:	00051463          	bnez	a0,1bdc4 <_svfprintf_r+0xed4>
   1bdc0:	0da12623          	sw	s10,204(sp)
   1bdc4:	03000713          	li	a4,48
   1bdc8:	0100006f          	j	1bdd8 <_svfprintf_r+0xee8>
   1bdcc:	00178693          	addi	a3,a5,1 # 40030001 <__global_pointer$+0x40009d91>
   1bdd0:	0cd12623          	sw	a3,204(sp)
   1bdd4:	00e78023          	sb	a4,0(a5)
   1bdd8:	0cc12783          	lw	a5,204(sp)
   1bddc:	ffa7e8e3          	bltu	a5,s10,1bdcc <_svfprintf_r+0xedc>
   1bde0:	f3dff06f          	j	1bd1c <_svfprintf_r+0xe2c>
   1bde4:	04600713          	li	a4,70
   1bde8:	d6ec92e3          	bne	s9,a4,1bb4c <_svfprintf_r+0xc5c>
   1bdec:	00147713          	andi	a4,s0,1
   1bdf0:	01776733          	or	a4,a4,s7
   1bdf4:	07b05063          	blez	s11,1be54 <_svfprintf_r+0xf64>
   1bdf8:	0c070063          	beqz	a4,1beb8 <_svfprintf_r+0xfc8>
   1bdfc:	02012783          	lw	a5,32(sp)
   1be00:	00fd8733          	add	a4,s11,a5
   1be04:	00eb8bb3          	add	s7,s7,a4
   1be08:	06600b13          	li	s6,102
   1be0c:	0900006f          	j	1be9c <_svfprintf_r+0xfac>
   1be10:	000d0c93          	mv	s9,s10
   1be14:	00050a93          	mv	s5,a0
   1be18:	d8dff06f          	j	1bba4 <_svfprintf_r+0xcb4>
   1be1c:	001c8c93          	addi	s9,s9,1
   1be20:	fffcc703          	lbu	a4,-1(s9)
   1be24:	00178793          	addi	a5,a5,1
   1be28:	fee78fa3          	sb	a4,-1(a5)
   1be2c:	db1ff06f          	j	1bbdc <_svfprintf_r+0xcec>
   1be30:	0c610713          	addi	a4,sp,198
   1be34:	00061863          	bnez	a2,1be44 <_svfprintf_r+0xf54>
   1be38:	03000793          	li	a5,48
   1be3c:	0cf10323          	sb	a5,198(sp)
   1be40:	0c710713          	addi	a4,sp,199
   1be44:	030a8a93          	addi	s5,s5,48
   1be48:	00170793          	addi	a5,a4,1
   1be4c:	01570023          	sb	s5,0(a4)
   1be50:	d91ff06f          	j	1bbe0 <_svfprintf_r+0xcf0>
   1be54:	06070663          	beqz	a4,1bec0 <_svfprintf_r+0xfd0>
   1be58:	02012783          	lw	a5,32(sp)
   1be5c:	00178713          	addi	a4,a5,1
   1be60:	fa5ff06f          	j	1be04 <_svfprintf_r+0xf14>
   1be64:	034dc063          	blt	s11,s4,1be84 <_svfprintf_r+0xf94>
   1be68:	00147713          	andi	a4,s0,1
   1be6c:	000d8b93          	mv	s7,s11
   1be70:	00070663          	beqz	a4,1be7c <_svfprintf_r+0xf8c>
   1be74:	02012783          	lw	a5,32(sp)
   1be78:	00fd8bb3          	add	s7,s11,a5
   1be7c:	06700b13          	li	s6,103
   1be80:	01c0006f          	j	1be9c <_svfprintf_r+0xfac>
   1be84:	02012783          	lw	a5,32(sp)
   1be88:	06700b13          	li	s6,103
   1be8c:	00fa0bb3          	add	s7,s4,a5
   1be90:	01b04663          	bgtz	s11,1be9c <_svfprintf_r+0xfac>
   1be94:	41bb8333          	sub	t1,s7,s11
   1be98:	00130b93          	addi	s7,t1,1
   1be9c:	40047c93          	andi	s9,s0,1024
   1bea0:	00000d13          	li	s10,0
   1bea4:	d60c8ee3          	beqz	s9,1bc20 <_svfprintf_r+0xd30>
   1bea8:	00000c93          	li	s9,0
   1beac:	d7b05ae3          	blez	s11,1bc20 <_svfprintf_r+0xd30>
   1beb0:	0ff00693          	li	a3,255
   1beb4:	0380006f          	j	1beec <_svfprintf_r+0xffc>
   1beb8:	000d8b93          	mv	s7,s11
   1bebc:	f4dff06f          	j	1be08 <_svfprintf_r+0xf18>
   1bec0:	06600b13          	li	s6,102
   1bec4:	00100b93          	li	s7,1
   1bec8:	fd5ff06f          	j	1be9c <_svfprintf_r+0xfac>
   1becc:	03b75663          	ble	s11,a4,1bef8 <_svfprintf_r+0x1008>
   1bed0:	01012783          	lw	a5,16(sp)
   1bed4:	40ed8db3          	sub	s11,s11,a4
   1bed8:	0017c703          	lbu	a4,1(a5)
   1bedc:	02070863          	beqz	a4,1bf0c <_svfprintf_r+0x101c>
   1bee0:	00178793          	addi	a5,a5,1
   1bee4:	001c8c93          	addi	s9,s9,1
   1bee8:	00f12823          	sw	a5,16(sp)
   1beec:	01012783          	lw	a5,16(sp)
   1bef0:	0007c703          	lbu	a4,0(a5)
   1bef4:	fcd71ce3          	bne	a4,a3,1becc <_svfprintf_r+0xfdc>
   1bef8:	03012583          	lw	a1,48(sp)
   1befc:	01ac8533          	add	a0,s9,s10
   1bf00:	b88f70ef          	jal	ra,13288 <__mulsi3>
   1bf04:	01750bb3          	add	s7,a0,s7
   1bf08:	d19ff06f          	j	1bc20 <_svfprintf_r+0xd30>
   1bf0c:	001d0d13          	addi	s10,s10,1
   1bf10:	fddff06f          	j	1beec <_svfprintf_r+0xffc>
   1bf14:	004a8713          	addi	a4,s5,4
   1bf18:	00e12c23          	sw	a4,24(sp)
   1bf1c:	02047713          	andi	a4,s0,32
   1bf20:	000aa783          	lw	a5,0(s5)
   1bf24:	02070063          	beqz	a4,1bf44 <_svfprintf_r+0x1054>
   1bf28:	02412703          	lw	a4,36(sp)
   1bf2c:	00e7a023          	sw	a4,0(a5)
   1bf30:	41f75713          	srai	a4,a4,0x1f
   1bf34:	00e7a223          	sw	a4,4(a5)
   1bf38:	01812a83          	lw	s5,24(sp)
   1bf3c:	01c12483          	lw	s1,28(sp)
   1bf40:	8b0ff06f          	j	1aff0 <_svfprintf_r+0x100>
   1bf44:	01047713          	andi	a4,s0,16
   1bf48:	00070863          	beqz	a4,1bf58 <_svfprintf_r+0x1068>
   1bf4c:	02412703          	lw	a4,36(sp)
   1bf50:	00e7a023          	sw	a4,0(a5)
   1bf54:	fe5ff06f          	j	1bf38 <_svfprintf_r+0x1048>
   1bf58:	04047713          	andi	a4,s0,64
   1bf5c:	00070863          	beqz	a4,1bf6c <_svfprintf_r+0x107c>
   1bf60:	02412703          	lw	a4,36(sp)
   1bf64:	00e79023          	sh	a4,0(a5)
   1bf68:	fd1ff06f          	j	1bf38 <_svfprintf_r+0x1048>
   1bf6c:	20047413          	andi	s0,s0,512
   1bf70:	fc040ee3          	beqz	s0,1bf4c <_svfprintf_r+0x105c>
   1bf74:	02412703          	lw	a4,36(sp)
   1bf78:	00e78023          	sb	a4,0(a5)
   1bf7c:	fbdff06f          	j	1bf38 <_svfprintf_r+0x1048>
   1bf80:	01046413          	ori	s0,s0,16
   1bf84:	02047793          	andi	a5,s0,32
   1bf88:	02078663          	beqz	a5,1bfb4 <_svfprintf_r+0x10c4>
   1bf8c:	007a8a93          	addi	s5,s5,7
   1bf90:	ff8afa93          	andi	s5,s5,-8
   1bf94:	000aad03          	lw	s10,0(s5)
   1bf98:	004aad83          	lw	s11,4(s5)
   1bf9c:	008a8793          	addi	a5,s5,8
   1bfa0:	00f12c23          	sw	a5,24(sp)
   1bfa4:	bff47413          	andi	s0,s0,-1025
   1bfa8:	00000793          	li	a5,0
   1bfac:	0a010ba3          	sb	zero,183(sp)
   1bfb0:	dd0ff06f          	j	1b580 <_svfprintf_r+0x690>
   1bfb4:	004a8793          	addi	a5,s5,4
   1bfb8:	00f12c23          	sw	a5,24(sp)
   1bfbc:	01047793          	andi	a5,s0,16
   1bfc0:	00078663          	beqz	a5,1bfcc <_svfprintf_r+0x10dc>
   1bfc4:	000aad03          	lw	s10,0(s5)
   1bfc8:	0100006f          	j	1bfd8 <_svfprintf_r+0x10e8>
   1bfcc:	04047793          	andi	a5,s0,64
   1bfd0:	00078863          	beqz	a5,1bfe0 <_svfprintf_r+0x10f0>
   1bfd4:	000add03          	lhu	s10,0(s5)
   1bfd8:	00000d93          	li	s11,0
   1bfdc:	fc9ff06f          	j	1bfa4 <_svfprintf_r+0x10b4>
   1bfe0:	20047793          	andi	a5,s0,512
   1bfe4:	fe0780e3          	beqz	a5,1bfc4 <_svfprintf_r+0x10d4>
   1bfe8:	000acd03          	lbu	s10,0(s5)
   1bfec:	fedff06f          	j	1bfd8 <_svfprintf_r+0x10e8>
   1bff0:	004a8793          	addi	a5,s5,4
   1bff4:	00f12c23          	sw	a5,24(sp)
   1bff8:	ffff87b7          	lui	a5,0xffff8
   1bffc:	8307c793          	xori	a5,a5,-2000
   1c000:	0af11c23          	sh	a5,184(sp)
   1c004:	000247b7          	lui	a5,0x24
   1c008:	4bc78793          	addi	a5,a5,1212 # 244bc <zeroes.4514+0x20>
   1c00c:	04f12023          	sw	a5,64(sp)
   1c010:	000aad03          	lw	s10,0(s5)
   1c014:	00000d93          	li	s11,0
   1c018:	00246413          	ori	s0,s0,2
   1c01c:	00200793          	li	a5,2
   1c020:	07800b13          	li	s6,120
   1c024:	f89ff06f          	j	1bfac <_svfprintf_r+0x10bc>
   1c028:	004a8793          	addi	a5,s5,4
   1c02c:	00f12c23          	sw	a5,24(sp)
   1c030:	0a010ba3          	sb	zero,183(sp)
   1c034:	fff00793          	li	a5,-1
   1c038:	000aa483          	lw	s1,0(s5)
   1c03c:	02fb8463          	beq	s7,a5,1c064 <_svfprintf_r+0x1174>
   1c040:	000b8613          	mv	a2,s7
   1c044:	00000593          	li	a1,0
   1c048:	00048513          	mv	a0,s1
   1c04c:	becfd0ef          	jal	ra,19438 <memchr>
   1c050:	00a12623          	sw	a0,12(sp)
   1c054:	e4050463          	beqz	a0,1b69c <_svfprintf_r+0x7ac>
   1c058:	40950bb3          	sub	s7,a0,s1
   1c05c:	00012623          	sw	zero,12(sp)
   1c060:	e3cff06f          	j	1b69c <_svfprintf_r+0x7ac>
   1c064:	00048513          	mv	a0,s1
   1c068:	fc4f70ef          	jal	ra,1382c <strlen>
   1c06c:	00050b93          	mv	s7,a0
   1c070:	fedff06f          	j	1c05c <_svfprintf_r+0x116c>
   1c074:	01046413          	ori	s0,s0,16
   1c078:	02047793          	andi	a5,s0,32
   1c07c:	02078263          	beqz	a5,1c0a0 <_svfprintf_r+0x11b0>
   1c080:	007a8a93          	addi	s5,s5,7
   1c084:	ff8afa93          	andi	s5,s5,-8
   1c088:	000aad03          	lw	s10,0(s5)
   1c08c:	004aad83          	lw	s11,4(s5)
   1c090:	008a8793          	addi	a5,s5,8
   1c094:	00f12c23          	sw	a5,24(sp)
   1c098:	00100793          	li	a5,1
   1c09c:	f11ff06f          	j	1bfac <_svfprintf_r+0x10bc>
   1c0a0:	004a8793          	addi	a5,s5,4
   1c0a4:	00f12c23          	sw	a5,24(sp)
   1c0a8:	01047793          	andi	a5,s0,16
   1c0ac:	00078663          	beqz	a5,1c0b8 <_svfprintf_r+0x11c8>
   1c0b0:	000aad03          	lw	s10,0(s5)
   1c0b4:	0100006f          	j	1c0c4 <_svfprintf_r+0x11d4>
   1c0b8:	04047793          	andi	a5,s0,64
   1c0bc:	00078863          	beqz	a5,1c0cc <_svfprintf_r+0x11dc>
   1c0c0:	000add03          	lhu	s10,0(s5)
   1c0c4:	00000d93          	li	s11,0
   1c0c8:	fd1ff06f          	j	1c098 <_svfprintf_r+0x11a8>
   1c0cc:	20047793          	andi	a5,s0,512
   1c0d0:	fe0780e3          	beqz	a5,1c0b0 <_svfprintf_r+0x11c0>
   1c0d4:	000acd03          	lbu	s10,0(s5)
   1c0d8:	fedff06f          	j	1c0c4 <_svfprintf_r+0x11d4>
   1c0dc:	000247b7          	lui	a5,0x24
   1c0e0:	4d078793          	addi	a5,a5,1232 # 244d0 <zeroes.4514+0x34>
   1c0e4:	04f12023          	sw	a5,64(sp)
   1c0e8:	02047793          	andi	a5,s0,32
   1c0ec:	04078a63          	beqz	a5,1c140 <_svfprintf_r+0x1250>
   1c0f0:	007a8a93          	addi	s5,s5,7
   1c0f4:	ff8afa93          	andi	s5,s5,-8
   1c0f8:	000aad03          	lw	s10,0(s5)
   1c0fc:	004aad83          	lw	s11,4(s5)
   1c100:	008a8793          	addi	a5,s5,8
   1c104:	00f12c23          	sw	a5,24(sp)
   1c108:	00147793          	andi	a5,s0,1
   1c10c:	00078e63          	beqz	a5,1c128 <_svfprintf_r+0x1238>
   1c110:	01bd67b3          	or	a5,s10,s11
   1c114:	00078a63          	beqz	a5,1c128 <_svfprintf_r+0x1238>
   1c118:	03000793          	li	a5,48
   1c11c:	0af10c23          	sb	a5,184(sp)
   1c120:	0b610ca3          	sb	s6,185(sp)
   1c124:	00246413          	ori	s0,s0,2
   1c128:	bff47413          	andi	s0,s0,-1025
   1c12c:	00200793          	li	a5,2
   1c130:	e7dff06f          	j	1bfac <_svfprintf_r+0x10bc>
   1c134:	000247b7          	lui	a5,0x24
   1c138:	4bc78793          	addi	a5,a5,1212 # 244bc <zeroes.4514+0x20>
   1c13c:	fa9ff06f          	j	1c0e4 <_svfprintf_r+0x11f4>
   1c140:	004a8793          	addi	a5,s5,4
   1c144:	00f12c23          	sw	a5,24(sp)
   1c148:	01047793          	andi	a5,s0,16
   1c14c:	00078663          	beqz	a5,1c158 <_svfprintf_r+0x1268>
   1c150:	000aad03          	lw	s10,0(s5)
   1c154:	0100006f          	j	1c164 <_svfprintf_r+0x1274>
   1c158:	04047793          	andi	a5,s0,64
   1c15c:	00078863          	beqz	a5,1c16c <_svfprintf_r+0x127c>
   1c160:	000add03          	lhu	s10,0(s5)
   1c164:	00000d93          	li	s11,0
   1c168:	fa1ff06f          	j	1c108 <_svfprintf_r+0x1218>
   1c16c:	20047793          	andi	a5,s0,512
   1c170:	fe0780e3          	beqz	a5,1c150 <_svfprintf_r+0x1260>
   1c174:	000acd03          	lbu	s10,0(s5)
   1c178:	fedff06f          	j	1c164 <_svfprintf_r+0x1274>
   1c17c:	00040713          	mv	a4,s0
   1c180:	00100793          	li	a5,1
   1c184:	c08ff06f          	j	1b58c <_svfprintf_r+0x69c>
   1c188:	00100713          	li	a4,1
   1c18c:	4ae780e3          	beq	a5,a4,1ce2c <_svfprintf_r+0x1f3c>
   1c190:	00200713          	li	a4,2
   1c194:	12e78a63          	beq	a5,a4,1c2c8 <_svfprintf_r+0x13d8>
   1c198:	1a010793          	addi	a5,sp,416
   1c19c:	01dd9693          	slli	a3,s11,0x1d
   1c1a0:	007d7713          	andi	a4,s10,7
   1c1a4:	003d5d13          	srli	s10,s10,0x3
   1c1a8:	03070713          	addi	a4,a4,48
   1c1ac:	01a6ed33          	or	s10,a3,s10
   1c1b0:	003ddd93          	srli	s11,s11,0x3
   1c1b4:	fee78fa3          	sb	a4,-1(a5)
   1c1b8:	01bd66b3          	or	a3,s10,s11
   1c1bc:	fff78493          	addi	s1,a5,-1
   1c1c0:	02069e63          	bnez	a3,1c1fc <_svfprintf_r+0x130c>
   1c1c4:	00147693          	andi	a3,s0,1
   1c1c8:	00068a63          	beqz	a3,1c1dc <_svfprintf_r+0x12ec>
   1c1cc:	03000693          	li	a3,48
   1c1d0:	00d70663          	beq	a4,a3,1c1dc <_svfprintf_r+0x12ec>
   1c1d4:	fed48fa3          	sb	a3,-1(s1)
   1c1d8:	ffe78493          	addi	s1,a5,-2
   1c1dc:	1a010793          	addi	a5,sp,416
   1c1e0:	000b8713          	mv	a4,s7
   1c1e4:	00012623          	sw	zero,12(sp)
   1c1e8:	40978bb3          	sub	s7,a5,s1
   1c1ec:	00000d13          	li	s10,0
   1c1f0:	00000c93          	li	s9,0
   1c1f4:	00000d93          	li	s11,0
   1c1f8:	88cff06f          	j	1b284 <_svfprintf_r+0x394>
   1c1fc:	00048793          	mv	a5,s1
   1c200:	f9dff06f          	j	1c19c <_svfprintf_r+0x12ac>
   1c204:	40047713          	andi	a4,s0,1024
   1c208:	00000a13          	li	s4,0
   1c20c:	1a010793          	addi	a5,sp,416
   1c210:	00e12623          	sw	a4,12(sp)
   1c214:	0ff00c93          	li	s9,255
   1c218:	00900a93          	li	s5,9
   1c21c:	00a00613          	li	a2,10
   1c220:	00000693          	li	a3,0
   1c224:	000d0513          	mv	a0,s10
   1c228:	000d8593          	mv	a1,s11
   1c22c:	fff78493          	addi	s1,a5,-1
   1c230:	02f12623          	sw	a5,44(sp)
   1c234:	1d1030ef          	jal	ra,1fc04 <__umoddi3>
   1c238:	02c12783          	lw	a5,44(sp)
   1c23c:	03050513          	addi	a0,a0,48
   1c240:	001a0a13          	addi	s4,s4,1
   1c244:	fea78fa3          	sb	a0,-1(a5)
   1c248:	00c12783          	lw	a5,12(sp)
   1c24c:	04078863          	beqz	a5,1c29c <_svfprintf_r+0x13ac>
   1c250:	01012783          	lw	a5,16(sp)
   1c254:	0007c783          	lbu	a5,0(a5)
   1c258:	04fa1263          	bne	s4,a5,1c29c <_svfprintf_r+0x13ac>
   1c25c:	059a0063          	beq	s4,s9,1c29c <_svfprintf_r+0x13ac>
   1c260:	000d9463          	bnez	s11,1c268 <_svfprintf_r+0x1378>
   1c264:	03aafc63          	bleu	s10,s5,1c29c <_svfprintf_r+0x13ac>
   1c268:	03012783          	lw	a5,48(sp)
   1c26c:	03812583          	lw	a1,56(sp)
   1c270:	00000a13          	li	s4,0
   1c274:	40f484b3          	sub	s1,s1,a5
   1c278:	00078613          	mv	a2,a5
   1c27c:	00048513          	mv	a0,s1
   1c280:	c39fe0ef          	jal	ra,1aeb8 <strncpy>
   1c284:	01012783          	lw	a5,16(sp)
   1c288:	0017c783          	lbu	a5,1(a5)
   1c28c:	00078863          	beqz	a5,1c29c <_svfprintf_r+0x13ac>
   1c290:	01012783          	lw	a5,16(sp)
   1c294:	00178793          	addi	a5,a5,1
   1c298:	00f12823          	sw	a5,16(sp)
   1c29c:	00a00613          	li	a2,10
   1c2a0:	00000693          	li	a3,0
   1c2a4:	000d0513          	mv	a0,s10
   1c2a8:	000d8593          	mv	a1,s11
   1c2ac:	384030ef          	jal	ra,1f630 <__udivdi3>
   1c2b0:	000d9463          	bnez	s11,1c2b8 <_svfprintf_r+0x13c8>
   1c2b4:	f3aaf4e3          	bleu	s10,s5,1c1dc <_svfprintf_r+0x12ec>
   1c2b8:	00050d13          	mv	s10,a0
   1c2bc:	00058d93          	mv	s11,a1
   1c2c0:	00048793          	mv	a5,s1
   1c2c4:	f59ff06f          	j	1c21c <_svfprintf_r+0x132c>
   1c2c8:	1a010493          	addi	s1,sp,416
   1c2cc:	04012703          	lw	a4,64(sp)
   1c2d0:	00fd7793          	andi	a5,s10,15
   1c2d4:	fff48493          	addi	s1,s1,-1
   1c2d8:	00f707b3          	add	a5,a4,a5
   1c2dc:	0007c783          	lbu	a5,0(a5)
   1c2e0:	004d5d13          	srli	s10,s10,0x4
   1c2e4:	00f48023          	sb	a5,0(s1)
   1c2e8:	01cd9793          	slli	a5,s11,0x1c
   1c2ec:	01a7ed33          	or	s10,a5,s10
   1c2f0:	004ddd93          	srli	s11,s11,0x4
   1c2f4:	01bd67b3          	or	a5,s10,s11
   1c2f8:	fc079ae3          	bnez	a5,1c2cc <_svfprintf_r+0x13dc>
   1c2fc:	ee1ff06f          	j	1c1dc <_svfprintf_r+0x12ec>
   1c300:	1a010493          	addi	s1,sp,416
   1c304:	ec079ce3          	bnez	a5,1c1dc <_svfprintf_r+0x12ec>
   1c308:	00177713          	andi	a4,a4,1
   1c30c:	ec0708e3          	beqz	a4,1c1dc <_svfprintf_r+0x12ec>
   1c310:	03000793          	li	a5,48
   1c314:	18f10fa3          	sb	a5,415(sp)
   1c318:	3290006f          	j	1ce40 <_svfprintf_r+0x1f50>
   1c31c:	2e0b04e3          	beqz	s6,1ce04 <_svfprintf_r+0x1f14>
   1c320:	13610e23          	sb	s6,316(sp)
   1c324:	0a010ba3          	sb	zero,183(sp)
   1c328:	01512c23          	sw	s5,24(sp)
   1c32c:	f3dfe06f          	j	1b268 <_svfprintf_r+0x378>
   1c330:	01058593          	addi	a1,a1,16
   1c334:	01cc2223          	sw	t3,4(s8)
   1c338:	0cb12e23          	sw	a1,220(sp)
   1c33c:	0cc12c23          	sw	a2,216(sp)
   1c340:	02cede63          	ble	a2,t4,1c37c <_svfprintf_r+0x148c>
   1c344:	0d410613          	addi	a2,sp,212
   1c348:	00098593          	mv	a1,s3
   1c34c:	00090513          	mv	a0,s2
   1c350:	04e12823          	sw	a4,80(sp)
   1c354:	04d12423          	sw	a3,72(sp)
   1c358:	7dd010ef          	jal	ra,1e334 <__ssprint_r>
   1c35c:	240512e3          	bnez	a0,1cda0 <_svfprintf_r+0x1eb0>
   1c360:	05012703          	lw	a4,80(sp)
   1c364:	04812683          	lw	a3,72(sp)
   1c368:	000257b7          	lui	a5,0x25
   1c36c:	0fc10513          	addi	a0,sp,252
   1c370:	00700e93          	li	t4,7
   1c374:	a0478813          	addi	a6,a5,-1532 # 24a04 <blanks.4498>
   1c378:	01000e13          	li	t3,16
   1c37c:	ff068693          	addi	a3,a3,-16
   1c380:	00050c13          	mv	s8,a0
   1c384:	f61fe06f          	j	1b2e4 <_svfprintf_r+0x3f4>
   1c388:	01060613          	addi	a2,a2,16
   1c38c:	010c2223          	sw	a6,4(s8)
   1c390:	0cc12e23          	sw	a2,220(sp)
   1c394:	0cd12c23          	sw	a3,216(sp)
   1c398:	02de5663          	ble	a3,t3,1c3c4 <_svfprintf_r+0x14d4>
   1c39c:	0d410613          	addi	a2,sp,212
   1c3a0:	00098593          	mv	a1,s3
   1c3a4:	00090513          	mv	a0,s2
   1c3a8:	04e12223          	sw	a4,68(sp)
   1c3ac:	789010ef          	jal	ra,1e334 <__ssprint_r>
   1c3b0:	1e0518e3          	bnez	a0,1cda0 <_svfprintf_r+0x1eb0>
   1c3b4:	04412703          	lw	a4,68(sp)
   1c3b8:	0fc10593          	addi	a1,sp,252
   1c3bc:	00700e13          	li	t3,7
   1c3c0:	01000813          	li	a6,16
   1c3c4:	ff0a8a93          	addi	s5,s5,-16
   1c3c8:	00058c13          	mv	s8,a1
   1c3cc:	854ff06f          	j	1b420 <_svfprintf_r+0x530>
   1c3d0:	01070713          	addi	a4,a4,16
   1c3d4:	010c2223          	sw	a6,4(s8)
   1c3d8:	0ce12e23          	sw	a4,220(sp)
   1c3dc:	0cd12c23          	sw	a3,216(sp)
   1c3e0:	02de5263          	ble	a3,t3,1c404 <_svfprintf_r+0x1514>
   1c3e4:	0d410613          	addi	a2,sp,212
   1c3e8:	00098593          	mv	a1,s3
   1c3ec:	00090513          	mv	a0,s2
   1c3f0:	745010ef          	jal	ra,1e334 <__ssprint_r>
   1c3f4:	1a0516e3          	bnez	a0,1cda0 <_svfprintf_r+0x1eb0>
   1c3f8:	0fc10613          	addi	a2,sp,252
   1c3fc:	00700e13          	li	t3,7
   1c400:	01000813          	li	a6,16
   1c404:	ff0a8a93          	addi	s5,s5,-16
   1c408:	00060c13          	mv	s8,a2
   1c40c:	880ff06f          	j	1b48c <_svfprintf_r+0x59c>
   1c410:	06500693          	li	a3,101
   1c414:	7366d463          	ble	s6,a3,1cb3c <_svfprintf_r+0x1c4c>
   1c418:	0e012683          	lw	a3,224(sp)
   1c41c:	09010593          	addi	a1,sp,144
   1c420:	0a010513          	addi	a0,sp,160
   1c424:	0ad12023          	sw	a3,160(sp)
   1c428:	0e412683          	lw	a3,228(sp)
   1c42c:	04e12223          	sw	a4,68(sp)
   1c430:	08012823          	sw	zero,144(sp)
   1c434:	0ad12223          	sw	a3,164(sp)
   1c438:	0e812683          	lw	a3,232(sp)
   1c43c:	08012a23          	sw	zero,148(sp)
   1c440:	08012c23          	sw	zero,152(sp)
   1c444:	0ad12423          	sw	a3,168(sp)
   1c448:	0ec12683          	lw	a3,236(sp)
   1c44c:	08012e23          	sw	zero,156(sp)
   1c450:	0ad12623          	sw	a3,172(sp)
   1c454:	314040ef          	jal	ra,20768 <__eqtf2>
   1c458:	04412703          	lw	a4,68(sp)
   1c45c:	12051a63          	bnez	a0,1c590 <_svfprintf_r+0x16a0>
   1c460:	000247b7          	lui	a5,0x24
   1c464:	4e478793          	addi	a5,a5,1252 # 244e4 <zeroes.4514+0x48>
   1c468:	00fc2023          	sw	a5,0(s8)
   1c46c:	00100793          	li	a5,1
   1c470:	00fc2223          	sw	a5,4(s8)
   1c474:	0d812783          	lw	a5,216(sp)
   1c478:	00170713          	addi	a4,a4,1
   1c47c:	0ce12e23          	sw	a4,220(sp)
   1c480:	00178793          	addi	a5,a5,1
   1c484:	0cf12c23          	sw	a5,216(sp)
   1c488:	00700713          	li	a4,7
   1c48c:	008c0c13          	addi	s8,s8,8
   1c490:	00f75e63          	ble	a5,a4,1c4ac <_svfprintf_r+0x15bc>
   1c494:	0d410613          	addi	a2,sp,212
   1c498:	00098593          	mv	a1,s3
   1c49c:	00090513          	mv	a0,s2
   1c4a0:	695010ef          	jal	ra,1e334 <__ssprint_r>
   1c4a4:	0e051ee3          	bnez	a0,1cda0 <_svfprintf_r+0x1eb0>
   1c4a8:	0fc10c13          	addi	s8,sp,252
   1c4ac:	0bc12783          	lw	a5,188(sp)
   1c4b0:	0147c663          	blt	a5,s4,1c4bc <_svfprintf_r+0x15cc>
   1c4b4:	00147793          	andi	a5,s0,1
   1c4b8:	22078063          	beqz	a5,1c6d8 <_svfprintf_r+0x17e8>
   1c4bc:	03412783          	lw	a5,52(sp)
   1c4c0:	02012703          	lw	a4,32(sp)
   1c4c4:	008c0c13          	addi	s8,s8,8
   1c4c8:	fefc2c23          	sw	a5,-8(s8)
   1c4cc:	02012783          	lw	a5,32(sp)
   1c4d0:	fefc2e23          	sw	a5,-4(s8)
   1c4d4:	0dc12783          	lw	a5,220(sp)
   1c4d8:	00e787b3          	add	a5,a5,a4
   1c4dc:	0cf12e23          	sw	a5,220(sp)
   1c4e0:	0d812783          	lw	a5,216(sp)
   1c4e4:	00700713          	li	a4,7
   1c4e8:	00178793          	addi	a5,a5,1
   1c4ec:	0cf12c23          	sw	a5,216(sp)
   1c4f0:	00f75e63          	ble	a5,a4,1c50c <_svfprintf_r+0x161c>
   1c4f4:	0d410613          	addi	a2,sp,212
   1c4f8:	00098593          	mv	a1,s3
   1c4fc:	00090513          	mv	a0,s2
   1c500:	635010ef          	jal	ra,1e334 <__ssprint_r>
   1c504:	08051ee3          	bnez	a0,1cda0 <_svfprintf_r+0x1eb0>
   1c508:	0fc10c13          	addi	s8,sp,252
   1c50c:	fffa0493          	addi	s1,s4,-1
   1c510:	1c905463          	blez	s1,1c6d8 <_svfprintf_r+0x17e8>
   1c514:	01000a93          	li	s5,16
   1c518:	00700b13          	li	s6,7
   1c51c:	01412603          	lw	a2,20(sp)
   1c520:	0d812783          	lw	a5,216(sp)
   1c524:	0dc12703          	lw	a4,220(sp)
   1c528:	00cc2023          	sw	a2,0(s8)
   1c52c:	00178793          	addi	a5,a5,1
   1c530:	008c0693          	addi	a3,s8,8
   1c534:	029ac263          	blt	s5,s1,1c558 <_svfprintf_r+0x1668>
   1c538:	009c2223          	sw	s1,4(s8)
   1c53c:	00e484b3          	add	s1,s1,a4
   1c540:	0c912e23          	sw	s1,220(sp)
   1c544:	0cf12c23          	sw	a5,216(sp)
   1c548:	00700713          	li	a4,7
   1c54c:	00068c13          	mv	s8,a3
   1c550:	18f75463          	ble	a5,a4,1c6d8 <_svfprintf_r+0x17e8>
   1c554:	fc5fe06f          	j	1b518 <_svfprintf_r+0x628>
   1c558:	01070713          	addi	a4,a4,16
   1c55c:	015c2223          	sw	s5,4(s8)
   1c560:	0ce12e23          	sw	a4,220(sp)
   1c564:	0cf12c23          	sw	a5,216(sp)
   1c568:	00fb5e63          	ble	a5,s6,1c584 <_svfprintf_r+0x1694>
   1c56c:	0d410613          	addi	a2,sp,212
   1c570:	00098593          	mv	a1,s3
   1c574:	00090513          	mv	a0,s2
   1c578:	5bd010ef          	jal	ra,1e334 <__ssprint_r>
   1c57c:	020512e3          	bnez	a0,1cda0 <_svfprintf_r+0x1eb0>
   1c580:	0fc10693          	addi	a3,sp,252
   1c584:	ff048493          	addi	s1,s1,-16
   1c588:	00068c13          	mv	s8,a3
   1c58c:	f91ff06f          	j	1c51c <_svfprintf_r+0x162c>
   1c590:	0bc12683          	lw	a3,188(sp)
   1c594:	1cd04863          	bgtz	a3,1c764 <_svfprintf_r+0x1874>
   1c598:	000247b7          	lui	a5,0x24
   1c59c:	4e478793          	addi	a5,a5,1252 # 244e4 <zeroes.4514+0x48>
   1c5a0:	00fc2023          	sw	a5,0(s8)
   1c5a4:	00100793          	li	a5,1
   1c5a8:	00fc2223          	sw	a5,4(s8)
   1c5ac:	0d812783          	lw	a5,216(sp)
   1c5b0:	00170713          	addi	a4,a4,1
   1c5b4:	0ce12e23          	sw	a4,220(sp)
   1c5b8:	00178793          	addi	a5,a5,1
   1c5bc:	0cf12c23          	sw	a5,216(sp)
   1c5c0:	00700713          	li	a4,7
   1c5c4:	008c0c13          	addi	s8,s8,8
   1c5c8:	00f75e63          	ble	a5,a4,1c5e4 <_svfprintf_r+0x16f4>
   1c5cc:	0d410613          	addi	a2,sp,212
   1c5d0:	00098593          	mv	a1,s3
   1c5d4:	00090513          	mv	a0,s2
   1c5d8:	55d010ef          	jal	ra,1e334 <__ssprint_r>
   1c5dc:	7c051263          	bnez	a0,1cda0 <_svfprintf_r+0x1eb0>
   1c5e0:	0fc10c13          	addi	s8,sp,252
   1c5e4:	0bc12783          	lw	a5,188(sp)
   1c5e8:	00147693          	andi	a3,s0,1
   1c5ec:	0dc12703          	lw	a4,220(sp)
   1c5f0:	00fa67b3          	or	a5,s4,a5
   1c5f4:	00d7e7b3          	or	a5,a5,a3
   1c5f8:	0e078063          	beqz	a5,1c6d8 <_svfprintf_r+0x17e8>
   1c5fc:	03412783          	lw	a5,52(sp)
   1c600:	008c0893          	addi	a7,s8,8
   1c604:	00fc2023          	sw	a5,0(s8)
   1c608:	02012783          	lw	a5,32(sp)
   1c60c:	00fc2223          	sw	a5,4(s8)
   1c610:	00e787b3          	add	a5,a5,a4
   1c614:	0cf12e23          	sw	a5,220(sp)
   1c618:	0d812783          	lw	a5,216(sp)
   1c61c:	00700713          	li	a4,7
   1c620:	00178793          	addi	a5,a5,1
   1c624:	0cf12c23          	sw	a5,216(sp)
   1c628:	00f75e63          	ble	a5,a4,1c644 <_svfprintf_r+0x1754>
   1c62c:	0d410613          	addi	a2,sp,212
   1c630:	00098593          	mv	a1,s3
   1c634:	00090513          	mv	a0,s2
   1c638:	4fd010ef          	jal	ra,1e334 <__ssprint_r>
   1c63c:	76051263          	bnez	a0,1cda0 <_svfprintf_r+0x1eb0>
   1c640:	0fc10893          	addi	a7,sp,252
   1c644:	0bc12a83          	lw	s5,188(sp)
   1c648:	060ad063          	bgez	s5,1c6a8 <_svfprintf_r+0x17b8>
   1c64c:	41500ab3          	neg	s5,s5
   1c650:	00088713          	mv	a4,a7
   1c654:	01000b13          	li	s6,16
   1c658:	00700c93          	li	s9,7
   1c65c:	01412603          	lw	a2,20(sp)
   1c660:	0d812783          	lw	a5,216(sp)
   1c664:	0dc12683          	lw	a3,220(sp)
   1c668:	00c72023          	sw	a2,0(a4)
   1c66c:	00178793          	addi	a5,a5,1
   1c670:	00888893          	addi	a7,a7,8
   1c674:	0b5b4c63          	blt	s6,s5,1c72c <_svfprintf_r+0x183c>
   1c678:	01572223          	sw	s5,4(a4)
   1c67c:	00da8ab3          	add	s5,s5,a3
   1c680:	0d512e23          	sw	s5,220(sp)
   1c684:	0cf12c23          	sw	a5,216(sp)
   1c688:	00700713          	li	a4,7
   1c68c:	00f75e63          	ble	a5,a4,1c6a8 <_svfprintf_r+0x17b8>
   1c690:	0d410613          	addi	a2,sp,212
   1c694:	00098593          	mv	a1,s3
   1c698:	00090513          	mv	a0,s2
   1c69c:	499010ef          	jal	ra,1e334 <__ssprint_r>
   1c6a0:	70051063          	bnez	a0,1cda0 <_svfprintf_r+0x1eb0>
   1c6a4:	0fc10893          	addi	a7,sp,252
   1c6a8:	0dc12783          	lw	a5,220(sp)
   1c6ac:	0098a023          	sw	s1,0(a7)
   1c6b0:	0148a223          	sw	s4,4(a7)
   1c6b4:	014787b3          	add	a5,a5,s4
   1c6b8:	0cf12e23          	sw	a5,220(sp)
   1c6bc:	0d812783          	lw	a5,216(sp)
   1c6c0:	00700713          	li	a4,7
   1c6c4:	00888c13          	addi	s8,a7,8
   1c6c8:	00178793          	addi	a5,a5,1
   1c6cc:	0cf12c23          	sw	a5,216(sp)
   1c6d0:	00f75463          	ble	a5,a4,1c6d8 <_svfprintf_r+0x17e8>
   1c6d4:	e45fe06f          	j	1b518 <_svfprintf_r+0x628>
   1c6d8:	00447413          	andi	s0,s0,4
   1c6dc:	66041263          	bnez	s0,1cd40 <_svfprintf_r+0x1e50>
   1c6e0:	02812b03          	lw	s6,40(sp)
   1c6e4:	02c12783          	lw	a5,44(sp)
   1c6e8:	00fb5463          	ble	a5,s6,1c6f0 <_svfprintf_r+0x1800>
   1c6ec:	00078b13          	mv	s6,a5
   1c6f0:	02412783          	lw	a5,36(sp)
   1c6f4:	016787b3          	add	a5,a5,s6
   1c6f8:	02f12223          	sw	a5,36(sp)
   1c6fc:	0dc12783          	lw	a5,220(sp)
   1c700:	00078c63          	beqz	a5,1c718 <_svfprintf_r+0x1828>
   1c704:	0d410613          	addi	a2,sp,212
   1c708:	00098593          	mv	a1,s3
   1c70c:	00090513          	mv	a0,s2
   1c710:	425010ef          	jal	ra,1e334 <__ssprint_r>
   1c714:	68051663          	bnez	a0,1cda0 <_svfprintf_r+0x1eb0>
   1c718:	00c12783          	lw	a5,12(sp)
   1c71c:	0c012c23          	sw	zero,216(sp)
   1c720:	6c079a63          	bnez	a5,1cdf4 <_svfprintf_r+0x1f04>
   1c724:	0fc10c13          	addi	s8,sp,252
   1c728:	811ff06f          	j	1bf38 <_svfprintf_r+0x1048>
   1c72c:	01068693          	addi	a3,a3,16
   1c730:	01672223          	sw	s6,4(a4)
   1c734:	0cd12e23          	sw	a3,220(sp)
   1c738:	0cf12c23          	sw	a5,216(sp)
   1c73c:	00fcde63          	ble	a5,s9,1c758 <_svfprintf_r+0x1868>
   1c740:	0d410613          	addi	a2,sp,212
   1c744:	00098593          	mv	a1,s3
   1c748:	00090513          	mv	a0,s2
   1c74c:	3e9010ef          	jal	ra,1e334 <__ssprint_r>
   1c750:	64051863          	bnez	a0,1cda0 <_svfprintf_r+0x1eb0>
   1c754:	0fc10893          	addi	a7,sp,252
   1c758:	ff0a8a93          	addi	s5,s5,-16
   1c75c:	00088713          	mv	a4,a7
   1c760:	efdff06f          	j	1c65c <_svfprintf_r+0x176c>
   1c764:	000d8a93          	mv	s5,s11
   1c768:	01ba5463          	ble	s11,s4,1c770 <_svfprintf_r+0x1880>
   1c76c:	000a0a93          	mv	s5,s4
   1c770:	05505263          	blez	s5,1c7b4 <_svfprintf_r+0x18c4>
   1c774:	00ea8733          	add	a4,s5,a4
   1c778:	0ce12e23          	sw	a4,220(sp)
   1c77c:	0d812703          	lw	a4,216(sp)
   1c780:	009c2023          	sw	s1,0(s8)
   1c784:	015c2223          	sw	s5,4(s8)
   1c788:	00170713          	addi	a4,a4,1
   1c78c:	0ce12c23          	sw	a4,216(sp)
   1c790:	00700693          	li	a3,7
   1c794:	008c0c13          	addi	s8,s8,8
   1c798:	00e6de63          	ble	a4,a3,1c7b4 <_svfprintf_r+0x18c4>
   1c79c:	0d410613          	addi	a2,sp,212
   1c7a0:	00098593          	mv	a1,s3
   1c7a4:	00090513          	mv	a0,s2
   1c7a8:	38d010ef          	jal	ra,1e334 <__ssprint_r>
   1c7ac:	5e051a63          	bnez	a0,1cda0 <_svfprintf_r+0x1eb0>
   1c7b0:	0fc10c13          	addi	s8,sp,252
   1c7b4:	000ad463          	bgez	s5,1c7bc <_svfprintf_r+0x18cc>
   1c7b8:	00000a93          	li	s5,0
   1c7bc:	415d8ab3          	sub	s5,s11,s5
   1c7c0:	05505e63          	blez	s5,1c81c <_svfprintf_r+0x192c>
   1c7c4:	01000b13          	li	s6,16
   1c7c8:	00700b93          	li	s7,7
   1c7cc:	01412783          	lw	a5,20(sp)
   1c7d0:	0d812703          	lw	a4,216(sp)
   1c7d4:	0dc12683          	lw	a3,220(sp)
   1c7d8:	00fc2023          	sw	a5,0(s8)
   1c7dc:	00170713          	addi	a4,a4,1
   1c7e0:	008c0613          	addi	a2,s8,8
   1c7e4:	195b4c63          	blt	s6,s5,1c97c <_svfprintf_r+0x1a8c>
   1c7e8:	015c2223          	sw	s5,4(s8)
   1c7ec:	00da8ab3          	add	s5,s5,a3
   1c7f0:	0d512e23          	sw	s5,220(sp)
   1c7f4:	0ce12c23          	sw	a4,216(sp)
   1c7f8:	00700693          	li	a3,7
   1c7fc:	00060c13          	mv	s8,a2
   1c800:	00e6de63          	ble	a4,a3,1c81c <_svfprintf_r+0x192c>
   1c804:	0d410613          	addi	a2,sp,212
   1c808:	00098593          	mv	a1,s3
   1c80c:	00090513          	mv	a0,s2
   1c810:	325010ef          	jal	ra,1e334 <__ssprint_r>
   1c814:	58051663          	bnez	a0,1cda0 <_svfprintf_r+0x1eb0>
   1c818:	0fc10c13          	addi	s8,sp,252
   1c81c:	40047793          	andi	a5,s0,1024
   1c820:	01b48ab3          	add	s5,s1,s11
   1c824:	02078063          	beqz	a5,1c844 <_svfprintf_r+0x1954>
   1c828:	00700b13          	li	s6,7
   1c82c:	01448bb3          	add	s7,s1,s4
   1c830:	180c9263          	bnez	s9,1c9b4 <_svfprintf_r+0x1ac4>
   1c834:	180d1263          	bnez	s10,1c9b8 <_svfprintf_r+0x1ac8>
   1c838:	014487b3          	add	a5,s1,s4
   1c83c:	0157f463          	bleu	s5,a5,1c844 <_svfprintf_r+0x1954>
   1c840:	00078a93          	mv	s5,a5
   1c844:	0bc12783          	lw	a5,188(sp)
   1c848:	0147c663          	blt	a5,s4,1c854 <_svfprintf_r+0x1964>
   1c84c:	00147793          	andi	a5,s0,1
   1c850:	04078a63          	beqz	a5,1c8a4 <_svfprintf_r+0x19b4>
   1c854:	03412783          	lw	a5,52(sp)
   1c858:	02012703          	lw	a4,32(sp)
   1c85c:	008c0c13          	addi	s8,s8,8
   1c860:	fefc2c23          	sw	a5,-8(s8)
   1c864:	02012783          	lw	a5,32(sp)
   1c868:	fefc2e23          	sw	a5,-4(s8)
   1c86c:	0dc12783          	lw	a5,220(sp)
   1c870:	00e787b3          	add	a5,a5,a4
   1c874:	0cf12e23          	sw	a5,220(sp)
   1c878:	0d812783          	lw	a5,216(sp)
   1c87c:	00700713          	li	a4,7
   1c880:	00178793          	addi	a5,a5,1
   1c884:	0cf12c23          	sw	a5,216(sp)
   1c888:	00f75e63          	ble	a5,a4,1c8a4 <_svfprintf_r+0x19b4>
   1c88c:	0d410613          	addi	a2,sp,212
   1c890:	00098593          	mv	a1,s3
   1c894:	00090513          	mv	a0,s2
   1c898:	29d010ef          	jal	ra,1e334 <__ssprint_r>
   1c89c:	50051263          	bnez	a0,1cda0 <_svfprintf_r+0x1eb0>
   1c8a0:	0fc10c13          	addi	s8,sp,252
   1c8a4:	014484b3          	add	s1,s1,s4
   1c8a8:	415487b3          	sub	a5,s1,s5
   1c8ac:	0bc12483          	lw	s1,188(sp)
   1c8b0:	409a04b3          	sub	s1,s4,s1
   1c8b4:	0097d463          	ble	s1,a5,1c8bc <_svfprintf_r+0x19cc>
   1c8b8:	00078493          	mv	s1,a5
   1c8bc:	04905463          	blez	s1,1c904 <_svfprintf_r+0x1a14>
   1c8c0:	0dc12783          	lw	a5,220(sp)
   1c8c4:	015c2023          	sw	s5,0(s8)
   1c8c8:	009c2223          	sw	s1,4(s8)
   1c8cc:	00f487b3          	add	a5,s1,a5
   1c8d0:	0cf12e23          	sw	a5,220(sp)
   1c8d4:	0d812783          	lw	a5,216(sp)
   1c8d8:	00700713          	li	a4,7
   1c8dc:	008c0c13          	addi	s8,s8,8
   1c8e0:	00178793          	addi	a5,a5,1
   1c8e4:	0cf12c23          	sw	a5,216(sp)
   1c8e8:	00f75e63          	ble	a5,a4,1c904 <_svfprintf_r+0x1a14>
   1c8ec:	0d410613          	addi	a2,sp,212
   1c8f0:	00098593          	mv	a1,s3
   1c8f4:	00090513          	mv	a0,s2
   1c8f8:	23d010ef          	jal	ra,1e334 <__ssprint_r>
   1c8fc:	4a051263          	bnez	a0,1cda0 <_svfprintf_r+0x1eb0>
   1c900:	0fc10c13          	addi	s8,sp,252
   1c904:	00048793          	mv	a5,s1
   1c908:	0004d463          	bgez	s1,1c910 <_svfprintf_r+0x1a20>
   1c90c:	00000793          	li	a5,0
   1c910:	0bc12483          	lw	s1,188(sp)
   1c914:	409a04b3          	sub	s1,s4,s1
   1c918:	40f484b3          	sub	s1,s1,a5
   1c91c:	da905ee3          	blez	s1,1c6d8 <_svfprintf_r+0x17e8>
   1c920:	01000a93          	li	s5,16
   1c924:	00700b13          	li	s6,7
   1c928:	01412603          	lw	a2,20(sp)
   1c92c:	0d812783          	lw	a5,216(sp)
   1c930:	0dc12703          	lw	a4,220(sp)
   1c934:	00cc2023          	sw	a2,0(s8)
   1c938:	00178793          	addi	a5,a5,1
   1c93c:	008c0693          	addi	a3,s8,8
   1c940:	be9adce3          	ble	s1,s5,1c538 <_svfprintf_r+0x1648>
   1c944:	01070713          	addi	a4,a4,16
   1c948:	015c2223          	sw	s5,4(s8)
   1c94c:	0ce12e23          	sw	a4,220(sp)
   1c950:	0cf12c23          	sw	a5,216(sp)
   1c954:	00fb5e63          	ble	a5,s6,1c970 <_svfprintf_r+0x1a80>
   1c958:	0d410613          	addi	a2,sp,212
   1c95c:	00098593          	mv	a1,s3
   1c960:	00090513          	mv	a0,s2
   1c964:	1d1010ef          	jal	ra,1e334 <__ssprint_r>
   1c968:	42051c63          	bnez	a0,1cda0 <_svfprintf_r+0x1eb0>
   1c96c:	0fc10693          	addi	a3,sp,252
   1c970:	ff048493          	addi	s1,s1,-16
   1c974:	00068c13          	mv	s8,a3
   1c978:	fb1ff06f          	j	1c928 <_svfprintf_r+0x1a38>
   1c97c:	01068693          	addi	a3,a3,16
   1c980:	016c2223          	sw	s6,4(s8)
   1c984:	0cd12e23          	sw	a3,220(sp)
   1c988:	0ce12c23          	sw	a4,216(sp)
   1c98c:	00ebde63          	ble	a4,s7,1c9a8 <_svfprintf_r+0x1ab8>
   1c990:	0d410613          	addi	a2,sp,212
   1c994:	00098593          	mv	a1,s3
   1c998:	00090513          	mv	a0,s2
   1c99c:	199010ef          	jal	ra,1e334 <__ssprint_r>
   1c9a0:	40051063          	bnez	a0,1cda0 <_svfprintf_r+0x1eb0>
   1c9a4:	0fc10613          	addi	a2,sp,252
   1c9a8:	ff0a8a93          	addi	s5,s5,-16
   1c9ac:	00060c13          	mv	s8,a2
   1c9b0:	e1dff06f          	j	1c7cc <_svfprintf_r+0x18dc>
   1c9b4:	0e0d0263          	beqz	s10,1ca98 <_svfprintf_r+0x1ba8>
   1c9b8:	fffd0d13          	addi	s10,s10,-1
   1c9bc:	03812783          	lw	a5,56(sp)
   1c9c0:	03012703          	lw	a4,48(sp)
   1c9c4:	008c0c13          	addi	s8,s8,8
   1c9c8:	fefc2c23          	sw	a5,-8(s8)
   1c9cc:	03012783          	lw	a5,48(sp)
   1c9d0:	fefc2e23          	sw	a5,-4(s8)
   1c9d4:	0dc12783          	lw	a5,220(sp)
   1c9d8:	00e787b3          	add	a5,a5,a4
   1c9dc:	0cf12e23          	sw	a5,220(sp)
   1c9e0:	0d812783          	lw	a5,216(sp)
   1c9e4:	00178793          	addi	a5,a5,1
   1c9e8:	0cf12c23          	sw	a5,216(sp)
   1c9ec:	00fb5e63          	ble	a5,s6,1ca08 <_svfprintf_r+0x1b18>
   1c9f0:	0d410613          	addi	a2,sp,212
   1c9f4:	00098593          	mv	a1,s3
   1c9f8:	00090513          	mv	a0,s2
   1c9fc:	139010ef          	jal	ra,1e334 <__ssprint_r>
   1ca00:	3a051063          	bnez	a0,1cda0 <_svfprintf_r+0x1eb0>
   1ca04:	0fc10c13          	addi	s8,sp,252
   1ca08:	01012783          	lw	a5,16(sp)
   1ca0c:	415b8733          	sub	a4,s7,s5
   1ca10:	0007c783          	lbu	a5,0(a5)
   1ca14:	00f75463          	ble	a5,a4,1ca1c <_svfprintf_r+0x1b2c>
   1ca18:	00070793          	mv	a5,a4
   1ca1c:	04f05663          	blez	a5,1ca68 <_svfprintf_r+0x1b78>
   1ca20:	0dc12703          	lw	a4,220(sp)
   1ca24:	015c2023          	sw	s5,0(s8)
   1ca28:	00fc2223          	sw	a5,4(s8)
   1ca2c:	00e78733          	add	a4,a5,a4
   1ca30:	0ce12e23          	sw	a4,220(sp)
   1ca34:	0d812703          	lw	a4,216(sp)
   1ca38:	008c0c13          	addi	s8,s8,8
   1ca3c:	00170713          	addi	a4,a4,1
   1ca40:	0ce12c23          	sw	a4,216(sp)
   1ca44:	02eb5263          	ble	a4,s6,1ca68 <_svfprintf_r+0x1b78>
   1ca48:	0d410613          	addi	a2,sp,212
   1ca4c:	00098593          	mv	a1,s3
   1ca50:	00090513          	mv	a0,s2
   1ca54:	04f12223          	sw	a5,68(sp)
   1ca58:	0dd010ef          	jal	ra,1e334 <__ssprint_r>
   1ca5c:	34051263          	bnez	a0,1cda0 <_svfprintf_r+0x1eb0>
   1ca60:	04412783          	lw	a5,68(sp)
   1ca64:	0fc10c13          	addi	s8,sp,252
   1ca68:	00078713          	mv	a4,a5
   1ca6c:	0007d463          	bgez	a5,1ca74 <_svfprintf_r+0x1b84>
   1ca70:	00000713          	li	a4,0
   1ca74:	01012783          	lw	a5,16(sp)
   1ca78:	01000813          	li	a6,16
   1ca7c:	0007c783          	lbu	a5,0(a5)
   1ca80:	40e787b3          	sub	a5,a5,a4
   1ca84:	06f04463          	bgtz	a5,1caec <_svfprintf_r+0x1bfc>
   1ca88:	01012783          	lw	a5,16(sp)
   1ca8c:	0007c783          	lbu	a5,0(a5)
   1ca90:	00fa8ab3          	add	s5,s5,a5
   1ca94:	d9dff06f          	j	1c830 <_svfprintf_r+0x1940>
   1ca98:	01012783          	lw	a5,16(sp)
   1ca9c:	fffc8c93          	addi	s9,s9,-1
   1caa0:	fff78793          	addi	a5,a5,-1
   1caa4:	00f12823          	sw	a5,16(sp)
   1caa8:	f15ff06f          	j	1c9bc <_svfprintf_r+0x1acc>
   1caac:	01068693          	addi	a3,a3,16
   1cab0:	010c2223          	sw	a6,4(s8)
   1cab4:	0cd12e23          	sw	a3,220(sp)
   1cab8:	0ce12c23          	sw	a4,216(sp)
   1cabc:	02eb5463          	ble	a4,s6,1cae4 <_svfprintf_r+0x1bf4>
   1cac0:	0d410613          	addi	a2,sp,212
   1cac4:	00098593          	mv	a1,s3
   1cac8:	00090513          	mv	a0,s2
   1cacc:	04f12223          	sw	a5,68(sp)
   1cad0:	065010ef          	jal	ra,1e334 <__ssprint_r>
   1cad4:	2c051663          	bnez	a0,1cda0 <_svfprintf_r+0x1eb0>
   1cad8:	04412783          	lw	a5,68(sp)
   1cadc:	0fc10613          	addi	a2,sp,252
   1cae0:	01000813          	li	a6,16
   1cae4:	ff078793          	addi	a5,a5,-16
   1cae8:	00060c13          	mv	s8,a2
   1caec:	01412583          	lw	a1,20(sp)
   1caf0:	0d812703          	lw	a4,216(sp)
   1caf4:	0dc12683          	lw	a3,220(sp)
   1caf8:	00bc2023          	sw	a1,0(s8)
   1cafc:	00170713          	addi	a4,a4,1
   1cb00:	008c0613          	addi	a2,s8,8
   1cb04:	faf844e3          	blt	a6,a5,1caac <_svfprintf_r+0x1bbc>
   1cb08:	00fc2223          	sw	a5,4(s8)
   1cb0c:	00d787b3          	add	a5,a5,a3
   1cb10:	0cf12e23          	sw	a5,220(sp)
   1cb14:	0ce12c23          	sw	a4,216(sp)
   1cb18:	00060c13          	mv	s8,a2
   1cb1c:	f6eb56e3          	ble	a4,s6,1ca88 <_svfprintf_r+0x1b98>
   1cb20:	0d410613          	addi	a2,sp,212
   1cb24:	00098593          	mv	a1,s3
   1cb28:	00090513          	mv	a0,s2
   1cb2c:	009010ef          	jal	ra,1e334 <__ssprint_r>
   1cb30:	26051863          	bnez	a0,1cda0 <_svfprintf_r+0x1eb0>
   1cb34:	0fc10c13          	addi	s8,sp,252
   1cb38:	f51ff06f          	j	1ca88 <_svfprintf_r+0x1b98>
   1cb3c:	0d812783          	lw	a5,216(sp)
   1cb40:	00100693          	li	a3,1
   1cb44:	009c2023          	sw	s1,0(s8)
   1cb48:	00170713          	addi	a4,a4,1
   1cb4c:	00178793          	addi	a5,a5,1
   1cb50:	008c0a93          	addi	s5,s8,8
   1cb54:	0146c663          	blt	a3,s4,1cb60 <_svfprintf_r+0x1c70>
   1cb58:	00147613          	andi	a2,s0,1
   1cb5c:	1c060663          	beqz	a2,1cd28 <_svfprintf_r+0x1e38>
   1cb60:	00100693          	li	a3,1
   1cb64:	0ce12e23          	sw	a4,220(sp)
   1cb68:	00dc2223          	sw	a3,4(s8)
   1cb6c:	0cf12c23          	sw	a5,216(sp)
   1cb70:	00700713          	li	a4,7
   1cb74:	00f75e63          	ble	a5,a4,1cb90 <_svfprintf_r+0x1ca0>
   1cb78:	0d410613          	addi	a2,sp,212
   1cb7c:	00098593          	mv	a1,s3
   1cb80:	00090513          	mv	a0,s2
   1cb84:	7b0010ef          	jal	ra,1e334 <__ssprint_r>
   1cb88:	20051c63          	bnez	a0,1cda0 <_svfprintf_r+0x1eb0>
   1cb8c:	0fc10a93          	addi	s5,sp,252
   1cb90:	03412783          	lw	a5,52(sp)
   1cb94:	02012703          	lw	a4,32(sp)
   1cb98:	008a8a93          	addi	s5,s5,8
   1cb9c:	fefaac23          	sw	a5,-8(s5)
   1cba0:	02012783          	lw	a5,32(sp)
   1cba4:	fefaae23          	sw	a5,-4(s5)
   1cba8:	0dc12783          	lw	a5,220(sp)
   1cbac:	00e787b3          	add	a5,a5,a4
   1cbb0:	0cf12e23          	sw	a5,220(sp)
   1cbb4:	0d812783          	lw	a5,216(sp)
   1cbb8:	00700713          	li	a4,7
   1cbbc:	00178793          	addi	a5,a5,1
   1cbc0:	0cf12c23          	sw	a5,216(sp)
   1cbc4:	00f75e63          	ble	a5,a4,1cbe0 <_svfprintf_r+0x1cf0>
   1cbc8:	0d410613          	addi	a2,sp,212
   1cbcc:	00098593          	mv	a1,s3
   1cbd0:	00090513          	mv	a0,s2
   1cbd4:	760010ef          	jal	ra,1e334 <__ssprint_r>
   1cbd8:	1c051463          	bnez	a0,1cda0 <_svfprintf_r+0x1eb0>
   1cbdc:	0fc10a93          	addi	s5,sp,252
   1cbe0:	0e012783          	lw	a5,224(sp)
   1cbe4:	09010593          	addi	a1,sp,144
   1cbe8:	0a010513          	addi	a0,sp,160
   1cbec:	0af12023          	sw	a5,160(sp)
   1cbf0:	0e412783          	lw	a5,228(sp)
   1cbf4:	fffa0b13          	addi	s6,s4,-1
   1cbf8:	08012823          	sw	zero,144(sp)
   1cbfc:	0af12223          	sw	a5,164(sp)
   1cc00:	0e812783          	lw	a5,232(sp)
   1cc04:	08012a23          	sw	zero,148(sp)
   1cc08:	08012c23          	sw	zero,152(sp)
   1cc0c:	0af12423          	sw	a5,168(sp)
   1cc10:	0ec12783          	lw	a5,236(sp)
   1cc14:	08012e23          	sw	zero,156(sp)
   1cc18:	0af12623          	sw	a5,172(sp)
   1cc1c:	34d030ef          	jal	ra,20768 <__eqtf2>
   1cc20:	08050663          	beqz	a0,1ccac <_svfprintf_r+0x1dbc>
   1cc24:	0dc12783          	lw	a5,220(sp)
   1cc28:	0d812703          	lw	a4,216(sp)
   1cc2c:	00148493          	addi	s1,s1,1
   1cc30:	fff78793          	addi	a5,a5,-1
   1cc34:	014787b3          	add	a5,a5,s4
   1cc38:	00170713          	addi	a4,a4,1
   1cc3c:	009aa023          	sw	s1,0(s5)
   1cc40:	016aa223          	sw	s6,4(s5)
   1cc44:	0cf12e23          	sw	a5,220(sp)
   1cc48:	0ce12c23          	sw	a4,216(sp)
   1cc4c:	00700793          	li	a5,7
   1cc50:	008a8a93          	addi	s5,s5,8
   1cc54:	00e7de63          	ble	a4,a5,1cc70 <_svfprintf_r+0x1d80>
   1cc58:	0d410613          	addi	a2,sp,212
   1cc5c:	00098593          	mv	a1,s3
   1cc60:	00090513          	mv	a0,s2
   1cc64:	6d0010ef          	jal	ra,1e334 <__ssprint_r>
   1cc68:	12051c63          	bnez	a0,1cda0 <_svfprintf_r+0x1eb0>
   1cc6c:	0fc10a93          	addi	s5,sp,252
   1cc70:	0c410793          	addi	a5,sp,196
   1cc74:	00faa023          	sw	a5,0(s5)
   1cc78:	03c12783          	lw	a5,60(sp)
   1cc7c:	03c12703          	lw	a4,60(sp)
   1cc80:	008a8c13          	addi	s8,s5,8
   1cc84:	00faa223          	sw	a5,4(s5)
   1cc88:	0dc12783          	lw	a5,220(sp)
   1cc8c:	00e787b3          	add	a5,a5,a4
   1cc90:	0cf12e23          	sw	a5,220(sp)
   1cc94:	0d812783          	lw	a5,216(sp)
   1cc98:	00700713          	li	a4,7
   1cc9c:	00178793          	addi	a5,a5,1
   1cca0:	0cf12c23          	sw	a5,216(sp)
   1cca4:	a2f75ae3          	ble	a5,a4,1c6d8 <_svfprintf_r+0x17e8>
   1cca8:	871fe06f          	j	1b518 <_svfprintf_r+0x628>
   1ccac:	fd6052e3          	blez	s6,1cc70 <_svfprintf_r+0x1d80>
   1ccb0:	01000493          	li	s1,16
   1ccb4:	00700c93          	li	s9,7
   1ccb8:	01412603          	lw	a2,20(sp)
   1ccbc:	0d812703          	lw	a4,216(sp)
   1ccc0:	0dc12783          	lw	a5,220(sp)
   1ccc4:	00caa023          	sw	a2,0(s5)
   1ccc8:	00170713          	addi	a4,a4,1
   1cccc:	008a8693          	addi	a3,s5,8
   1ccd0:	0364c063          	blt	s1,s6,1ccf0 <_svfprintf_r+0x1e00>
   1ccd4:	00fb07b3          	add	a5,s6,a5
   1ccd8:	016aa223          	sw	s6,4(s5)
   1ccdc:	0cf12e23          	sw	a5,220(sp)
   1cce0:	0ce12c23          	sw	a4,216(sp)
   1cce4:	00700793          	li	a5,7
   1cce8:	00068a93          	mv	s5,a3
   1ccec:	f69ff06f          	j	1cc54 <_svfprintf_r+0x1d64>
   1ccf0:	01078793          	addi	a5,a5,16
   1ccf4:	009aa223          	sw	s1,4(s5)
   1ccf8:	0cf12e23          	sw	a5,220(sp)
   1ccfc:	0ce12c23          	sw	a4,216(sp)
   1cd00:	00ecde63          	ble	a4,s9,1cd1c <_svfprintf_r+0x1e2c>
   1cd04:	0d410613          	addi	a2,sp,212
   1cd08:	00098593          	mv	a1,s3
   1cd0c:	00090513          	mv	a0,s2
   1cd10:	624010ef          	jal	ra,1e334 <__ssprint_r>
   1cd14:	08051663          	bnez	a0,1cda0 <_svfprintf_r+0x1eb0>
   1cd18:	0fc10693          	addi	a3,sp,252
   1cd1c:	ff0b0b13          	addi	s6,s6,-16
   1cd20:	00068a93          	mv	s5,a3
   1cd24:	f95ff06f          	j	1ccb8 <_svfprintf_r+0x1dc8>
   1cd28:	0ce12e23          	sw	a4,220(sp)
   1cd2c:	00dc2223          	sw	a3,4(s8)
   1cd30:	0cf12c23          	sw	a5,216(sp)
   1cd34:	00700713          	li	a4,7
   1cd38:	f2f75ce3          	ble	a5,a4,1cc70 <_svfprintf_r+0x1d80>
   1cd3c:	f1dff06f          	j	1cc58 <_svfprintf_r+0x1d68>
   1cd40:	02812783          	lw	a5,40(sp)
   1cd44:	02c12703          	lw	a4,44(sp)
   1cd48:	40e78433          	sub	s0,a5,a4
   1cd4c:	98805ae3          	blez	s0,1c6e0 <_svfprintf_r+0x17f0>
   1cd50:	000257b7          	lui	a5,0x25
   1cd54:	01000a93          	li	s5,16
   1cd58:	a0478493          	addi	s1,a5,-1532 # 24a04 <blanks.4498>
   1cd5c:	00700b13          	li	s6,7
   1cd60:	0d812783          	lw	a5,216(sp)
   1cd64:	009c2023          	sw	s1,0(s8)
   1cd68:	0dc12703          	lw	a4,220(sp)
   1cd6c:	00178793          	addi	a5,a5,1
   1cd70:	048ac663          	blt	s5,s0,1cdbc <_svfprintf_r+0x1ecc>
   1cd74:	008c2223          	sw	s0,4(s8)
   1cd78:	00e40433          	add	s0,s0,a4
   1cd7c:	0c812e23          	sw	s0,220(sp)
   1cd80:	0cf12c23          	sw	a5,216(sp)
   1cd84:	00700713          	li	a4,7
   1cd88:	94f75ce3          	ble	a5,a4,1c6e0 <_svfprintf_r+0x17f0>
   1cd8c:	0d410613          	addi	a2,sp,212
   1cd90:	00098593          	mv	a1,s3
   1cd94:	00090513          	mv	a0,s2
   1cd98:	59c010ef          	jal	ra,1e334 <__ssprint_r>
   1cd9c:	940502e3          	beqz	a0,1c6e0 <_svfprintf_r+0x17f0>
   1cda0:	00c12783          	lw	a5,12(sp)
   1cda4:	00079463          	bnez	a5,1cdac <_svfprintf_r+0x1ebc>
   1cda8:	9d5fe06f          	j	1b77c <_svfprintf_r+0x88c>
   1cdac:	00078593          	mv	a1,a5
   1cdb0:	00090513          	mv	a0,s2
   1cdb4:	d68f90ef          	jal	ra,1631c <_free_r>
   1cdb8:	9c5fe06f          	j	1b77c <_svfprintf_r+0x88c>
   1cdbc:	01070713          	addi	a4,a4,16
   1cdc0:	015c2223          	sw	s5,4(s8)
   1cdc4:	0ce12e23          	sw	a4,220(sp)
   1cdc8:	0cf12c23          	sw	a5,216(sp)
   1cdcc:	008c0c13          	addi	s8,s8,8
   1cdd0:	00fb5e63          	ble	a5,s6,1cdec <_svfprintf_r+0x1efc>
   1cdd4:	0d410613          	addi	a2,sp,212
   1cdd8:	00098593          	mv	a1,s3
   1cddc:	00090513          	mv	a0,s2
   1cde0:	554010ef          	jal	ra,1e334 <__ssprint_r>
   1cde4:	fa051ee3          	bnez	a0,1cda0 <_svfprintf_r+0x1eb0>
   1cde8:	0fc10c13          	addi	s8,sp,252
   1cdec:	ff040413          	addi	s0,s0,-16
   1cdf0:	f71ff06f          	j	1cd60 <_svfprintf_r+0x1e70>
   1cdf4:	00c12583          	lw	a1,12(sp)
   1cdf8:	00090513          	mv	a0,s2
   1cdfc:	d20f90ef          	jal	ra,1631c <_free_r>
   1ce00:	925ff06f          	j	1c724 <_svfprintf_r+0x1834>
   1ce04:	0dc12783          	lw	a5,220(sp)
   1ce08:	00079463          	bnez	a5,1ce10 <_svfprintf_r+0x1f20>
   1ce0c:	971fe06f          	j	1b77c <_svfprintf_r+0x88c>
   1ce10:	0d410613          	addi	a2,sp,212
   1ce14:	00098593          	mv	a1,s3
   1ce18:	00090513          	mv	a0,s2
   1ce1c:	518010ef          	jal	ra,1e334 <__ssprint_r>
   1ce20:	95dfe06f          	j	1b77c <_svfprintf_r+0x88c>
   1ce24:	fff00793          	li	a5,-1
   1ce28:	b4fb9a63          	bne	s7,a5,1c17c <_svfprintf_r+0x128c>
   1ce2c:	bc0d9c63          	bnez	s11,1c204 <_svfprintf_r+0x1314>
   1ce30:	00900793          	li	a5,9
   1ce34:	bda7e863          	bltu	a5,s10,1c204 <_svfprintf_r+0x1314>
   1ce38:	030d0d13          	addi	s10,s10,48
   1ce3c:	19a10fa3          	sb	s10,415(sp)
   1ce40:	19f10493          	addi	s1,sp,415
   1ce44:	b98ff06f          	j	1c1dc <_svfprintf_r+0x12ec>

0001ce48 <__sprint_r>:
   1ce48:	00862783          	lw	a5,8(a2)
   1ce4c:	fd010113          	addi	sp,sp,-48
   1ce50:	02812423          	sw	s0,40(sp)
   1ce54:	02112623          	sw	ra,44(sp)
   1ce58:	02912223          	sw	s1,36(sp)
   1ce5c:	03212023          	sw	s2,32(sp)
   1ce60:	01312e23          	sw	s3,28(sp)
   1ce64:	01412c23          	sw	s4,24(sp)
   1ce68:	01512a23          	sw	s5,20(sp)
   1ce6c:	01612823          	sw	s6,16(sp)
   1ce70:	01712623          	sw	s7,12(sp)
   1ce74:	01812423          	sw	s8,8(sp)
   1ce78:	00060413          	mv	s0,a2
   1ce7c:	02079e63          	bnez	a5,1ceb8 <__sprint_r+0x70>
   1ce80:	00062223          	sw	zero,4(a2)
   1ce84:	00000513          	li	a0,0
   1ce88:	02c12083          	lw	ra,44(sp)
   1ce8c:	02812403          	lw	s0,40(sp)
   1ce90:	02412483          	lw	s1,36(sp)
   1ce94:	02012903          	lw	s2,32(sp)
   1ce98:	01c12983          	lw	s3,28(sp)
   1ce9c:	01812a03          	lw	s4,24(sp)
   1cea0:	01412a83          	lw	s5,20(sp)
   1cea4:	01012b03          	lw	s6,16(sp)
   1cea8:	00c12b83          	lw	s7,12(sp)
   1ceac:	00812c03          	lw	s8,8(sp)
   1ceb0:	03010113          	addi	sp,sp,48
   1ceb4:	00008067          	ret
   1ceb8:	0645a783          	lw	a5,100(a1)
   1cebc:	00058993          	mv	s3,a1
   1cec0:	01279713          	slli	a4,a5,0x12
   1cec4:	06075863          	bgez	a4,1cf34 <__sprint_r+0xec>
   1cec8:	00062483          	lw	s1,0(a2)
   1cecc:	00050a93          	mv	s5,a0
   1ced0:	fff00b13          	li	s6,-1
   1ced4:	0044a903          	lw	s2,4(s1)
   1ced8:	0004ac03          	lw	s8,0(s1)
   1cedc:	00000a13          	li	s4,0
   1cee0:	00295b93          	srli	s7,s2,0x2
   1cee4:	037a4663          	blt	s4,s7,1cf10 <__sprint_r+0xc8>
   1cee8:	00842783          	lw	a5,8(s0)
   1ceec:	ffc97913          	andi	s2,s2,-4
   1cef0:	00848493          	addi	s1,s1,8
   1cef4:	412787b3          	sub	a5,a5,s2
   1cef8:	00f42423          	sw	a5,8(s0)
   1cefc:	fc079ce3          	bnez	a5,1ced4 <__sprint_r+0x8c>
   1cf00:	00000513          	li	a0,0
   1cf04:	00042423          	sw	zero,8(s0)
   1cf08:	00042223          	sw	zero,4(s0)
   1cf0c:	f7dff06f          	j	1ce88 <__sprint_r+0x40>
   1cf10:	002a1793          	slli	a5,s4,0x2
   1cf14:	00fc07b3          	add	a5,s8,a5
   1cf18:	0007a583          	lw	a1,0(a5)
   1cf1c:	00098613          	mv	a2,s3
   1cf20:	000a8513          	mv	a0,s5
   1cf24:	10c010ef          	jal	ra,1e030 <_fputwc_r>
   1cf28:	01650a63          	beq	a0,s6,1cf3c <__sprint_r+0xf4>
   1cf2c:	001a0a13          	addi	s4,s4,1
   1cf30:	fb5ff06f          	j	1cee4 <__sprint_r+0x9c>
   1cf34:	e44f90ef          	jal	ra,16578 <__sfvwrite_r>
   1cf38:	fcdff06f          	j	1cf04 <__sprint_r+0xbc>
   1cf3c:	fff00513          	li	a0,-1
   1cf40:	fc5ff06f          	j	1cf04 <__sprint_r+0xbc>

0001cf44 <_vfiprintf_r>:
   1cf44:	ed010113          	addi	sp,sp,-304
   1cf48:	12812423          	sw	s0,296(sp)
   1cf4c:	12912223          	sw	s1,292(sp)
   1cf50:	11312e23          	sw	s3,284(sp)
   1cf54:	11412c23          	sw	s4,280(sp)
   1cf58:	12112623          	sw	ra,300(sp)
   1cf5c:	13212023          	sw	s2,288(sp)
   1cf60:	11512a23          	sw	s5,276(sp)
   1cf64:	11612823          	sw	s6,272(sp)
   1cf68:	11712623          	sw	s7,268(sp)
   1cf6c:	11812423          	sw	s8,264(sp)
   1cf70:	11912223          	sw	s9,260(sp)
   1cf74:	11a12023          	sw	s10,256(sp)
   1cf78:	0fb12e23          	sw	s11,252(sp)
   1cf7c:	00050993          	mv	s3,a0
   1cf80:	00058413          	mv	s0,a1
   1cf84:	00060a13          	mv	s4,a2
   1cf88:	00068493          	mv	s1,a3
   1cf8c:	00050863          	beqz	a0,1cf9c <_vfiprintf_r+0x58>
   1cf90:	03852783          	lw	a5,56(a0)
   1cf94:	00079463          	bnez	a5,1cf9c <_vfiprintf_r+0x58>
   1cf98:	8dcf90ef          	jal	ra,16074 <__sinit>
   1cf9c:	00c41783          	lh	a5,12(s0)
   1cfa0:	01279713          	slli	a4,a5,0x12
   1cfa4:	02074263          	bltz	a4,1cfc8 <_vfiprintf_r+0x84>
   1cfa8:	000026b7          	lui	a3,0x2
   1cfac:	06442703          	lw	a4,100(s0)
   1cfb0:	00d7e7b3          	or	a5,a5,a3
   1cfb4:	00f41623          	sh	a5,12(s0)
   1cfb8:	ffffe7b7          	lui	a5,0xffffe
   1cfbc:	fff78793          	addi	a5,a5,-1 # ffffdfff <__global_pointer$+0xfffd7d8f>
   1cfc0:	00f777b3          	and	a5,a4,a5
   1cfc4:	06f42223          	sw	a5,100(s0)
   1cfc8:	00c45783          	lhu	a5,12(s0)
   1cfcc:	0087f793          	andi	a5,a5,8
   1cfd0:	04078063          	beqz	a5,1d010 <_vfiprintf_r+0xcc>
   1cfd4:	01042783          	lw	a5,16(s0)
   1cfd8:	02078c63          	beqz	a5,1d010 <_vfiprintf_r+0xcc>
   1cfdc:	00c45783          	lhu	a5,12(s0)
   1cfe0:	00a00713          	li	a4,10
   1cfe4:	01a7f793          	andi	a5,a5,26
   1cfe8:	06e79e63          	bne	a5,a4,1d064 <_vfiprintf_r+0x120>
   1cfec:	00e41783          	lh	a5,14(s0)
   1cff0:	0607ca63          	bltz	a5,1d064 <_vfiprintf_r+0x120>
   1cff4:	00048693          	mv	a3,s1
   1cff8:	000a0613          	mv	a2,s4
   1cffc:	00040593          	mv	a1,s0
   1d000:	00098513          	mv	a0,s3
   1d004:	3e1000ef          	jal	ra,1dbe4 <__sbprintf>
   1d008:	00050c13          	mv	s8,a0
   1d00c:	0180006f          	j	1d024 <_vfiprintf_r+0xe0>
   1d010:	00040593          	mv	a1,s0
   1d014:	00098513          	mv	a0,s3
   1d018:	9fdf80ef          	jal	ra,15a14 <__swsetup_r>
   1d01c:	fc0500e3          	beqz	a0,1cfdc <_vfiprintf_r+0x98>
   1d020:	fff00c13          	li	s8,-1
   1d024:	12c12083          	lw	ra,300(sp)
   1d028:	12812403          	lw	s0,296(sp)
   1d02c:	000c0513          	mv	a0,s8
   1d030:	12412483          	lw	s1,292(sp)
   1d034:	12012903          	lw	s2,288(sp)
   1d038:	11c12983          	lw	s3,284(sp)
   1d03c:	11812a03          	lw	s4,280(sp)
   1d040:	11412a83          	lw	s5,276(sp)
   1d044:	11012b03          	lw	s6,272(sp)
   1d048:	10c12b83          	lw	s7,268(sp)
   1d04c:	10812c03          	lw	s8,264(sp)
   1d050:	10412c83          	lw	s9,260(sp)
   1d054:	10012d03          	lw	s10,256(sp)
   1d058:	0fc12d83          	lw	s11,252(sp)
   1d05c:	13010113          	addi	sp,sp,304
   1d060:	00008067          	ret
   1d064:	000257b7          	lui	a5,0x25
   1d068:	a2478793          	addi	a5,a5,-1500 # 24a24 <zeroes.4499+0x10>
   1d06c:	02f12423          	sw	a5,40(sp)
   1d070:	000257b7          	lui	a5,0x25
   1d074:	ba078793          	addi	a5,a5,-1120 # 24ba0 <zeroes.4490>
   1d078:	00f12a23          	sw	a5,20(sp)
   1d07c:	000257b7          	lui	a5,0x25
   1d080:	04c10b93          	addi	s7,sp,76
   1d084:	b9078793          	addi	a5,a5,-1136 # 24b90 <blanks.4489>
   1d088:	05712023          	sw	s7,64(sp)
   1d08c:	04012423          	sw	zero,72(sp)
   1d090:	04012223          	sw	zero,68(sp)
   1d094:	000b8d93          	mv	s11,s7
   1d098:	00012623          	sw	zero,12(sp)
   1d09c:	00012423          	sw	zero,8(sp)
   1d0a0:	00012823          	sw	zero,16(sp)
   1d0a4:	00012e23          	sw	zero,28(sp)
   1d0a8:	00000c13          	li	s8,0
   1d0ac:	00f12c23          	sw	a5,24(sp)
   1d0b0:	000a0913          	mv	s2,s4
   1d0b4:	02500713          	li	a4,37
   1d0b8:	00094783          	lbu	a5,0(s2)
   1d0bc:	00078463          	beqz	a5,1d0c4 <_vfiprintf_r+0x180>
   1d0c0:	0ae79063          	bne	a5,a4,1d160 <_vfiprintf_r+0x21c>
   1d0c4:	41490ab3          	sub	s5,s2,s4
   1d0c8:	040a8663          	beqz	s5,1d114 <_vfiprintf_r+0x1d0>
   1d0cc:	04812783          	lw	a5,72(sp)
   1d0d0:	014da023          	sw	s4,0(s11)
   1d0d4:	015da223          	sw	s5,4(s11)
   1d0d8:	015787b3          	add	a5,a5,s5
   1d0dc:	04f12423          	sw	a5,72(sp)
   1d0e0:	04412783          	lw	a5,68(sp)
   1d0e4:	00700713          	li	a4,7
   1d0e8:	008d8d93          	addi	s11,s11,8
   1d0ec:	00178793          	addi	a5,a5,1
   1d0f0:	04f12223          	sw	a5,68(sp)
   1d0f4:	00f75e63          	ble	a5,a4,1d110 <_vfiprintf_r+0x1cc>
   1d0f8:	04010613          	addi	a2,sp,64
   1d0fc:	00040593          	mv	a1,s0
   1d100:	00098513          	mv	a0,s3
   1d104:	d45ff0ef          	jal	ra,1ce48 <__sprint_r>
   1d108:	240510e3          	bnez	a0,1db48 <_vfiprintf_r+0xc04>
   1d10c:	000b8d93          	mv	s11,s7
   1d110:	015c0c33          	add	s8,s8,s5
   1d114:	00094783          	lbu	a5,0(s2)
   1d118:	26078ce3          	beqz	a5,1db90 <_vfiprintf_r+0xc4c>
   1d11c:	00190713          	addi	a4,s2,1
   1d120:	02010da3          	sb	zero,59(sp)
   1d124:	fff00913          	li	s2,-1
   1d128:	00000b13          	li	s6,0
   1d12c:	00000d13          	li	s10,0
   1d130:	00900a93          	li	s5,9
   1d134:	02a00c93          	li	s9,42
   1d138:	00074603          	lbu	a2,0(a4)
   1d13c:	00170a13          	addi	s4,a4,1
   1d140:	05a00593          	li	a1,90
   1d144:	fe060713          	addi	a4,a2,-32
   1d148:	0ce5e2e3          	bltu	a1,a4,1da0c <_vfiprintf_r+0xac8>
   1d14c:	02812783          	lw	a5,40(sp)
   1d150:	00271713          	slli	a4,a4,0x2
   1d154:	00f70733          	add	a4,a4,a5
   1d158:	00072703          	lw	a4,0(a4)
   1d15c:	00070067          	jr	a4
   1d160:	00190913          	addi	s2,s2,1
   1d164:	f55ff06f          	j	1d0b8 <_vfiprintf_r+0x174>
   1d168:	00024737          	lui	a4,0x24
   1d16c:	4bc70793          	addi	a5,a4,1212 # 244bc <zeroes.4514+0x20>
   1d170:	00f12623          	sw	a5,12(sp)
   1d174:	020d7713          	andi	a4,s10,32
   1d178:	6a070463          	beqz	a4,1d820 <_vfiprintf_r+0x8dc>
   1d17c:	00748493          	addi	s1,s1,7
   1d180:	ff84f493          	andi	s1,s1,-8
   1d184:	0004a703          	lw	a4,0(s1)
   1d188:	0044aa83          	lw	s5,4(s1)
   1d18c:	00848c93          	addi	s9,s1,8
   1d190:	001d7693          	andi	a3,s10,1
   1d194:	00068e63          	beqz	a3,1d1b0 <_vfiprintf_r+0x26c>
   1d198:	015766b3          	or	a3,a4,s5
   1d19c:	00068a63          	beqz	a3,1d1b0 <_vfiprintf_r+0x26c>
   1d1a0:	03000693          	li	a3,48
   1d1a4:	02d10e23          	sb	a3,60(sp)
   1d1a8:	02c10ea3          	sb	a2,61(sp)
   1d1ac:	002d6d13          	ori	s10,s10,2
   1d1b0:	bffd7d13          	andi	s10,s10,-1025
   1d1b4:	30c0006f          	j	1d4c0 <_vfiprintf_r+0x57c>
   1d1b8:	00098513          	mv	a0,s3
   1d1bc:	91dfb0ef          	jal	ra,18ad8 <_localeconv_r>
   1d1c0:	00452783          	lw	a5,4(a0)
   1d1c4:	00078513          	mv	a0,a5
   1d1c8:	00f12e23          	sw	a5,28(sp)
   1d1cc:	e60f60ef          	jal	ra,1382c <strlen>
   1d1d0:	00a12823          	sw	a0,16(sp)
   1d1d4:	00098513          	mv	a0,s3
   1d1d8:	901fb0ef          	jal	ra,18ad8 <_localeconv_r>
   1d1dc:	00852783          	lw	a5,8(a0)
   1d1e0:	00f12423          	sw	a5,8(sp)
   1d1e4:	01012783          	lw	a5,16(sp)
   1d1e8:	00078c63          	beqz	a5,1d200 <_vfiprintf_r+0x2bc>
   1d1ec:	00812783          	lw	a5,8(sp)
   1d1f0:	00078863          	beqz	a5,1d200 <_vfiprintf_r+0x2bc>
   1d1f4:	0007c703          	lbu	a4,0(a5)
   1d1f8:	00070463          	beqz	a4,1d200 <_vfiprintf_r+0x2bc>
   1d1fc:	400d6d13          	ori	s10,s10,1024
   1d200:	000a0713          	mv	a4,s4
   1d204:	f35ff06f          	j	1d138 <_vfiprintf_r+0x1f4>
   1d208:	03b14703          	lbu	a4,59(sp)
   1d20c:	fe071ae3          	bnez	a4,1d200 <_vfiprintf_r+0x2bc>
   1d210:	02000713          	li	a4,32
   1d214:	02e10da3          	sb	a4,59(sp)
   1d218:	fe9ff06f          	j	1d200 <_vfiprintf_r+0x2bc>
   1d21c:	001d6d13          	ori	s10,s10,1
   1d220:	fe1ff06f          	j	1d200 <_vfiprintf_r+0x2bc>
   1d224:	0004ab03          	lw	s6,0(s1)
   1d228:	00448493          	addi	s1,s1,4
   1d22c:	fc0b5ae3          	bgez	s6,1d200 <_vfiprintf_r+0x2bc>
   1d230:	41600b33          	neg	s6,s6
   1d234:	004d6d13          	ori	s10,s10,4
   1d238:	fc9ff06f          	j	1d200 <_vfiprintf_r+0x2bc>
   1d23c:	02b00713          	li	a4,43
   1d240:	fd5ff06f          	j	1d214 <_vfiprintf_r+0x2d0>
   1d244:	000a4603          	lbu	a2,0(s4)
   1d248:	001a0713          	addi	a4,s4,1
   1d24c:	05961463          	bne	a2,s9,1d294 <_vfiprintf_r+0x350>
   1d250:	0004a903          	lw	s2,0(s1)
   1d254:	00448693          	addi	a3,s1,4
   1d258:	00095463          	bgez	s2,1d260 <_vfiprintf_r+0x31c>
   1d25c:	fff00913          	li	s2,-1
   1d260:	00068493          	mv	s1,a3
   1d264:	00070a13          	mv	s4,a4
   1d268:	f99ff06f          	j	1d200 <_vfiprintf_r+0x2bc>
   1d26c:	00291693          	slli	a3,s2,0x2
   1d270:	00170713          	addi	a4,a4,1
   1d274:	01268933          	add	s2,a3,s2
   1d278:	fff74603          	lbu	a2,-1(a4)
   1d27c:	00191913          	slli	s2,s2,0x1
   1d280:	00a90933          	add	s2,s2,a0
   1d284:	fd060513          	addi	a0,a2,-48
   1d288:	feaaf2e3          	bleu	a0,s5,1d26c <_vfiprintf_r+0x328>
   1d28c:	00070a13          	mv	s4,a4
   1d290:	eb5ff06f          	j	1d144 <_vfiprintf_r+0x200>
   1d294:	00000913          	li	s2,0
   1d298:	fedff06f          	j	1d284 <_vfiprintf_r+0x340>
   1d29c:	080d6d13          	ori	s10,s10,128
   1d2a0:	f61ff06f          	j	1d200 <_vfiprintf_r+0x2bc>
   1d2a4:	000a0713          	mv	a4,s4
   1d2a8:	00000b13          	li	s6,0
   1d2ac:	002b1693          	slli	a3,s6,0x2
   1d2b0:	01668b33          	add	s6,a3,s6
   1d2b4:	fd060613          	addi	a2,a2,-48
   1d2b8:	001b1b13          	slli	s6,s6,0x1
   1d2bc:	00170713          	addi	a4,a4,1
   1d2c0:	01660b33          	add	s6,a2,s6
   1d2c4:	fff74603          	lbu	a2,-1(a4)
   1d2c8:	fd060693          	addi	a3,a2,-48
   1d2cc:	fedaf0e3          	bleu	a3,s5,1d2ac <_vfiprintf_r+0x368>
   1d2d0:	fbdff06f          	j	1d28c <_vfiprintf_r+0x348>
   1d2d4:	000a4683          	lbu	a3,0(s4)
   1d2d8:	06800713          	li	a4,104
   1d2dc:	00e69863          	bne	a3,a4,1d2ec <_vfiprintf_r+0x3a8>
   1d2e0:	001a0a13          	addi	s4,s4,1
   1d2e4:	200d6d13          	ori	s10,s10,512
   1d2e8:	f19ff06f          	j	1d200 <_vfiprintf_r+0x2bc>
   1d2ec:	040d6d13          	ori	s10,s10,64
   1d2f0:	f11ff06f          	j	1d200 <_vfiprintf_r+0x2bc>
   1d2f4:	000a4683          	lbu	a3,0(s4)
   1d2f8:	06c00713          	li	a4,108
   1d2fc:	00e69863          	bne	a3,a4,1d30c <_vfiprintf_r+0x3c8>
   1d300:	001a0a13          	addi	s4,s4,1
   1d304:	020d6d13          	ori	s10,s10,32
   1d308:	ef9ff06f          	j	1d200 <_vfiprintf_r+0x2bc>
   1d30c:	010d6d13          	ori	s10,s10,16
   1d310:	ef1ff06f          	j	1d200 <_vfiprintf_r+0x2bc>
   1d314:	0004a703          	lw	a4,0(s1)
   1d318:	00448c93          	addi	s9,s1,4
   1d31c:	02010da3          	sb	zero,59(sp)
   1d320:	08e10623          	sb	a4,140(sp)
   1d324:	00100913          	li	s2,1
   1d328:	00000a93          	li	s5,0
   1d32c:	08c10493          	addi	s1,sp,140
   1d330:	1c80006f          	j	1d4f8 <_vfiprintf_r+0x5b4>
   1d334:	010d6d13          	ori	s10,s10,16
   1d338:	020d7713          	andi	a4,s10,32
   1d33c:	06070063          	beqz	a4,1d39c <_vfiprintf_r+0x458>
   1d340:	00748493          	addi	s1,s1,7
   1d344:	ff84f493          	andi	s1,s1,-8
   1d348:	0004a703          	lw	a4,0(s1)
   1d34c:	0044aa83          	lw	s5,4(s1)
   1d350:	00848c93          	addi	s9,s1,8
   1d354:	040adce3          	bgez	s5,1dbac <_vfiprintf_r+0xc68>
   1d358:	40e00733          	neg	a4,a4
   1d35c:	00e036b3          	snez	a3,a4
   1d360:	415008b3          	neg	a7,s5
   1d364:	40d88ab3          	sub	s5,a7,a3
   1d368:	02d00693          	li	a3,45
   1d36c:	02d10da3          	sb	a3,59(sp)
   1d370:	00100693          	li	a3,1
   1d374:	fff00613          	li	a2,-1
   1d378:	4ec90663          	beq	s2,a2,1d864 <_vfiprintf_r+0x920>
   1d37c:	000d0613          	mv	a2,s10
   1d380:	015765b3          	or	a1,a4,s5
   1d384:	f7fd7d13          	andi	s10,s10,-129
   1d388:	4c059e63          	bnez	a1,1d864 <_vfiprintf_r+0x920>
   1d38c:	66090463          	beqz	s2,1d9f4 <_vfiprintf_r+0xab0>
   1d390:	00100613          	li	a2,1
   1d394:	4cc69c63          	bne	a3,a2,1d86c <_vfiprintf_r+0x928>
   1d398:	0290006f          	j	1dbc0 <_vfiprintf_r+0xc7c>
   1d39c:	010d7713          	andi	a4,s10,16
   1d3a0:	00448c93          	addi	s9,s1,4
   1d3a4:	00070863          	beqz	a4,1d3b4 <_vfiprintf_r+0x470>
   1d3a8:	0004a703          	lw	a4,0(s1)
   1d3ac:	41f75a93          	srai	s5,a4,0x1f
   1d3b0:	fa5ff06f          	j	1d354 <_vfiprintf_r+0x410>
   1d3b4:	040d7693          	andi	a3,s10,64
   1d3b8:	0004a703          	lw	a4,0(s1)
   1d3bc:	00068863          	beqz	a3,1d3cc <_vfiprintf_r+0x488>
   1d3c0:	01071713          	slli	a4,a4,0x10
   1d3c4:	41075713          	srai	a4,a4,0x10
   1d3c8:	fe5ff06f          	j	1d3ac <_vfiprintf_r+0x468>
   1d3cc:	200d7693          	andi	a3,s10,512
   1d3d0:	fc068ee3          	beqz	a3,1d3ac <_vfiprintf_r+0x468>
   1d3d4:	01871713          	slli	a4,a4,0x18
   1d3d8:	41875713          	srai	a4,a4,0x18
   1d3dc:	fd1ff06f          	j	1d3ac <_vfiprintf_r+0x468>
   1d3e0:	020d7693          	andi	a3,s10,32
   1d3e4:	0004a703          	lw	a4,0(s1)
   1d3e8:	00448493          	addi	s1,s1,4
   1d3ec:	00068a63          	beqz	a3,1d400 <_vfiprintf_r+0x4bc>
   1d3f0:	41fc5793          	srai	a5,s8,0x1f
   1d3f4:	01872023          	sw	s8,0(a4)
   1d3f8:	00f72223          	sw	a5,4(a4)
   1d3fc:	cb5ff06f          	j	1d0b0 <_vfiprintf_r+0x16c>
   1d400:	010d7693          	andi	a3,s10,16
   1d404:	00068663          	beqz	a3,1d410 <_vfiprintf_r+0x4cc>
   1d408:	01872023          	sw	s8,0(a4)
   1d40c:	ca5ff06f          	j	1d0b0 <_vfiprintf_r+0x16c>
   1d410:	040d7693          	andi	a3,s10,64
   1d414:	00068663          	beqz	a3,1d420 <_vfiprintf_r+0x4dc>
   1d418:	01871023          	sh	s8,0(a4)
   1d41c:	c95ff06f          	j	1d0b0 <_vfiprintf_r+0x16c>
   1d420:	200d7793          	andi	a5,s10,512
   1d424:	fe0782e3          	beqz	a5,1d408 <_vfiprintf_r+0x4c4>
   1d428:	01870023          	sb	s8,0(a4)
   1d42c:	c85ff06f          	j	1d0b0 <_vfiprintf_r+0x16c>
   1d430:	010d6d13          	ori	s10,s10,16
   1d434:	020d7713          	andi	a4,s10,32
   1d438:	02070463          	beqz	a4,1d460 <_vfiprintf_r+0x51c>
   1d43c:	00748493          	addi	s1,s1,7
   1d440:	ff84f493          	andi	s1,s1,-8
   1d444:	0004a703          	lw	a4,0(s1)
   1d448:	0044aa83          	lw	s5,4(s1)
   1d44c:	00848c93          	addi	s9,s1,8
   1d450:	bffd7d13          	andi	s10,s10,-1025
   1d454:	00000693          	li	a3,0
   1d458:	02010da3          	sb	zero,59(sp)
   1d45c:	f19ff06f          	j	1d374 <_vfiprintf_r+0x430>
   1d460:	010d7713          	andi	a4,s10,16
   1d464:	00448c93          	addi	s9,s1,4
   1d468:	00070663          	beqz	a4,1d474 <_vfiprintf_r+0x530>
   1d46c:	0004a703          	lw	a4,0(s1)
   1d470:	0100006f          	j	1d480 <_vfiprintf_r+0x53c>
   1d474:	040d7713          	andi	a4,s10,64
   1d478:	00070863          	beqz	a4,1d488 <_vfiprintf_r+0x544>
   1d47c:	0004d703          	lhu	a4,0(s1)
   1d480:	00000a93          	li	s5,0
   1d484:	fcdff06f          	j	1d450 <_vfiprintf_r+0x50c>
   1d488:	200d7713          	andi	a4,s10,512
   1d48c:	fe0700e3          	beqz	a4,1d46c <_vfiprintf_r+0x528>
   1d490:	0004c703          	lbu	a4,0(s1)
   1d494:	fedff06f          	j	1d480 <_vfiprintf_r+0x53c>
   1d498:	ffff86b7          	lui	a3,0xffff8
   1d49c:	8306c693          	xori	a3,a3,-2000
   1d4a0:	02d11e23          	sh	a3,60(sp)
   1d4a4:	0004a703          	lw	a4,0(s1)
   1d4a8:	000246b7          	lui	a3,0x24
   1d4ac:	4bc68793          	addi	a5,a3,1212 # 244bc <zeroes.4514+0x20>
   1d4b0:	00448c93          	addi	s9,s1,4
   1d4b4:	00000a93          	li	s5,0
   1d4b8:	002d6d13          	ori	s10,s10,2
   1d4bc:	00f12623          	sw	a5,12(sp)
   1d4c0:	00200693          	li	a3,2
   1d4c4:	f95ff06f          	j	1d458 <_vfiprintf_r+0x514>
   1d4c8:	02010da3          	sb	zero,59(sp)
   1d4cc:	fff00713          	li	a4,-1
   1d4d0:	00448c93          	addi	s9,s1,4
   1d4d4:	0004a483          	lw	s1,0(s1)
   1d4d8:	2ce90463          	beq	s2,a4,1d7a0 <_vfiprintf_r+0x85c>
   1d4dc:	00090613          	mv	a2,s2
   1d4e0:	00000593          	li	a1,0
   1d4e4:	00048513          	mv	a0,s1
   1d4e8:	f51fb0ef          	jal	ra,19438 <memchr>
   1d4ec:	00000a93          	li	s5,0
   1d4f0:	00050463          	beqz	a0,1d4f8 <_vfiprintf_r+0x5b4>
   1d4f4:	40950933          	sub	s2,a0,s1
   1d4f8:	01512223          	sw	s5,4(sp)
   1d4fc:	012ad463          	ble	s2,s5,1d504 <_vfiprintf_r+0x5c0>
   1d500:	01212223          	sw	s2,4(sp)
   1d504:	03b14703          	lbu	a4,59(sp)
   1d508:	00070863          	beqz	a4,1d518 <_vfiprintf_r+0x5d4>
   1d50c:	00412783          	lw	a5,4(sp)
   1d510:	00178793          	addi	a5,a5,1
   1d514:	00f12223          	sw	a5,4(sp)
   1d518:	002d7793          	andi	a5,s10,2
   1d51c:	02f12023          	sw	a5,32(sp)
   1d520:	00078863          	beqz	a5,1d530 <_vfiprintf_r+0x5ec>
   1d524:	00412783          	lw	a5,4(sp)
   1d528:	00278793          	addi	a5,a5,2
   1d52c:	00f12223          	sw	a5,4(sp)
   1d530:	084d7793          	andi	a5,s10,132
   1d534:	02f12223          	sw	a5,36(sp)
   1d538:	06079463          	bnez	a5,1d5a0 <_vfiprintf_r+0x65c>
   1d53c:	00412783          	lw	a5,4(sp)
   1d540:	40fb0733          	sub	a4,s6,a5
   1d544:	04e05e63          	blez	a4,1d5a0 <_vfiprintf_r+0x65c>
   1d548:	01000893          	li	a7,16
   1d54c:	00700313          	li	t1,7
   1d550:	01812783          	lw	a5,24(sp)
   1d554:	04412683          	lw	a3,68(sp)
   1d558:	04812603          	lw	a2,72(sp)
   1d55c:	00fda023          	sw	a5,0(s11)
   1d560:	00168693          	addi	a3,a3,1
   1d564:	008d8593          	addi	a1,s11,8
   1d568:	4ae8cc63          	blt	a7,a4,1da20 <_vfiprintf_r+0xadc>
   1d56c:	00eda223          	sw	a4,4(s11)
   1d570:	00c70733          	add	a4,a4,a2
   1d574:	04e12423          	sw	a4,72(sp)
   1d578:	04d12223          	sw	a3,68(sp)
   1d57c:	00700713          	li	a4,7
   1d580:	00058d93          	mv	s11,a1
   1d584:	00d75e63          	ble	a3,a4,1d5a0 <_vfiprintf_r+0x65c>
   1d588:	04010613          	addi	a2,sp,64
   1d58c:	00040593          	mv	a1,s0
   1d590:	00098513          	mv	a0,s3
   1d594:	8b5ff0ef          	jal	ra,1ce48 <__sprint_r>
   1d598:	5a051863          	bnez	a0,1db48 <_vfiprintf_r+0xc04>
   1d59c:	000b8d93          	mv	s11,s7
   1d5a0:	03b14703          	lbu	a4,59(sp)
   1d5a4:	04070863          	beqz	a4,1d5f4 <_vfiprintf_r+0x6b0>
   1d5a8:	03b10693          	addi	a3,sp,59
   1d5ac:	00dda023          	sw	a3,0(s11)
   1d5b0:	00100693          	li	a3,1
   1d5b4:	04412703          	lw	a4,68(sp)
   1d5b8:	00dda223          	sw	a3,4(s11)
   1d5bc:	04812683          	lw	a3,72(sp)
   1d5c0:	00170713          	addi	a4,a4,1
   1d5c4:	04e12223          	sw	a4,68(sp)
   1d5c8:	00168693          	addi	a3,a3,1
   1d5cc:	04d12423          	sw	a3,72(sp)
   1d5d0:	00700693          	li	a3,7
   1d5d4:	008d8d93          	addi	s11,s11,8
   1d5d8:	00e6de63          	ble	a4,a3,1d5f4 <_vfiprintf_r+0x6b0>
   1d5dc:	04010613          	addi	a2,sp,64
   1d5e0:	00040593          	mv	a1,s0
   1d5e4:	00098513          	mv	a0,s3
   1d5e8:	861ff0ef          	jal	ra,1ce48 <__sprint_r>
   1d5ec:	54051e63          	bnez	a0,1db48 <_vfiprintf_r+0xc04>
   1d5f0:	000b8d93          	mv	s11,s7
   1d5f4:	02012783          	lw	a5,32(sp)
   1d5f8:	04078863          	beqz	a5,1d648 <_vfiprintf_r+0x704>
   1d5fc:	03c10693          	addi	a3,sp,60
   1d600:	00dda023          	sw	a3,0(s11)
   1d604:	00200693          	li	a3,2
   1d608:	04412703          	lw	a4,68(sp)
   1d60c:	00dda223          	sw	a3,4(s11)
   1d610:	04812683          	lw	a3,72(sp)
   1d614:	00170713          	addi	a4,a4,1
   1d618:	04e12223          	sw	a4,68(sp)
   1d61c:	00268693          	addi	a3,a3,2
   1d620:	04d12423          	sw	a3,72(sp)
   1d624:	00700693          	li	a3,7
   1d628:	008d8d93          	addi	s11,s11,8
   1d62c:	00e6de63          	ble	a4,a3,1d648 <_vfiprintf_r+0x704>
   1d630:	04010613          	addi	a2,sp,64
   1d634:	00040593          	mv	a1,s0
   1d638:	00098513          	mv	a0,s3
   1d63c:	80dff0ef          	jal	ra,1ce48 <__sprint_r>
   1d640:	50051463          	bnez	a0,1db48 <_vfiprintf_r+0xc04>
   1d644:	000b8d93          	mv	s11,s7
   1d648:	02412783          	lw	a5,36(sp)
   1d64c:	08000713          	li	a4,128
   1d650:	06e79463          	bne	a5,a4,1d6b8 <_vfiprintf_r+0x774>
   1d654:	00412783          	lw	a5,4(sp)
   1d658:	40fb0733          	sub	a4,s6,a5
   1d65c:	04e05e63          	blez	a4,1d6b8 <_vfiprintf_r+0x774>
   1d660:	01000893          	li	a7,16
   1d664:	00700313          	li	t1,7
   1d668:	01412783          	lw	a5,20(sp)
   1d66c:	04412683          	lw	a3,68(sp)
   1d670:	04812603          	lw	a2,72(sp)
   1d674:	00fda023          	sw	a5,0(s11)
   1d678:	00168693          	addi	a3,a3,1
   1d67c:	008d8593          	addi	a1,s11,8
   1d680:	3ee8c463          	blt	a7,a4,1da68 <_vfiprintf_r+0xb24>
   1d684:	00eda223          	sw	a4,4(s11)
   1d688:	00c70733          	add	a4,a4,a2
   1d68c:	04e12423          	sw	a4,72(sp)
   1d690:	04d12223          	sw	a3,68(sp)
   1d694:	00700713          	li	a4,7
   1d698:	00058d93          	mv	s11,a1
   1d69c:	00d75e63          	ble	a3,a4,1d6b8 <_vfiprintf_r+0x774>
   1d6a0:	04010613          	addi	a2,sp,64
   1d6a4:	00040593          	mv	a1,s0
   1d6a8:	00098513          	mv	a0,s3
   1d6ac:	f9cff0ef          	jal	ra,1ce48 <__sprint_r>
   1d6b0:	48051c63          	bnez	a0,1db48 <_vfiprintf_r+0xc04>
   1d6b4:	000b8d93          	mv	s11,s7
   1d6b8:	412a8ab3          	sub	s5,s5,s2
   1d6bc:	05505e63          	blez	s5,1d718 <_vfiprintf_r+0x7d4>
   1d6c0:	01000893          	li	a7,16
   1d6c4:	00700313          	li	t1,7
   1d6c8:	01412783          	lw	a5,20(sp)
   1d6cc:	04412703          	lw	a4,68(sp)
   1d6d0:	04812683          	lw	a3,72(sp)
   1d6d4:	00fda023          	sw	a5,0(s11)
   1d6d8:	00170713          	addi	a4,a4,1
   1d6dc:	008d8613          	addi	a2,s11,8
   1d6e0:	3d58c863          	blt	a7,s5,1dab0 <_vfiprintf_r+0xb6c>
   1d6e4:	015da223          	sw	s5,4(s11)
   1d6e8:	00da8ab3          	add	s5,s5,a3
   1d6ec:	05512423          	sw	s5,72(sp)
   1d6f0:	04e12223          	sw	a4,68(sp)
   1d6f4:	00700693          	li	a3,7
   1d6f8:	00060d93          	mv	s11,a2
   1d6fc:	00e6de63          	ble	a4,a3,1d718 <_vfiprintf_r+0x7d4>
   1d700:	04010613          	addi	a2,sp,64
   1d704:	00040593          	mv	a1,s0
   1d708:	00098513          	mv	a0,s3
   1d70c:	f3cff0ef          	jal	ra,1ce48 <__sprint_r>
   1d710:	42051c63          	bnez	a0,1db48 <_vfiprintf_r+0xc04>
   1d714:	000b8d93          	mv	s11,s7
   1d718:	04812703          	lw	a4,72(sp)
   1d71c:	012da223          	sw	s2,4(s11)
   1d720:	009da023          	sw	s1,0(s11)
   1d724:	01270933          	add	s2,a4,s2
   1d728:	04412703          	lw	a4,68(sp)
   1d72c:	05212423          	sw	s2,72(sp)
   1d730:	00700693          	li	a3,7
   1d734:	00170713          	addi	a4,a4,1
   1d738:	04e12223          	sw	a4,68(sp)
   1d73c:	008d8813          	addi	a6,s11,8
   1d740:	00e6de63          	ble	a4,a3,1d75c <_vfiprintf_r+0x818>
   1d744:	04010613          	addi	a2,sp,64
   1d748:	00040593          	mv	a1,s0
   1d74c:	00098513          	mv	a0,s3
   1d750:	ef8ff0ef          	jal	ra,1ce48 <__sprint_r>
   1d754:	3e051a63          	bnez	a0,1db48 <_vfiprintf_r+0xc04>
   1d758:	000b8813          	mv	a6,s7
   1d75c:	004d7793          	andi	a5,s10,4
   1d760:	38079863          	bnez	a5,1daf0 <_vfiprintf_r+0xbac>
   1d764:	00412783          	lw	a5,4(sp)
   1d768:	00fb5463          	ble	a5,s6,1d770 <_vfiprintf_r+0x82c>
   1d76c:	00078b13          	mv	s6,a5
   1d770:	04812783          	lw	a5,72(sp)
   1d774:	016c0c33          	add	s8,s8,s6
   1d778:	00078c63          	beqz	a5,1d790 <_vfiprintf_r+0x84c>
   1d77c:	04010613          	addi	a2,sp,64
   1d780:	00040593          	mv	a1,s0
   1d784:	00098513          	mv	a0,s3
   1d788:	ec0ff0ef          	jal	ra,1ce48 <__sprint_r>
   1d78c:	3a051e63          	bnez	a0,1db48 <_vfiprintf_r+0xc04>
   1d790:	04012223          	sw	zero,68(sp)
   1d794:	000c8493          	mv	s1,s9
   1d798:	000b8d93          	mv	s11,s7
   1d79c:	915ff06f          	j	1d0b0 <_vfiprintf_r+0x16c>
   1d7a0:	00048513          	mv	a0,s1
   1d7a4:	888f60ef          	jal	ra,1382c <strlen>
   1d7a8:	00050913          	mv	s2,a0
   1d7ac:	00000a93          	li	s5,0
   1d7b0:	d49ff06f          	j	1d4f8 <_vfiprintf_r+0x5b4>
   1d7b4:	010d6d13          	ori	s10,s10,16
   1d7b8:	020d7713          	andi	a4,s10,32
   1d7bc:	02070063          	beqz	a4,1d7dc <_vfiprintf_r+0x898>
   1d7c0:	00748493          	addi	s1,s1,7
   1d7c4:	ff84f493          	andi	s1,s1,-8
   1d7c8:	0004a703          	lw	a4,0(s1)
   1d7cc:	0044aa83          	lw	s5,4(s1)
   1d7d0:	00848c93          	addi	s9,s1,8
   1d7d4:	00100693          	li	a3,1
   1d7d8:	c81ff06f          	j	1d458 <_vfiprintf_r+0x514>
   1d7dc:	010d7713          	andi	a4,s10,16
   1d7e0:	00448c93          	addi	s9,s1,4
   1d7e4:	00070663          	beqz	a4,1d7f0 <_vfiprintf_r+0x8ac>
   1d7e8:	0004a703          	lw	a4,0(s1)
   1d7ec:	0100006f          	j	1d7fc <_vfiprintf_r+0x8b8>
   1d7f0:	040d7713          	andi	a4,s10,64
   1d7f4:	00070863          	beqz	a4,1d804 <_vfiprintf_r+0x8c0>
   1d7f8:	0004d703          	lhu	a4,0(s1)
   1d7fc:	00000a93          	li	s5,0
   1d800:	fd5ff06f          	j	1d7d4 <_vfiprintf_r+0x890>
   1d804:	200d7713          	andi	a4,s10,512
   1d808:	fe0700e3          	beqz	a4,1d7e8 <_vfiprintf_r+0x8a4>
   1d80c:	0004c703          	lbu	a4,0(s1)
   1d810:	fedff06f          	j	1d7fc <_vfiprintf_r+0x8b8>
   1d814:	00024737          	lui	a4,0x24
   1d818:	4d070793          	addi	a5,a4,1232 # 244d0 <zeroes.4514+0x34>
   1d81c:	955ff06f          	j	1d170 <_vfiprintf_r+0x22c>
   1d820:	010d7713          	andi	a4,s10,16
   1d824:	00448c93          	addi	s9,s1,4
   1d828:	00070663          	beqz	a4,1d834 <_vfiprintf_r+0x8f0>
   1d82c:	0004a703          	lw	a4,0(s1)
   1d830:	0100006f          	j	1d840 <_vfiprintf_r+0x8fc>
   1d834:	040d7713          	andi	a4,s10,64
   1d838:	00070863          	beqz	a4,1d848 <_vfiprintf_r+0x904>
   1d83c:	0004d703          	lhu	a4,0(s1)
   1d840:	00000a93          	li	s5,0
   1d844:	94dff06f          	j	1d190 <_vfiprintf_r+0x24c>
   1d848:	200d7713          	andi	a4,s10,512
   1d84c:	fe0700e3          	beqz	a4,1d82c <_vfiprintf_r+0x8e8>
   1d850:	0004c703          	lbu	a4,0(s1)
   1d854:	fedff06f          	j	1d840 <_vfiprintf_r+0x8fc>
   1d858:	000d0613          	mv	a2,s10
   1d85c:	00100693          	li	a3,1
   1d860:	b21ff06f          	j	1d380 <_vfiprintf_r+0x43c>
   1d864:	00100613          	li	a2,1
   1d868:	34c68663          	beq	a3,a2,1dbb4 <_vfiprintf_r+0xc70>
   1d86c:	00200613          	li	a2,2
   1d870:	14c68663          	beq	a3,a2,1d9bc <_vfiprintf_r+0xa78>
   1d874:	0f010693          	addi	a3,sp,240
   1d878:	01da9593          	slli	a1,s5,0x1d
   1d87c:	00777613          	andi	a2,a4,7
   1d880:	00375713          	srli	a4,a4,0x3
   1d884:	03060613          	addi	a2,a2,48
   1d888:	00e5e733          	or	a4,a1,a4
   1d88c:	003ada93          	srli	s5,s5,0x3
   1d890:	fec68fa3          	sb	a2,-1(a3)
   1d894:	015765b3          	or	a1,a4,s5
   1d898:	fff68493          	addi	s1,a3,-1
   1d89c:	02059663          	bnez	a1,1d8c8 <_vfiprintf_r+0x984>
   1d8a0:	001d7713          	andi	a4,s10,1
   1d8a4:	00070a63          	beqz	a4,1d8b8 <_vfiprintf_r+0x974>
   1d8a8:	03000713          	li	a4,48
   1d8ac:	00e60663          	beq	a2,a4,1d8b8 <_vfiprintf_r+0x974>
   1d8b0:	fee48fa3          	sb	a4,-1(s1)
   1d8b4:	ffe68493          	addi	s1,a3,-2
   1d8b8:	0f010793          	addi	a5,sp,240
   1d8bc:	00090a93          	mv	s5,s2
   1d8c0:	40978933          	sub	s2,a5,s1
   1d8c4:	c35ff06f          	j	1d4f8 <_vfiprintf_r+0x5b4>
   1d8c8:	00048693          	mv	a3,s1
   1d8cc:	fadff06f          	j	1d878 <_vfiprintf_r+0x934>
   1d8d0:	400d7793          	andi	a5,s10,1024
   1d8d4:	00000313          	li	t1,0
   1d8d8:	0f010e13          	addi	t3,sp,240
   1d8dc:	00f12223          	sw	a5,4(sp)
   1d8e0:	00070513          	mv	a0,a4
   1d8e4:	00a00613          	li	a2,10
   1d8e8:	00000693          	li	a3,0
   1d8ec:	000a8593          	mv	a1,s5
   1d8f0:	02612623          	sw	t1,44(sp)
   1d8f4:	fffe0493          	addi	s1,t3,-1
   1d8f8:	03c12223          	sw	t3,36(sp)
   1d8fc:	02e12023          	sw	a4,32(sp)
   1d900:	304020ef          	jal	ra,1fc04 <__umoddi3>
   1d904:	02412e03          	lw	t3,36(sp)
   1d908:	02c12303          	lw	t1,44(sp)
   1d90c:	00412783          	lw	a5,4(sp)
   1d910:	03050513          	addi	a0,a0,48
   1d914:	feae0fa3          	sb	a0,-1(t3)
   1d918:	00130313          	addi	t1,t1,1
   1d91c:	02012703          	lw	a4,32(sp)
   1d920:	04078e63          	beqz	a5,1d97c <_vfiprintf_r+0xa38>
   1d924:	00812783          	lw	a5,8(sp)
   1d928:	0007c683          	lbu	a3,0(a5)
   1d92c:	04669863          	bne	a3,t1,1d97c <_vfiprintf_r+0xa38>
   1d930:	0ff00793          	li	a5,255
   1d934:	04f30463          	beq	t1,a5,1d97c <_vfiprintf_r+0xa38>
   1d938:	000a9663          	bnez	s5,1d944 <_vfiprintf_r+0xa00>
   1d93c:	00900793          	li	a5,9
   1d940:	02e7fe63          	bleu	a4,a5,1d97c <_vfiprintf_r+0xa38>
   1d944:	01012783          	lw	a5,16(sp)
   1d948:	01c12583          	lw	a1,28(sp)
   1d94c:	02e12023          	sw	a4,32(sp)
   1d950:	40f484b3          	sub	s1,s1,a5
   1d954:	00078613          	mv	a2,a5
   1d958:	00048513          	mv	a0,s1
   1d95c:	d5cfd0ef          	jal	ra,1aeb8 <strncpy>
   1d960:	00812783          	lw	a5,8(sp)
   1d964:	00000313          	li	t1,0
   1d968:	02012703          	lw	a4,32(sp)
   1d96c:	0017c683          	lbu	a3,1(a5)
   1d970:	00068663          	beqz	a3,1d97c <_vfiprintf_r+0xa38>
   1d974:	00178793          	addi	a5,a5,1
   1d978:	00f12423          	sw	a5,8(sp)
   1d97c:	00070513          	mv	a0,a4
   1d980:	00a00613          	li	a2,10
   1d984:	00000693          	li	a3,0
   1d988:	000a8593          	mv	a1,s5
   1d98c:	02612223          	sw	t1,36(sp)
   1d990:	02e12023          	sw	a4,32(sp)
   1d994:	49d010ef          	jal	ra,1f630 <__udivdi3>
   1d998:	02012703          	lw	a4,32(sp)
   1d99c:	02412303          	lw	t1,36(sp)
   1d9a0:	000a9663          	bnez	s5,1d9ac <_vfiprintf_r+0xa68>
   1d9a4:	00900793          	li	a5,9
   1d9a8:	f0e7f8e3          	bleu	a4,a5,1d8b8 <_vfiprintf_r+0x974>
   1d9ac:	00050713          	mv	a4,a0
   1d9b0:	00058a93          	mv	s5,a1
   1d9b4:	00048e13          	mv	t3,s1
   1d9b8:	f29ff06f          	j	1d8e0 <_vfiprintf_r+0x99c>
   1d9bc:	0f010493          	addi	s1,sp,240
   1d9c0:	00c12783          	lw	a5,12(sp)
   1d9c4:	00f77693          	andi	a3,a4,15
   1d9c8:	fff48493          	addi	s1,s1,-1
   1d9cc:	00d786b3          	add	a3,a5,a3
   1d9d0:	0006c683          	lbu	a3,0(a3)
   1d9d4:	00475713          	srli	a4,a4,0x4
   1d9d8:	00d48023          	sb	a3,0(s1)
   1d9dc:	01ca9693          	slli	a3,s5,0x1c
   1d9e0:	00e6e733          	or	a4,a3,a4
   1d9e4:	004ada93          	srli	s5,s5,0x4
   1d9e8:	015766b3          	or	a3,a4,s5
   1d9ec:	fc069ae3          	bnez	a3,1d9c0 <_vfiprintf_r+0xa7c>
   1d9f0:	ec9ff06f          	j	1d8b8 <_vfiprintf_r+0x974>
   1d9f4:	0f010493          	addi	s1,sp,240
   1d9f8:	ec0690e3          	bnez	a3,1d8b8 <_vfiprintf_r+0x974>
   1d9fc:	00167613          	andi	a2,a2,1
   1da00:	ea060ce3          	beqz	a2,1d8b8 <_vfiprintf_r+0x974>
   1da04:	03000713          	li	a4,48
   1da08:	1bc0006f          	j	1dbc4 <_vfiprintf_r+0xc80>
   1da0c:	18060263          	beqz	a2,1db90 <_vfiprintf_r+0xc4c>
   1da10:	08c10623          	sb	a2,140(sp)
   1da14:	02010da3          	sb	zero,59(sp)
   1da18:	00048c93          	mv	s9,s1
   1da1c:	909ff06f          	j	1d324 <_vfiprintf_r+0x3e0>
   1da20:	01060613          	addi	a2,a2,16
   1da24:	011da223          	sw	a7,4(s11)
   1da28:	04c12423          	sw	a2,72(sp)
   1da2c:	04d12223          	sw	a3,68(sp)
   1da30:	02d35663          	ble	a3,t1,1da5c <_vfiprintf_r+0xb18>
   1da34:	04010613          	addi	a2,sp,64
   1da38:	00040593          	mv	a1,s0
   1da3c:	00098513          	mv	a0,s3
   1da40:	02e12623          	sw	a4,44(sp)
   1da44:	c04ff0ef          	jal	ra,1ce48 <__sprint_r>
   1da48:	10051063          	bnez	a0,1db48 <_vfiprintf_r+0xc04>
   1da4c:	02c12703          	lw	a4,44(sp)
   1da50:	000b8593          	mv	a1,s7
   1da54:	00700313          	li	t1,7
   1da58:	01000893          	li	a7,16
   1da5c:	ff070713          	addi	a4,a4,-16
   1da60:	00058d93          	mv	s11,a1
   1da64:	aedff06f          	j	1d550 <_vfiprintf_r+0x60c>
   1da68:	01060613          	addi	a2,a2,16
   1da6c:	011da223          	sw	a7,4(s11)
   1da70:	04c12423          	sw	a2,72(sp)
   1da74:	04d12223          	sw	a3,68(sp)
   1da78:	02d35663          	ble	a3,t1,1daa4 <_vfiprintf_r+0xb60>
   1da7c:	04010613          	addi	a2,sp,64
   1da80:	00040593          	mv	a1,s0
   1da84:	00098513          	mv	a0,s3
   1da88:	02e12023          	sw	a4,32(sp)
   1da8c:	bbcff0ef          	jal	ra,1ce48 <__sprint_r>
   1da90:	0a051c63          	bnez	a0,1db48 <_vfiprintf_r+0xc04>
   1da94:	02012703          	lw	a4,32(sp)
   1da98:	000b8593          	mv	a1,s7
   1da9c:	00700313          	li	t1,7
   1daa0:	01000893          	li	a7,16
   1daa4:	ff070713          	addi	a4,a4,-16
   1daa8:	00058d93          	mv	s11,a1
   1daac:	bbdff06f          	j	1d668 <_vfiprintf_r+0x724>
   1dab0:	01068693          	addi	a3,a3,16
   1dab4:	011da223          	sw	a7,4(s11)
   1dab8:	04d12423          	sw	a3,72(sp)
   1dabc:	04e12223          	sw	a4,68(sp)
   1dac0:	02e35263          	ble	a4,t1,1dae4 <_vfiprintf_r+0xba0>
   1dac4:	04010613          	addi	a2,sp,64
   1dac8:	00040593          	mv	a1,s0
   1dacc:	00098513          	mv	a0,s3
   1dad0:	b78ff0ef          	jal	ra,1ce48 <__sprint_r>
   1dad4:	06051a63          	bnez	a0,1db48 <_vfiprintf_r+0xc04>
   1dad8:	000b8613          	mv	a2,s7
   1dadc:	00700313          	li	t1,7
   1dae0:	01000893          	li	a7,16
   1dae4:	ff0a8a93          	addi	s5,s5,-16
   1dae8:	00060d93          	mv	s11,a2
   1daec:	bddff06f          	j	1d6c8 <_vfiprintf_r+0x784>
   1daf0:	00412783          	lw	a5,4(sp)
   1daf4:	40fb04b3          	sub	s1,s6,a5
   1daf8:	c69056e3          	blez	s1,1d764 <_vfiprintf_r+0x820>
   1dafc:	01000913          	li	s2,16
   1db00:	00700a93          	li	s5,7
   1db04:	01812683          	lw	a3,24(sp)
   1db08:	04412783          	lw	a5,68(sp)
   1db0c:	04812703          	lw	a4,72(sp)
   1db10:	00d82023          	sw	a3,0(a6) # 7ff00000 <__global_pointer$+0x7fed9d90>
   1db14:	00178793          	addi	a5,a5,1
   1db18:	04994063          	blt	s2,s1,1db58 <_vfiprintf_r+0xc14>
   1db1c:	00982223          	sw	s1,4(a6)
   1db20:	00e484b3          	add	s1,s1,a4
   1db24:	04912423          	sw	s1,72(sp)
   1db28:	04f12223          	sw	a5,68(sp)
   1db2c:	00700713          	li	a4,7
   1db30:	c2f75ae3          	ble	a5,a4,1d764 <_vfiprintf_r+0x820>
   1db34:	04010613          	addi	a2,sp,64
   1db38:	00040593          	mv	a1,s0
   1db3c:	00098513          	mv	a0,s3
   1db40:	b08ff0ef          	jal	ra,1ce48 <__sprint_r>
   1db44:	c20500e3          	beqz	a0,1d764 <_vfiprintf_r+0x820>
   1db48:	00c45783          	lhu	a5,12(s0)
   1db4c:	0407f793          	andi	a5,a5,64
   1db50:	cc078a63          	beqz	a5,1d024 <_vfiprintf_r+0xe0>
   1db54:	cccff06f          	j	1d020 <_vfiprintf_r+0xdc>
   1db58:	01070713          	addi	a4,a4,16
   1db5c:	01282223          	sw	s2,4(a6)
   1db60:	04e12423          	sw	a4,72(sp)
   1db64:	04f12223          	sw	a5,68(sp)
   1db68:	00880813          	addi	a6,a6,8
   1db6c:	00fade63          	ble	a5,s5,1db88 <_vfiprintf_r+0xc44>
   1db70:	04010613          	addi	a2,sp,64
   1db74:	00040593          	mv	a1,s0
   1db78:	00098513          	mv	a0,s3
   1db7c:	accff0ef          	jal	ra,1ce48 <__sprint_r>
   1db80:	fc0514e3          	bnez	a0,1db48 <_vfiprintf_r+0xc04>
   1db84:	000b8813          	mv	a6,s7
   1db88:	ff048493          	addi	s1,s1,-16
   1db8c:	f79ff06f          	j	1db04 <_vfiprintf_r+0xbc0>
   1db90:	04812783          	lw	a5,72(sp)
   1db94:	fa078ae3          	beqz	a5,1db48 <_vfiprintf_r+0xc04>
   1db98:	04010613          	addi	a2,sp,64
   1db9c:	00040593          	mv	a1,s0
   1dba0:	00098513          	mv	a0,s3
   1dba4:	aa4ff0ef          	jal	ra,1ce48 <__sprint_r>
   1dba8:	fa1ff06f          	j	1db48 <_vfiprintf_r+0xc04>
   1dbac:	fff00693          	li	a3,-1
   1dbb0:	cad914e3          	bne	s2,a3,1d858 <_vfiprintf_r+0x914>
   1dbb4:	d00a9ee3          	bnez	s5,1d8d0 <_vfiprintf_r+0x98c>
   1dbb8:	00900693          	li	a3,9
   1dbbc:	d0e6eae3          	bltu	a3,a4,1d8d0 <_vfiprintf_r+0x98c>
   1dbc0:	03070713          	addi	a4,a4,48
   1dbc4:	0ee107a3          	sb	a4,239(sp)
   1dbc8:	0ef10493          	addi	s1,sp,239
   1dbcc:	cedff06f          	j	1d8b8 <_vfiprintf_r+0x974>

0001dbd0 <vfiprintf>:
   1dbd0:	00060693          	mv	a3,a2
   1dbd4:	00058613          	mv	a2,a1
   1dbd8:	00050593          	mv	a1,a0
   1dbdc:	8301a503          	lw	a0,-2000(gp) # 25aa0 <_impure_ptr>
   1dbe0:	b64ff06f          	j	1cf44 <_vfiprintf_r>

0001dbe4 <__sbprintf>:
   1dbe4:	00c5d783          	lhu	a5,12(a1)
   1dbe8:	b8010113          	addi	sp,sp,-1152
   1dbec:	46812c23          	sw	s0,1144(sp)
   1dbf0:	ffd7f793          	andi	a5,a5,-3
   1dbf4:	00f11a23          	sh	a5,20(sp)
   1dbf8:	0645a783          	lw	a5,100(a1)
   1dbfc:	00058413          	mv	s0,a1
   1dc00:	46912a23          	sw	s1,1140(sp)
   1dc04:	06f12623          	sw	a5,108(sp)
   1dc08:	00e5d783          	lhu	a5,14(a1)
   1dc0c:	47212823          	sw	s2,1136(sp)
   1dc10:	46112e23          	sw	ra,1148(sp)
   1dc14:	00f11b23          	sh	a5,22(sp)
   1dc18:	01c5a783          	lw	a5,28(a1)
   1dc1c:	00050913          	mv	s2,a0
   1dc20:	02012023          	sw	zero,32(sp)
   1dc24:	02f12223          	sw	a5,36(sp)
   1dc28:	0245a783          	lw	a5,36(a1)
   1dc2c:	00810593          	addi	a1,sp,8
   1dc30:	02f12623          	sw	a5,44(sp)
   1dc34:	07010793          	addi	a5,sp,112
   1dc38:	00f12423          	sw	a5,8(sp)
   1dc3c:	00f12c23          	sw	a5,24(sp)
   1dc40:	40000793          	li	a5,1024
   1dc44:	00f12823          	sw	a5,16(sp)
   1dc48:	00f12e23          	sw	a5,28(sp)
   1dc4c:	af8ff0ef          	jal	ra,1cf44 <_vfiprintf_r>
   1dc50:	00050493          	mv	s1,a0
   1dc54:	00054c63          	bltz	a0,1dc6c <__sbprintf+0x88>
   1dc58:	00810593          	addi	a1,sp,8
   1dc5c:	00090513          	mv	a0,s2
   1dc60:	a78f80ef          	jal	ra,15ed8 <_fflush_r>
   1dc64:	00050463          	beqz	a0,1dc6c <__sbprintf+0x88>
   1dc68:	fff00493          	li	s1,-1
   1dc6c:	01415783          	lhu	a5,20(sp)
   1dc70:	0407f793          	andi	a5,a5,64
   1dc74:	00078863          	beqz	a5,1dc84 <__sbprintf+0xa0>
   1dc78:	00c45783          	lhu	a5,12(s0)
   1dc7c:	0407e793          	ori	a5,a5,64
   1dc80:	00f41623          	sh	a5,12(s0)
   1dc84:	47c12083          	lw	ra,1148(sp)
   1dc88:	47812403          	lw	s0,1144(sp)
   1dc8c:	00048513          	mv	a0,s1
   1dc90:	47012903          	lw	s2,1136(sp)
   1dc94:	47412483          	lw	s1,1140(sp)
   1dc98:	48010113          	addi	sp,sp,1152
   1dc9c:	00008067          	ret

0001dca0 <_wctomb_r>:
   1dca0:	8301a783          	lw	a5,-2000(gp) # 25aa0 <_impure_ptr>
   1dca4:	0347a783          	lw	a5,52(a5)
   1dca8:	00079663          	bnez	a5,1dcb4 <_wctomb_r+0x14>
   1dcac:	000257b7          	lui	a5,0x25
   1dcb0:	4f878793          	addi	a5,a5,1272 # 254f8 <__global_locale>
   1dcb4:	0e07a303          	lw	t1,224(a5)
   1dcb8:	00030067          	jr	t1

0001dcbc <__ascii_wctomb>:
   1dcbc:	02058463          	beqz	a1,1dce4 <__ascii_wctomb+0x28>
   1dcc0:	0ff00793          	li	a5,255
   1dcc4:	00c7fa63          	bleu	a2,a5,1dcd8 <__ascii_wctomb+0x1c>
   1dcc8:	08a00793          	li	a5,138
   1dccc:	00f52023          	sw	a5,0(a0)
   1dcd0:	fff00513          	li	a0,-1
   1dcd4:	00008067          	ret
   1dcd8:	00c58023          	sb	a2,0(a1)
   1dcdc:	00100513          	li	a0,1
   1dce0:	00008067          	ret
   1dce4:	00000513          	li	a0,0
   1dce8:	00008067          	ret

0001dcec <_write_r>:
   1dcec:	ff010113          	addi	sp,sp,-16
   1dcf0:	00812423          	sw	s0,8(sp)
   1dcf4:	00912223          	sw	s1,4(sp)
   1dcf8:	00050493          	mv	s1,a0
   1dcfc:	00058513          	mv	a0,a1
   1dd00:	00060593          	mv	a1,a2
   1dd04:	00068613          	mv	a2,a3
   1dd08:	00112623          	sw	ra,12(sp)
   1dd0c:	8c01a023          	sw	zero,-1856(gp) # 25b30 <errno>
   1dd10:	7f4010ef          	jal	ra,1f504 <_write>
   1dd14:	fff00793          	li	a5,-1
   1dd18:	00f51863          	bne	a0,a5,1dd28 <_write_r+0x3c>
   1dd1c:	8c01a783          	lw	a5,-1856(gp) # 25b30 <errno>
   1dd20:	00078463          	beqz	a5,1dd28 <_write_r+0x3c>
   1dd24:	00f4a023          	sw	a5,0(s1)
   1dd28:	00c12083          	lw	ra,12(sp)
   1dd2c:	00812403          	lw	s0,8(sp)
   1dd30:	00412483          	lw	s1,4(sp)
   1dd34:	01010113          	addi	sp,sp,16
   1dd38:	00008067          	ret

0001dd3c <_calloc_r>:
   1dd3c:	ff010113          	addi	sp,sp,-16
   1dd40:	00812423          	sw	s0,8(sp)
   1dd44:	00050413          	mv	s0,a0
   1dd48:	00058513          	mv	a0,a1
   1dd4c:	00060593          	mv	a1,a2
   1dd50:	00112623          	sw	ra,12(sp)
   1dd54:	d34f50ef          	jal	ra,13288 <__mulsi3>
   1dd58:	00050593          	mv	a1,a0
   1dd5c:	00040513          	mv	a0,s0
   1dd60:	800fb0ef          	jal	ra,18d60 <_malloc_r>
   1dd64:	00050413          	mv	s0,a0
   1dd68:	04050263          	beqz	a0,1ddac <_calloc_r+0x70>
   1dd6c:	ffc52603          	lw	a2,-4(a0)
   1dd70:	02400713          	li	a4,36
   1dd74:	ffc67613          	andi	a2,a2,-4
   1dd78:	ffc60613          	addi	a2,a2,-4
   1dd7c:	06c76263          	bltu	a4,a2,1dde0 <_calloc_r+0xa4>
   1dd80:	01300693          	li	a3,19
   1dd84:	00050793          	mv	a5,a0
   1dd88:	00c6fc63          	bleu	a2,a3,1dda0 <_calloc_r+0x64>
   1dd8c:	00052023          	sw	zero,0(a0)
   1dd90:	00052223          	sw	zero,4(a0)
   1dd94:	01b00793          	li	a5,27
   1dd98:	02c7e463          	bltu	a5,a2,1ddc0 <_calloc_r+0x84>
   1dd9c:	00850793          	addi	a5,a0,8
   1dda0:	0007a023          	sw	zero,0(a5)
   1dda4:	0007a223          	sw	zero,4(a5)
   1dda8:	0007a423          	sw	zero,8(a5)
   1ddac:	00040513          	mv	a0,s0
   1ddb0:	00c12083          	lw	ra,12(sp)
   1ddb4:	00812403          	lw	s0,8(sp)
   1ddb8:	01010113          	addi	sp,sp,16
   1ddbc:	00008067          	ret
   1ddc0:	00052423          	sw	zero,8(a0)
   1ddc4:	00052623          	sw	zero,12(a0)
   1ddc8:	01050793          	addi	a5,a0,16
   1ddcc:	fce61ae3          	bne	a2,a4,1dda0 <_calloc_r+0x64>
   1ddd0:	00052823          	sw	zero,16(a0)
   1ddd4:	01850793          	addi	a5,a0,24
   1ddd8:	00052a23          	sw	zero,20(a0)
   1dddc:	fc5ff06f          	j	1dda0 <_calloc_r+0x64>
   1dde0:	00000593          	li	a1,0
   1dde4:	f54f50ef          	jal	ra,13538 <memset>
   1dde8:	fc5ff06f          	j	1ddac <_calloc_r+0x70>

0001ddec <_close_r>:
   1ddec:	ff010113          	addi	sp,sp,-16
   1ddf0:	00812423          	sw	s0,8(sp)
   1ddf4:	00912223          	sw	s1,4(sp)
   1ddf8:	00050493          	mv	s1,a0
   1ddfc:	00058513          	mv	a0,a1
   1de00:	00112623          	sw	ra,12(sp)
   1de04:	8c01a023          	sw	zero,-1856(gp) # 25b30 <errno>
   1de08:	3b4010ef          	jal	ra,1f1bc <_close>
   1de0c:	fff00793          	li	a5,-1
   1de10:	00f51863          	bne	a0,a5,1de20 <_close_r+0x34>
   1de14:	8c01a783          	lw	a5,-1856(gp) # 25b30 <errno>
   1de18:	00078463          	beqz	a5,1de20 <_close_r+0x34>
   1de1c:	00f4a023          	sw	a5,0(s1)
   1de20:	00c12083          	lw	ra,12(sp)
   1de24:	00812403          	lw	s0,8(sp)
   1de28:	00412483          	lw	s1,4(sp)
   1de2c:	01010113          	addi	sp,sp,16
   1de30:	00008067          	ret

0001de34 <_fclose_r>:
   1de34:	ff010113          	addi	sp,sp,-16
   1de38:	00112623          	sw	ra,12(sp)
   1de3c:	00812423          	sw	s0,8(sp)
   1de40:	00912223          	sw	s1,4(sp)
   1de44:	01212023          	sw	s2,0(sp)
   1de48:	02059263          	bnez	a1,1de6c <_fclose_r+0x38>
   1de4c:	00000913          	li	s2,0
   1de50:	00c12083          	lw	ra,12(sp)
   1de54:	00812403          	lw	s0,8(sp)
   1de58:	00090513          	mv	a0,s2
   1de5c:	00412483          	lw	s1,4(sp)
   1de60:	00012903          	lw	s2,0(sp)
   1de64:	01010113          	addi	sp,sp,16
   1de68:	00008067          	ret
   1de6c:	00050493          	mv	s1,a0
   1de70:	00058413          	mv	s0,a1
   1de74:	00050863          	beqz	a0,1de84 <_fclose_r+0x50>
   1de78:	03852783          	lw	a5,56(a0)
   1de7c:	00079463          	bnez	a5,1de84 <_fclose_r+0x50>
   1de80:	9f4f80ef          	jal	ra,16074 <__sinit>
   1de84:	00c41783          	lh	a5,12(s0)
   1de88:	fc0782e3          	beqz	a5,1de4c <_fclose_r+0x18>
   1de8c:	00040593          	mv	a1,s0
   1de90:	00048513          	mv	a0,s1
   1de94:	e3df70ef          	jal	ra,15cd0 <__sflush_r>
   1de98:	02c42783          	lw	a5,44(s0)
   1de9c:	00050913          	mv	s2,a0
   1dea0:	00078c63          	beqz	a5,1deb8 <_fclose_r+0x84>
   1dea4:	01c42583          	lw	a1,28(s0)
   1dea8:	00048513          	mv	a0,s1
   1deac:	000780e7          	jalr	a5
   1deb0:	00055463          	bgez	a0,1deb8 <_fclose_r+0x84>
   1deb4:	fff00913          	li	s2,-1
   1deb8:	00c45783          	lhu	a5,12(s0)
   1debc:	0807f793          	andi	a5,a5,128
   1dec0:	00078863          	beqz	a5,1ded0 <_fclose_r+0x9c>
   1dec4:	01042583          	lw	a1,16(s0)
   1dec8:	00048513          	mv	a0,s1
   1decc:	c50f80ef          	jal	ra,1631c <_free_r>
   1ded0:	03042583          	lw	a1,48(s0)
   1ded4:	00058c63          	beqz	a1,1deec <_fclose_r+0xb8>
   1ded8:	04040793          	addi	a5,s0,64
   1dedc:	00f58663          	beq	a1,a5,1dee8 <_fclose_r+0xb4>
   1dee0:	00048513          	mv	a0,s1
   1dee4:	c38f80ef          	jal	ra,1631c <_free_r>
   1dee8:	02042823          	sw	zero,48(s0)
   1deec:	04442583          	lw	a1,68(s0)
   1def0:	00058863          	beqz	a1,1df00 <_fclose_r+0xcc>
   1def4:	00048513          	mv	a0,s1
   1def8:	c24f80ef          	jal	ra,1631c <_free_r>
   1defc:	04042223          	sw	zero,68(s0)
   1df00:	ae0f80ef          	jal	ra,161e0 <__sfp_lock_acquire>
   1df04:	00041623          	sh	zero,12(s0)
   1df08:	adcf80ef          	jal	ra,161e4 <__sfp_lock_release>
   1df0c:	f45ff06f          	j	1de50 <_fclose_r+0x1c>

0001df10 <fclose>:
   1df10:	00050593          	mv	a1,a0
   1df14:	8301a503          	lw	a0,-2000(gp) # 25aa0 <_impure_ptr>
   1df18:	f1dff06f          	j	1de34 <_fclose_r>

0001df1c <__fputwc>:
   1df1c:	fd010113          	addi	sp,sp,-48
   1df20:	02812423          	sw	s0,40(sp)
   1df24:	02912223          	sw	s1,36(sp)
   1df28:	01412c23          	sw	s4,24(sp)
   1df2c:	02112623          	sw	ra,44(sp)
   1df30:	03212023          	sw	s2,32(sp)
   1df34:	01312e23          	sw	s3,28(sp)
   1df38:	01512a23          	sw	s5,20(sp)
   1df3c:	01612823          	sw	s6,16(sp)
   1df40:	00050a13          	mv	s4,a0
   1df44:	00058493          	mv	s1,a1
   1df48:	00060413          	mv	s0,a2
   1df4c:	c39fa0ef          	jal	ra,18b84 <__locale_mb_cur_max>
   1df50:	00100793          	li	a5,1
   1df54:	04f51a63          	bne	a0,a5,1dfa8 <__fputwc+0x8c>
   1df58:	fff48793          	addi	a5,s1,-1
   1df5c:	0fe00713          	li	a4,254
   1df60:	04f76463          	bltu	a4,a5,1dfa8 <__fputwc+0x8c>
   1df64:	00910623          	sb	s1,12(sp)
   1df68:	00100993          	li	s3,1
   1df6c:	00000913          	li	s2,0
   1df70:	fff00a93          	li	s5,-1
   1df74:	00a00b13          	li	s6,10
   1df78:	07391263          	bne	s2,s3,1dfdc <__fputwc+0xc0>
   1df7c:	00048513          	mv	a0,s1
   1df80:	02c12083          	lw	ra,44(sp)
   1df84:	02812403          	lw	s0,40(sp)
   1df88:	02412483          	lw	s1,36(sp)
   1df8c:	02012903          	lw	s2,32(sp)
   1df90:	01c12983          	lw	s3,28(sp)
   1df94:	01812a03          	lw	s4,24(sp)
   1df98:	01412a83          	lw	s5,20(sp)
   1df9c:	01012b03          	lw	s6,16(sp)
   1dfa0:	03010113          	addi	sp,sp,48
   1dfa4:	00008067          	ret
   1dfa8:	05c40693          	addi	a3,s0,92
   1dfac:	00048613          	mv	a2,s1
   1dfb0:	00c10593          	addi	a1,sp,12
   1dfb4:	000a0513          	mv	a0,s4
   1dfb8:	168010ef          	jal	ra,1f120 <_wcrtomb_r>
   1dfbc:	fff00793          	li	a5,-1
   1dfc0:	00050993          	mv	s3,a0
   1dfc4:	faf514e3          	bne	a0,a5,1df6c <__fputwc+0x50>
   1dfc8:	00c45783          	lhu	a5,12(s0)
   1dfcc:	0407e793          	ori	a5,a5,64
   1dfd0:	00f41623          	sh	a5,12(s0)
   1dfd4:	fff00513          	li	a0,-1
   1dfd8:	fa9ff06f          	j	1df80 <__fputwc+0x64>
   1dfdc:	00c10793          	addi	a5,sp,12
   1dfe0:	012787b3          	add	a5,a5,s2
   1dfe4:	0007c583          	lbu	a1,0(a5)
   1dfe8:	00842783          	lw	a5,8(s0)
   1dfec:	fff78793          	addi	a5,a5,-1
   1dff0:	00f42423          	sw	a5,8(s0)
   1dff4:	0007d863          	bgez	a5,1e004 <__fputwc+0xe8>
   1dff8:	01842703          	lw	a4,24(s0)
   1dffc:	02e7c063          	blt	a5,a4,1e01c <__fputwc+0x100>
   1e000:	01658e63          	beq	a1,s6,1e01c <__fputwc+0x100>
   1e004:	00042783          	lw	a5,0(s0)
   1e008:	00178713          	addi	a4,a5,1
   1e00c:	00e42023          	sw	a4,0(s0)
   1e010:	00b78023          	sb	a1,0(a5)
   1e014:	00190913          	addi	s2,s2,1
   1e018:	f61ff06f          	j	1df78 <__fputwc+0x5c>
   1e01c:	00040613          	mv	a2,s0
   1e020:	000a0513          	mv	a0,s4
   1e024:	8b1f70ef          	jal	ra,158d4 <__swbuf_r>
   1e028:	ff5516e3          	bne	a0,s5,1e014 <__fputwc+0xf8>
   1e02c:	fa9ff06f          	j	1dfd4 <__fputwc+0xb8>

0001e030 <_fputwc_r>:
   1e030:	00c61783          	lh	a5,12(a2)
   1e034:	01279713          	slli	a4,a5,0x12
   1e038:	02074063          	bltz	a4,1e058 <_fputwc_r+0x28>
   1e03c:	06462703          	lw	a4,100(a2)
   1e040:	000026b7          	lui	a3,0x2
   1e044:	00d7e7b3          	or	a5,a5,a3
   1e048:	00f61623          	sh	a5,12(a2)
   1e04c:	000027b7          	lui	a5,0x2
   1e050:	00f767b3          	or	a5,a4,a5
   1e054:	06f62223          	sw	a5,100(a2)
   1e058:	ec5ff06f          	j	1df1c <__fputwc>

0001e05c <fputwc>:
   1e05c:	fe010113          	addi	sp,sp,-32
   1e060:	00812c23          	sw	s0,24(sp)
   1e064:	8301a403          	lw	s0,-2000(gp) # 25aa0 <_impure_ptr>
   1e068:	00912a23          	sw	s1,20(sp)
   1e06c:	00112e23          	sw	ra,28(sp)
   1e070:	00050493          	mv	s1,a0
   1e074:	00058613          	mv	a2,a1
   1e078:	00040e63          	beqz	s0,1e094 <fputwc+0x38>
   1e07c:	03842783          	lw	a5,56(s0)
   1e080:	00079a63          	bnez	a5,1e094 <fputwc+0x38>
   1e084:	00040513          	mv	a0,s0
   1e088:	00b12623          	sw	a1,12(sp)
   1e08c:	fe9f70ef          	jal	ra,16074 <__sinit>
   1e090:	00c12603          	lw	a2,12(sp)
   1e094:	00040513          	mv	a0,s0
   1e098:	01812403          	lw	s0,24(sp)
   1e09c:	01c12083          	lw	ra,28(sp)
   1e0a0:	00048593          	mv	a1,s1
   1e0a4:	01412483          	lw	s1,20(sp)
   1e0a8:	02010113          	addi	sp,sp,32
   1e0ac:	f85ff06f          	j	1e030 <_fputwc_r>

0001e0b0 <_fstat_r>:
   1e0b0:	ff010113          	addi	sp,sp,-16
   1e0b4:	00812423          	sw	s0,8(sp)
   1e0b8:	00912223          	sw	s1,4(sp)
   1e0bc:	00050493          	mv	s1,a0
   1e0c0:	00058513          	mv	a0,a1
   1e0c4:	00060593          	mv	a1,a2
   1e0c8:	00112623          	sw	ra,12(sp)
   1e0cc:	8c01a023          	sw	zero,-1856(gp) # 25b30 <errno>
   1e0d0:	184010ef          	jal	ra,1f254 <_fstat>
   1e0d4:	fff00793          	li	a5,-1
   1e0d8:	00f51863          	bne	a0,a5,1e0e8 <_fstat_r+0x38>
   1e0dc:	8c01a783          	lw	a5,-1856(gp) # 25b30 <errno>
   1e0e0:	00078463          	beqz	a5,1e0e8 <_fstat_r+0x38>
   1e0e4:	00f4a023          	sw	a5,0(s1)
   1e0e8:	00c12083          	lw	ra,12(sp)
   1e0ec:	00812403          	lw	s0,8(sp)
   1e0f0:	00412483          	lw	s1,4(sp)
   1e0f4:	01010113          	addi	sp,sp,16
   1e0f8:	00008067          	ret

0001e0fc <_isatty_r>:
   1e0fc:	ff010113          	addi	sp,sp,-16
   1e100:	00812423          	sw	s0,8(sp)
   1e104:	00912223          	sw	s1,4(sp)
   1e108:	00050493          	mv	s1,a0
   1e10c:	00058513          	mv	a0,a1
   1e110:	00112623          	sw	ra,12(sp)
   1e114:	8c01a023          	sw	zero,-1856(gp) # 25b30 <errno>
   1e118:	1a8010ef          	jal	ra,1f2c0 <_isatty>
   1e11c:	fff00793          	li	a5,-1
   1e120:	00f51863          	bne	a0,a5,1e130 <_isatty_r+0x34>
   1e124:	8c01a783          	lw	a5,-1856(gp) # 25b30 <errno>
   1e128:	00078463          	beqz	a5,1e130 <_isatty_r+0x34>
   1e12c:	00f4a023          	sw	a5,0(s1)
   1e130:	00c12083          	lw	ra,12(sp)
   1e134:	00812403          	lw	s0,8(sp)
   1e138:	00412483          	lw	s1,4(sp)
   1e13c:	01010113          	addi	sp,sp,16
   1e140:	00008067          	ret

0001e144 <_lseek_r>:
   1e144:	ff010113          	addi	sp,sp,-16
   1e148:	00812423          	sw	s0,8(sp)
   1e14c:	00912223          	sw	s1,4(sp)
   1e150:	00050493          	mv	s1,a0
   1e154:	00058513          	mv	a0,a1
   1e158:	00060593          	mv	a1,a2
   1e15c:	00068613          	mv	a2,a3
   1e160:	00112623          	sw	ra,12(sp)
   1e164:	8c01a023          	sw	zero,-1856(gp) # 25b30 <errno>
   1e168:	190010ef          	jal	ra,1f2f8 <_lseek>
   1e16c:	fff00793          	li	a5,-1
   1e170:	00f51863          	bne	a0,a5,1e180 <_lseek_r+0x3c>
   1e174:	8c01a783          	lw	a5,-1856(gp) # 25b30 <errno>
   1e178:	00078463          	beqz	a5,1e180 <_lseek_r+0x3c>
   1e17c:	00f4a023          	sw	a5,0(s1)
   1e180:	00c12083          	lw	ra,12(sp)
   1e184:	00812403          	lw	s0,8(sp)
   1e188:	00412483          	lw	s1,4(sp)
   1e18c:	01010113          	addi	sp,sp,16
   1e190:	00008067          	ret

0001e194 <_read_r>:
   1e194:	ff010113          	addi	sp,sp,-16
   1e198:	00812423          	sw	s0,8(sp)
   1e19c:	00912223          	sw	s1,4(sp)
   1e1a0:	00050493          	mv	s1,a0
   1e1a4:	00058513          	mv	a0,a1
   1e1a8:	00060593          	mv	a1,a2
   1e1ac:	00068613          	mv	a2,a3
   1e1b0:	00112623          	sw	ra,12(sp)
   1e1b4:	8c01a023          	sw	zero,-1856(gp) # 25b30 <errno>
   1e1b8:	18c010ef          	jal	ra,1f344 <_read>
   1e1bc:	fff00793          	li	a5,-1
   1e1c0:	00f51863          	bne	a0,a5,1e1d0 <_read_r+0x3c>
   1e1c4:	8c01a783          	lw	a5,-1856(gp) # 25b30 <errno>
   1e1c8:	00078463          	beqz	a5,1e1d0 <_read_r+0x3c>
   1e1cc:	00f4a023          	sw	a5,0(s1)
   1e1d0:	00c12083          	lw	ra,12(sp)
   1e1d4:	00812403          	lw	s0,8(sp)
   1e1d8:	00412483          	lw	s1,4(sp)
   1e1dc:	01010113          	addi	sp,sp,16
   1e1e0:	00008067          	ret

0001e1e4 <cleanup_glue>:
   1e1e4:	ff010113          	addi	sp,sp,-16
   1e1e8:	00812423          	sw	s0,8(sp)
   1e1ec:	00058413          	mv	s0,a1
   1e1f0:	0005a583          	lw	a1,0(a1)
   1e1f4:	00912223          	sw	s1,4(sp)
   1e1f8:	00112623          	sw	ra,12(sp)
   1e1fc:	00050493          	mv	s1,a0
   1e200:	00058463          	beqz	a1,1e208 <cleanup_glue+0x24>
   1e204:	fe1ff0ef          	jal	ra,1e1e4 <cleanup_glue>
   1e208:	00040593          	mv	a1,s0
   1e20c:	00812403          	lw	s0,8(sp)
   1e210:	00c12083          	lw	ra,12(sp)
   1e214:	00048513          	mv	a0,s1
   1e218:	00412483          	lw	s1,4(sp)
   1e21c:	01010113          	addi	sp,sp,16
   1e220:	8fcf806f          	j	1631c <_free_r>

0001e224 <_reclaim_reent>:
   1e224:	8301a783          	lw	a5,-2000(gp) # 25aa0 <_impure_ptr>
   1e228:	10a78463          	beq	a5,a0,1e330 <_reclaim_reent+0x10c>
   1e22c:	04c52783          	lw	a5,76(a0)
   1e230:	fe010113          	addi	sp,sp,-32
   1e234:	00812c23          	sw	s0,24(sp)
   1e238:	00912a23          	sw	s1,20(sp)
   1e23c:	01212823          	sw	s2,16(sp)
   1e240:	00112e23          	sw	ra,28(sp)
   1e244:	01312623          	sw	s3,12(sp)
   1e248:	00050413          	mv	s0,a0
   1e24c:	00000493          	li	s1,0
   1e250:	08000913          	li	s2,128
   1e254:	06079a63          	bnez	a5,1e2c8 <_reclaim_reent+0xa4>
   1e258:	04042583          	lw	a1,64(s0)
   1e25c:	00058663          	beqz	a1,1e268 <_reclaim_reent+0x44>
   1e260:	00040513          	mv	a0,s0
   1e264:	8b8f80ef          	jal	ra,1631c <_free_r>
   1e268:	14842583          	lw	a1,328(s0)
   1e26c:	14c40493          	addi	s1,s0,332
   1e270:	08059063          	bnez	a1,1e2f0 <_reclaim_reent+0xcc>
   1e274:	05442583          	lw	a1,84(s0)
   1e278:	08059863          	bnez	a1,1e308 <_reclaim_reent+0xe4>
   1e27c:	03842783          	lw	a5,56(s0)
   1e280:	08078a63          	beqz	a5,1e314 <_reclaim_reent+0xf0>
   1e284:	03c42783          	lw	a5,60(s0)
   1e288:	00040513          	mv	a0,s0
   1e28c:	000780e7          	jalr	a5 # 2000 <main-0xe074>
   1e290:	2e042583          	lw	a1,736(s0)
   1e294:	08058063          	beqz	a1,1e314 <_reclaim_reent+0xf0>
   1e298:	00040513          	mv	a0,s0
   1e29c:	01812403          	lw	s0,24(sp)
   1e2a0:	01c12083          	lw	ra,28(sp)
   1e2a4:	01412483          	lw	s1,20(sp)
   1e2a8:	01012903          	lw	s2,16(sp)
   1e2ac:	00c12983          	lw	s3,12(sp)
   1e2b0:	02010113          	addi	sp,sp,32
   1e2b4:	f31ff06f          	j	1e1e4 <cleanup_glue>
   1e2b8:	009585b3          	add	a1,a1,s1
   1e2bc:	0005a583          	lw	a1,0(a1)
   1e2c0:	00059e63          	bnez	a1,1e2dc <_reclaim_reent+0xb8>
   1e2c4:	00448493          	addi	s1,s1,4
   1e2c8:	04c42583          	lw	a1,76(s0)
   1e2cc:	ff2496e3          	bne	s1,s2,1e2b8 <_reclaim_reent+0x94>
   1e2d0:	00040513          	mv	a0,s0
   1e2d4:	848f80ef          	jal	ra,1631c <_free_r>
   1e2d8:	f81ff06f          	j	1e258 <_reclaim_reent+0x34>
   1e2dc:	0005a983          	lw	s3,0(a1)
   1e2e0:	00040513          	mv	a0,s0
   1e2e4:	838f80ef          	jal	ra,1631c <_free_r>
   1e2e8:	00098593          	mv	a1,s3
   1e2ec:	fd5ff06f          	j	1e2c0 <_reclaim_reent+0x9c>
   1e2f0:	f89582e3          	beq	a1,s1,1e274 <_reclaim_reent+0x50>
   1e2f4:	0005a903          	lw	s2,0(a1)
   1e2f8:	00040513          	mv	a0,s0
   1e2fc:	820f80ef          	jal	ra,1631c <_free_r>
   1e300:	00090593          	mv	a1,s2
   1e304:	fedff06f          	j	1e2f0 <_reclaim_reent+0xcc>
   1e308:	00040513          	mv	a0,s0
   1e30c:	810f80ef          	jal	ra,1631c <_free_r>
   1e310:	f6dff06f          	j	1e27c <_reclaim_reent+0x58>
   1e314:	01c12083          	lw	ra,28(sp)
   1e318:	01812403          	lw	s0,24(sp)
   1e31c:	01412483          	lw	s1,20(sp)
   1e320:	01012903          	lw	s2,16(sp)
   1e324:	00c12983          	lw	s3,12(sp)
   1e328:	02010113          	addi	sp,sp,32
   1e32c:	00008067          	ret
   1e330:	00008067          	ret

0001e334 <__ssprint_r>:
   1e334:	00862783          	lw	a5,8(a2)
   1e338:	fd010113          	addi	sp,sp,-48
   1e33c:	01312e23          	sw	s3,28(sp)
   1e340:	02112623          	sw	ra,44(sp)
   1e344:	02812423          	sw	s0,40(sp)
   1e348:	02912223          	sw	s1,36(sp)
   1e34c:	03212023          	sw	s2,32(sp)
   1e350:	01412c23          	sw	s4,24(sp)
   1e354:	01512a23          	sw	s5,20(sp)
   1e358:	01612823          	sw	s6,16(sp)
   1e35c:	01712623          	sw	s7,12(sp)
   1e360:	01812423          	sw	s8,8(sp)
   1e364:	00060993          	mv	s3,a2
   1e368:	12078663          	beqz	a5,1e494 <__ssprint_r+0x160>
   1e36c:	00062b03          	lw	s6,0(a2)
   1e370:	00050a93          	mv	s5,a0
   1e374:	00058413          	mv	s0,a1
   1e378:	00000b93          	li	s7,0
   1e37c:	00000913          	li	s2,0
   1e380:	08090663          	beqz	s2,1e40c <__ssprint_r+0xd8>
   1e384:	00842a03          	lw	s4,8(s0)
   1e388:	0d496663          	bltu	s2,s4,1e454 <__ssprint_r+0x120>
   1e38c:	00c45783          	lhu	a5,12(s0)
   1e390:	4807f713          	andi	a4,a5,1152
   1e394:	0c070063          	beqz	a4,1e454 <__ssprint_r+0x120>
   1e398:	00042483          	lw	s1,0(s0)
   1e39c:	01442703          	lw	a4,20(s0)
   1e3a0:	01042583          	lw	a1,16(s0)
   1e3a4:	40b48c33          	sub	s8,s1,a1
   1e3a8:	00171493          	slli	s1,a4,0x1
   1e3ac:	00e48733          	add	a4,s1,a4
   1e3b0:	01f75493          	srli	s1,a4,0x1f
   1e3b4:	00e484b3          	add	s1,s1,a4
   1e3b8:	001c0713          	addi	a4,s8,1
   1e3bc:	4014d493          	srai	s1,s1,0x1
   1e3c0:	01270733          	add	a4,a4,s2
   1e3c4:	00e4f463          	bleu	a4,s1,1e3cc <__ssprint_r+0x98>
   1e3c8:	00070493          	mv	s1,a4
   1e3cc:	4007f793          	andi	a5,a5,1024
   1e3d0:	0e078e63          	beqz	a5,1e4cc <__ssprint_r+0x198>
   1e3d4:	00048593          	mv	a1,s1
   1e3d8:	000a8513          	mv	a0,s5
   1e3dc:	985fa0ef          	jal	ra,18d60 <_malloc_r>
   1e3e0:	00050a13          	mv	s4,a0
   1e3e4:	02051c63          	bnez	a0,1e41c <__ssprint_r+0xe8>
   1e3e8:	00c00793          	li	a5,12
   1e3ec:	00faa023          	sw	a5,0(s5)
   1e3f0:	00c45783          	lhu	a5,12(s0)
   1e3f4:	fff00513          	li	a0,-1
   1e3f8:	0407e793          	ori	a5,a5,64
   1e3fc:	00f41623          	sh	a5,12(s0)
   1e400:	0009a423          	sw	zero,8(s3)
   1e404:	0009a223          	sw	zero,4(s3)
   1e408:	0940006f          	j	1e49c <__ssprint_r+0x168>
   1e40c:	000b2b83          	lw	s7,0(s6)
   1e410:	004b2903          	lw	s2,4(s6)
   1e414:	008b0b13          	addi	s6,s6,8
   1e418:	f69ff06f          	j	1e380 <__ssprint_r+0x4c>
   1e41c:	01042583          	lw	a1,16(s0)
   1e420:	000c0613          	mv	a2,s8
   1e424:	838fb0ef          	jal	ra,1945c <memcpy>
   1e428:	00c45783          	lhu	a5,12(s0)
   1e42c:	b7f7f793          	andi	a5,a5,-1153
   1e430:	0807e793          	ori	a5,a5,128
   1e434:	00f41623          	sh	a5,12(s0)
   1e438:	01442823          	sw	s4,16(s0)
   1e43c:	00942a23          	sw	s1,20(s0)
   1e440:	018a0a33          	add	s4,s4,s8
   1e444:	418484b3          	sub	s1,s1,s8
   1e448:	01442023          	sw	s4,0(s0)
   1e44c:	00942423          	sw	s1,8(s0)
   1e450:	00090a13          	mv	s4,s2
   1e454:	01497463          	bleu	s4,s2,1e45c <__ssprint_r+0x128>
   1e458:	00090a13          	mv	s4,s2
   1e45c:	00042503          	lw	a0,0(s0)
   1e460:	000a0613          	mv	a2,s4
   1e464:	000b8593          	mv	a1,s7
   1e468:	8ccfb0ef          	jal	ra,19534 <memmove>
   1e46c:	00842783          	lw	a5,8(s0)
   1e470:	414787b3          	sub	a5,a5,s4
   1e474:	00f42423          	sw	a5,8(s0)
   1e478:	00042783          	lw	a5,0(s0)
   1e47c:	01478a33          	add	s4,a5,s4
   1e480:	0089a783          	lw	a5,8(s3)
   1e484:	01442023          	sw	s4,0(s0)
   1e488:	41278933          	sub	s2,a5,s2
   1e48c:	0129a423          	sw	s2,8(s3)
   1e490:	f6091ee3          	bnez	s2,1e40c <__ssprint_r+0xd8>
   1e494:	0009a223          	sw	zero,4(s3)
   1e498:	00000513          	li	a0,0
   1e49c:	02c12083          	lw	ra,44(sp)
   1e4a0:	02812403          	lw	s0,40(sp)
   1e4a4:	02412483          	lw	s1,36(sp)
   1e4a8:	02012903          	lw	s2,32(sp)
   1e4ac:	01c12983          	lw	s3,28(sp)
   1e4b0:	01812a03          	lw	s4,24(sp)
   1e4b4:	01412a83          	lw	s5,20(sp)
   1e4b8:	01012b03          	lw	s6,16(sp)
   1e4bc:	00c12b83          	lw	s7,12(sp)
   1e4c0:	00812c03          	lw	s8,8(sp)
   1e4c4:	03010113          	addi	sp,sp,48
   1e4c8:	00008067          	ret
   1e4cc:	00048613          	mv	a2,s1
   1e4d0:	000a8513          	mv	a0,s5
   1e4d4:	fedfb0ef          	jal	ra,1a4c0 <_realloc_r>
   1e4d8:	00050a13          	mv	s4,a0
   1e4dc:	f4051ee3          	bnez	a0,1e438 <__ssprint_r+0x104>
   1e4e0:	01042583          	lw	a1,16(s0)
   1e4e4:	000a8513          	mv	a0,s5
   1e4e8:	e35f70ef          	jal	ra,1631c <_free_r>
   1e4ec:	efdff06f          	j	1e3e8 <__ssprint_r+0xb4>

0001e4f0 <_svfiprintf_r>:
   1e4f0:	00c5d783          	lhu	a5,12(a1)
   1e4f4:	ed010113          	addi	sp,sp,-304
   1e4f8:	12812423          	sw	s0,296(sp)
   1e4fc:	13212023          	sw	s2,288(sp)
   1e500:	11312e23          	sw	s3,284(sp)
   1e504:	11612823          	sw	s6,272(sp)
   1e508:	12112623          	sw	ra,300(sp)
   1e50c:	12912223          	sw	s1,292(sp)
   1e510:	11412c23          	sw	s4,280(sp)
   1e514:	11512a23          	sw	s5,276(sp)
   1e518:	11712623          	sw	s7,268(sp)
   1e51c:	11812423          	sw	s8,264(sp)
   1e520:	11912223          	sw	s9,260(sp)
   1e524:	11a12023          	sw	s10,256(sp)
   1e528:	0fb12e23          	sw	s11,252(sp)
   1e52c:	0807f793          	andi	a5,a5,128
   1e530:	00050993          	mv	s3,a0
   1e534:	00058913          	mv	s2,a1
   1e538:	00060b13          	mv	s6,a2
   1e53c:	00068413          	mv	s0,a3
   1e540:	02078c63          	beqz	a5,1e578 <_svfiprintf_r+0x88>
   1e544:	0105a783          	lw	a5,16(a1)
   1e548:	02079863          	bnez	a5,1e578 <_svfiprintf_r+0x88>
   1e54c:	04000593          	li	a1,64
   1e550:	811fa0ef          	jal	ra,18d60 <_malloc_r>
   1e554:	00a92023          	sw	a0,0(s2)
   1e558:	00a92823          	sw	a0,16(s2)
   1e55c:	00051a63          	bnez	a0,1e570 <_svfiprintf_r+0x80>
   1e560:	00c00793          	li	a5,12
   1e564:	00f9a023          	sw	a5,0(s3)
   1e568:	fff00c13          	li	s8,-1
   1e56c:	2fd0006f          	j	1f068 <_svfiprintf_r+0xb78>
   1e570:	04000793          	li	a5,64
   1e574:	00f92a23          	sw	a5,20(s2)
   1e578:	000257b7          	lui	a5,0x25
   1e57c:	cb478793          	addi	a5,a5,-844 # 24cb4 <_ctype_+0x104>
   1e580:	02f12423          	sw	a5,40(sp)
   1e584:	000257b7          	lui	a5,0x25
   1e588:	e3078793          	addi	a5,a5,-464 # 24e30 <zeroes.4476>
   1e58c:	00f12a23          	sw	a5,20(sp)
   1e590:	000257b7          	lui	a5,0x25
   1e594:	04c10b93          	addi	s7,sp,76
   1e598:	e2078793          	addi	a5,a5,-480 # 24e20 <blanks.4475>
   1e59c:	05712023          	sw	s7,64(sp)
   1e5a0:	04012423          	sw	zero,72(sp)
   1e5a4:	04012223          	sw	zero,68(sp)
   1e5a8:	000b8d93          	mv	s11,s7
   1e5ac:	00012823          	sw	zero,16(sp)
   1e5b0:	00012423          	sw	zero,8(sp)
   1e5b4:	00012623          	sw	zero,12(sp)
   1e5b8:	00012e23          	sw	zero,28(sp)
   1e5bc:	00000c13          	li	s8,0
   1e5c0:	00f12c23          	sw	a5,24(sp)
   1e5c4:	000b0493          	mv	s1,s6
   1e5c8:	02500713          	li	a4,37
   1e5cc:	0004c783          	lbu	a5,0(s1)
   1e5d0:	00078463          	beqz	a5,1e5d8 <_svfiprintf_r+0xe8>
   1e5d4:	0ae79063          	bne	a5,a4,1e674 <_svfiprintf_r+0x184>
   1e5d8:	41648a33          	sub	s4,s1,s6
   1e5dc:	040a0663          	beqz	s4,1e628 <_svfiprintf_r+0x138>
   1e5e0:	04812783          	lw	a5,72(sp)
   1e5e4:	016da023          	sw	s6,0(s11)
   1e5e8:	014da223          	sw	s4,4(s11)
   1e5ec:	014787b3          	add	a5,a5,s4
   1e5f0:	04f12423          	sw	a5,72(sp)
   1e5f4:	04412783          	lw	a5,68(sp)
   1e5f8:	00700713          	li	a4,7
   1e5fc:	008d8d93          	addi	s11,s11,8
   1e600:	00178793          	addi	a5,a5,1
   1e604:	04f12223          	sw	a5,68(sp)
   1e608:	00f75e63          	ble	a5,a4,1e624 <_svfiprintf_r+0x134>
   1e60c:	04010613          	addi	a2,sp,64
   1e610:	00090593          	mv	a1,s2
   1e614:	00098513          	mv	a0,s3
   1e618:	d1dff0ef          	jal	ra,1e334 <__ssprint_r>
   1e61c:	240510e3          	bnez	a0,1f05c <_svfiprintf_r+0xb6c>
   1e620:	000b8d93          	mv	s11,s7
   1e624:	014c0c33          	add	s8,s8,s4
   1e628:	0004c783          	lbu	a5,0(s1)
   1e62c:	2a078ae3          	beqz	a5,1f0e0 <_svfiprintf_r+0xbf0>
   1e630:	00148713          	addi	a4,s1,1
   1e634:	02010da3          	sb	zero,59(sp)
   1e638:	fff00493          	li	s1,-1
   1e63c:	00000a93          	li	s5,0
   1e640:	00000d13          	li	s10,0
   1e644:	00900a13          	li	s4,9
   1e648:	02a00c93          	li	s9,42
   1e64c:	00074603          	lbu	a2,0(a4)
   1e650:	00170b13          	addi	s6,a4,1
   1e654:	05a00593          	li	a1,90
   1e658:	fe060713          	addi	a4,a2,-32
   1e65c:	0ce5e2e3          	bltu	a1,a4,1ef20 <_svfiprintf_r+0xa30>
   1e660:	02812783          	lw	a5,40(sp)
   1e664:	00271713          	slli	a4,a4,0x2
   1e668:	00f70733          	add	a4,a4,a5
   1e66c:	00072703          	lw	a4,0(a4)
   1e670:	00070067          	jr	a4
   1e674:	00148493          	addi	s1,s1,1
   1e678:	f55ff06f          	j	1e5cc <_svfiprintf_r+0xdc>
   1e67c:	00024737          	lui	a4,0x24
   1e680:	4bc70793          	addi	a5,a4,1212 # 244bc <zeroes.4514+0x20>
   1e684:	00f12823          	sw	a5,16(sp)
   1e688:	020d7713          	andi	a4,s10,32
   1e68c:	6a070463          	beqz	a4,1ed34 <_svfiprintf_r+0x844>
   1e690:	00740413          	addi	s0,s0,7
   1e694:	ff847413          	andi	s0,s0,-8
   1e698:	00042703          	lw	a4,0(s0)
   1e69c:	00442a03          	lw	s4,4(s0)
   1e6a0:	00840c93          	addi	s9,s0,8
   1e6a4:	001d7693          	andi	a3,s10,1
   1e6a8:	00068e63          	beqz	a3,1e6c4 <_svfiprintf_r+0x1d4>
   1e6ac:	014766b3          	or	a3,a4,s4
   1e6b0:	00068a63          	beqz	a3,1e6c4 <_svfiprintf_r+0x1d4>
   1e6b4:	03000693          	li	a3,48
   1e6b8:	02d10e23          	sb	a3,60(sp)
   1e6bc:	02c10ea3          	sb	a2,61(sp)
   1e6c0:	002d6d13          	ori	s10,s10,2
   1e6c4:	bffd7d13          	andi	s10,s10,-1025
   1e6c8:	30c0006f          	j	1e9d4 <_svfiprintf_r+0x4e4>
   1e6cc:	00098513          	mv	a0,s3
   1e6d0:	c08fa0ef          	jal	ra,18ad8 <_localeconv_r>
   1e6d4:	00452783          	lw	a5,4(a0)
   1e6d8:	00078513          	mv	a0,a5
   1e6dc:	00f12e23          	sw	a5,28(sp)
   1e6e0:	94cf50ef          	jal	ra,1382c <strlen>
   1e6e4:	00a12623          	sw	a0,12(sp)
   1e6e8:	00098513          	mv	a0,s3
   1e6ec:	becfa0ef          	jal	ra,18ad8 <_localeconv_r>
   1e6f0:	00852783          	lw	a5,8(a0)
   1e6f4:	00f12423          	sw	a5,8(sp)
   1e6f8:	00c12783          	lw	a5,12(sp)
   1e6fc:	00078c63          	beqz	a5,1e714 <_svfiprintf_r+0x224>
   1e700:	00812783          	lw	a5,8(sp)
   1e704:	00078863          	beqz	a5,1e714 <_svfiprintf_r+0x224>
   1e708:	0007c703          	lbu	a4,0(a5)
   1e70c:	00070463          	beqz	a4,1e714 <_svfiprintf_r+0x224>
   1e710:	400d6d13          	ori	s10,s10,1024
   1e714:	000b0713          	mv	a4,s6
   1e718:	f35ff06f          	j	1e64c <_svfiprintf_r+0x15c>
   1e71c:	03b14703          	lbu	a4,59(sp)
   1e720:	fe071ae3          	bnez	a4,1e714 <_svfiprintf_r+0x224>
   1e724:	02000713          	li	a4,32
   1e728:	02e10da3          	sb	a4,59(sp)
   1e72c:	fe9ff06f          	j	1e714 <_svfiprintf_r+0x224>
   1e730:	001d6d13          	ori	s10,s10,1
   1e734:	fe1ff06f          	j	1e714 <_svfiprintf_r+0x224>
   1e738:	00042a83          	lw	s5,0(s0)
   1e73c:	00440413          	addi	s0,s0,4
   1e740:	fc0adae3          	bgez	s5,1e714 <_svfiprintf_r+0x224>
   1e744:	41500ab3          	neg	s5,s5
   1e748:	004d6d13          	ori	s10,s10,4
   1e74c:	fc9ff06f          	j	1e714 <_svfiprintf_r+0x224>
   1e750:	02b00713          	li	a4,43
   1e754:	fd5ff06f          	j	1e728 <_svfiprintf_r+0x238>
   1e758:	000b4603          	lbu	a2,0(s6)
   1e75c:	001b0713          	addi	a4,s6,1
   1e760:	05961463          	bne	a2,s9,1e7a8 <_svfiprintf_r+0x2b8>
   1e764:	00042483          	lw	s1,0(s0)
   1e768:	00440693          	addi	a3,s0,4
   1e76c:	0004d463          	bgez	s1,1e774 <_svfiprintf_r+0x284>
   1e770:	fff00493          	li	s1,-1
   1e774:	00068413          	mv	s0,a3
   1e778:	00070b13          	mv	s6,a4
   1e77c:	f99ff06f          	j	1e714 <_svfiprintf_r+0x224>
   1e780:	00249693          	slli	a3,s1,0x2
   1e784:	00170713          	addi	a4,a4,1
   1e788:	009684b3          	add	s1,a3,s1
   1e78c:	fff74603          	lbu	a2,-1(a4)
   1e790:	00149493          	slli	s1,s1,0x1
   1e794:	00a484b3          	add	s1,s1,a0
   1e798:	fd060513          	addi	a0,a2,-48
   1e79c:	feaa72e3          	bleu	a0,s4,1e780 <_svfiprintf_r+0x290>
   1e7a0:	00070b13          	mv	s6,a4
   1e7a4:	eb5ff06f          	j	1e658 <_svfiprintf_r+0x168>
   1e7a8:	00000493          	li	s1,0
   1e7ac:	fedff06f          	j	1e798 <_svfiprintf_r+0x2a8>
   1e7b0:	080d6d13          	ori	s10,s10,128
   1e7b4:	f61ff06f          	j	1e714 <_svfiprintf_r+0x224>
   1e7b8:	000b0713          	mv	a4,s6
   1e7bc:	00000a93          	li	s5,0
   1e7c0:	002a9693          	slli	a3,s5,0x2
   1e7c4:	01568ab3          	add	s5,a3,s5
   1e7c8:	fd060613          	addi	a2,a2,-48
   1e7cc:	001a9a93          	slli	s5,s5,0x1
   1e7d0:	00170713          	addi	a4,a4,1
   1e7d4:	01560ab3          	add	s5,a2,s5
   1e7d8:	fff74603          	lbu	a2,-1(a4)
   1e7dc:	fd060693          	addi	a3,a2,-48
   1e7e0:	feda70e3          	bleu	a3,s4,1e7c0 <_svfiprintf_r+0x2d0>
   1e7e4:	fbdff06f          	j	1e7a0 <_svfiprintf_r+0x2b0>
   1e7e8:	000b4683          	lbu	a3,0(s6)
   1e7ec:	06800713          	li	a4,104
   1e7f0:	00e69863          	bne	a3,a4,1e800 <_svfiprintf_r+0x310>
   1e7f4:	001b0b13          	addi	s6,s6,1
   1e7f8:	200d6d13          	ori	s10,s10,512
   1e7fc:	f19ff06f          	j	1e714 <_svfiprintf_r+0x224>
   1e800:	040d6d13          	ori	s10,s10,64
   1e804:	f11ff06f          	j	1e714 <_svfiprintf_r+0x224>
   1e808:	000b4683          	lbu	a3,0(s6)
   1e80c:	06c00713          	li	a4,108
   1e810:	00e69863          	bne	a3,a4,1e820 <_svfiprintf_r+0x330>
   1e814:	001b0b13          	addi	s6,s6,1
   1e818:	020d6d13          	ori	s10,s10,32
   1e81c:	ef9ff06f          	j	1e714 <_svfiprintf_r+0x224>
   1e820:	010d6d13          	ori	s10,s10,16
   1e824:	ef1ff06f          	j	1e714 <_svfiprintf_r+0x224>
   1e828:	00042703          	lw	a4,0(s0)
   1e82c:	00440c93          	addi	s9,s0,4
   1e830:	02010da3          	sb	zero,59(sp)
   1e834:	08e10623          	sb	a4,140(sp)
   1e838:	00100493          	li	s1,1
   1e83c:	00000a13          	li	s4,0
   1e840:	08c10413          	addi	s0,sp,140
   1e844:	1c80006f          	j	1ea0c <_svfiprintf_r+0x51c>
   1e848:	010d6d13          	ori	s10,s10,16
   1e84c:	020d7713          	andi	a4,s10,32
   1e850:	06070063          	beqz	a4,1e8b0 <_svfiprintf_r+0x3c0>
   1e854:	00740413          	addi	s0,s0,7
   1e858:	ff847413          	andi	s0,s0,-8
   1e85c:	00042703          	lw	a4,0(s0)
   1e860:	00442a03          	lw	s4,4(s0)
   1e864:	00840c93          	addi	s9,s0,8
   1e868:	080a5ae3          	bgez	s4,1f0fc <_svfiprintf_r+0xc0c>
   1e86c:	40e00733          	neg	a4,a4
   1e870:	00e036b3          	snez	a3,a4
   1e874:	414008b3          	neg	a7,s4
   1e878:	40d88a33          	sub	s4,a7,a3
   1e87c:	02d00693          	li	a3,45
   1e880:	02d10da3          	sb	a3,59(sp)
   1e884:	00100693          	li	a3,1
   1e888:	fff00613          	li	a2,-1
   1e88c:	4ec48663          	beq	s1,a2,1ed78 <_svfiprintf_r+0x888>
   1e890:	000d0613          	mv	a2,s10
   1e894:	014765b3          	or	a1,a4,s4
   1e898:	f7fd7d13          	andi	s10,s10,-129
   1e89c:	4c059e63          	bnez	a1,1ed78 <_svfiprintf_r+0x888>
   1e8a0:	66048463          	beqz	s1,1ef08 <_svfiprintf_r+0xa18>
   1e8a4:	00100613          	li	a2,1
   1e8a8:	4cc69c63          	bne	a3,a2,1ed80 <_svfiprintf_r+0x890>
   1e8ac:	0650006f          	j	1f110 <_svfiprintf_r+0xc20>
   1e8b0:	010d7713          	andi	a4,s10,16
   1e8b4:	00440c93          	addi	s9,s0,4
   1e8b8:	00070863          	beqz	a4,1e8c8 <_svfiprintf_r+0x3d8>
   1e8bc:	00042703          	lw	a4,0(s0)
   1e8c0:	41f75a13          	srai	s4,a4,0x1f
   1e8c4:	fa5ff06f          	j	1e868 <_svfiprintf_r+0x378>
   1e8c8:	040d7693          	andi	a3,s10,64
   1e8cc:	00042703          	lw	a4,0(s0)
   1e8d0:	00068863          	beqz	a3,1e8e0 <_svfiprintf_r+0x3f0>
   1e8d4:	01071713          	slli	a4,a4,0x10
   1e8d8:	41075713          	srai	a4,a4,0x10
   1e8dc:	fe5ff06f          	j	1e8c0 <_svfiprintf_r+0x3d0>
   1e8e0:	200d7693          	andi	a3,s10,512
   1e8e4:	fc068ee3          	beqz	a3,1e8c0 <_svfiprintf_r+0x3d0>
   1e8e8:	01871713          	slli	a4,a4,0x18
   1e8ec:	41875713          	srai	a4,a4,0x18
   1e8f0:	fd1ff06f          	j	1e8c0 <_svfiprintf_r+0x3d0>
   1e8f4:	020d7693          	andi	a3,s10,32
   1e8f8:	00042703          	lw	a4,0(s0)
   1e8fc:	00440413          	addi	s0,s0,4
   1e900:	00068a63          	beqz	a3,1e914 <_svfiprintf_r+0x424>
   1e904:	41fc5793          	srai	a5,s8,0x1f
   1e908:	01872023          	sw	s8,0(a4)
   1e90c:	00f72223          	sw	a5,4(a4)
   1e910:	cb5ff06f          	j	1e5c4 <_svfiprintf_r+0xd4>
   1e914:	010d7693          	andi	a3,s10,16
   1e918:	00068663          	beqz	a3,1e924 <_svfiprintf_r+0x434>
   1e91c:	01872023          	sw	s8,0(a4)
   1e920:	ca5ff06f          	j	1e5c4 <_svfiprintf_r+0xd4>
   1e924:	040d7693          	andi	a3,s10,64
   1e928:	00068663          	beqz	a3,1e934 <_svfiprintf_r+0x444>
   1e92c:	01871023          	sh	s8,0(a4)
   1e930:	c95ff06f          	j	1e5c4 <_svfiprintf_r+0xd4>
   1e934:	200d7793          	andi	a5,s10,512
   1e938:	fe0782e3          	beqz	a5,1e91c <_svfiprintf_r+0x42c>
   1e93c:	01870023          	sb	s8,0(a4)
   1e940:	c85ff06f          	j	1e5c4 <_svfiprintf_r+0xd4>
   1e944:	010d6d13          	ori	s10,s10,16
   1e948:	020d7713          	andi	a4,s10,32
   1e94c:	02070463          	beqz	a4,1e974 <_svfiprintf_r+0x484>
   1e950:	00740413          	addi	s0,s0,7
   1e954:	ff847413          	andi	s0,s0,-8
   1e958:	00042703          	lw	a4,0(s0)
   1e95c:	00442a03          	lw	s4,4(s0)
   1e960:	00840c93          	addi	s9,s0,8
   1e964:	bffd7d13          	andi	s10,s10,-1025
   1e968:	00000693          	li	a3,0
   1e96c:	02010da3          	sb	zero,59(sp)
   1e970:	f19ff06f          	j	1e888 <_svfiprintf_r+0x398>
   1e974:	010d7713          	andi	a4,s10,16
   1e978:	00440c93          	addi	s9,s0,4
   1e97c:	00070663          	beqz	a4,1e988 <_svfiprintf_r+0x498>
   1e980:	00042703          	lw	a4,0(s0)
   1e984:	0100006f          	j	1e994 <_svfiprintf_r+0x4a4>
   1e988:	040d7713          	andi	a4,s10,64
   1e98c:	00070863          	beqz	a4,1e99c <_svfiprintf_r+0x4ac>
   1e990:	00045703          	lhu	a4,0(s0)
   1e994:	00000a13          	li	s4,0
   1e998:	fcdff06f          	j	1e964 <_svfiprintf_r+0x474>
   1e99c:	200d7713          	andi	a4,s10,512
   1e9a0:	fe0700e3          	beqz	a4,1e980 <_svfiprintf_r+0x490>
   1e9a4:	00044703          	lbu	a4,0(s0)
   1e9a8:	fedff06f          	j	1e994 <_svfiprintf_r+0x4a4>
   1e9ac:	ffff86b7          	lui	a3,0xffff8
   1e9b0:	8306c693          	xori	a3,a3,-2000
   1e9b4:	02d11e23          	sh	a3,60(sp)
   1e9b8:	00042703          	lw	a4,0(s0)
   1e9bc:	000246b7          	lui	a3,0x24
   1e9c0:	4bc68793          	addi	a5,a3,1212 # 244bc <zeroes.4514+0x20>
   1e9c4:	00440c93          	addi	s9,s0,4
   1e9c8:	00000a13          	li	s4,0
   1e9cc:	002d6d13          	ori	s10,s10,2
   1e9d0:	00f12823          	sw	a5,16(sp)
   1e9d4:	00200693          	li	a3,2
   1e9d8:	f95ff06f          	j	1e96c <_svfiprintf_r+0x47c>
   1e9dc:	02010da3          	sb	zero,59(sp)
   1e9e0:	fff00713          	li	a4,-1
   1e9e4:	00440c93          	addi	s9,s0,4
   1e9e8:	00042403          	lw	s0,0(s0)
   1e9ec:	2ce48463          	beq	s1,a4,1ecb4 <_svfiprintf_r+0x7c4>
   1e9f0:	00048613          	mv	a2,s1
   1e9f4:	00000593          	li	a1,0
   1e9f8:	00040513          	mv	a0,s0
   1e9fc:	a3dfa0ef          	jal	ra,19438 <memchr>
   1ea00:	00000a13          	li	s4,0
   1ea04:	00050463          	beqz	a0,1ea0c <_svfiprintf_r+0x51c>
   1ea08:	408504b3          	sub	s1,a0,s0
   1ea0c:	01412223          	sw	s4,4(sp)
   1ea10:	009a5463          	ble	s1,s4,1ea18 <_svfiprintf_r+0x528>
   1ea14:	00912223          	sw	s1,4(sp)
   1ea18:	03b14703          	lbu	a4,59(sp)
   1ea1c:	00070863          	beqz	a4,1ea2c <_svfiprintf_r+0x53c>
   1ea20:	00412783          	lw	a5,4(sp)
   1ea24:	00178793          	addi	a5,a5,1
   1ea28:	00f12223          	sw	a5,4(sp)
   1ea2c:	002d7793          	andi	a5,s10,2
   1ea30:	02f12023          	sw	a5,32(sp)
   1ea34:	00078863          	beqz	a5,1ea44 <_svfiprintf_r+0x554>
   1ea38:	00412783          	lw	a5,4(sp)
   1ea3c:	00278793          	addi	a5,a5,2
   1ea40:	00f12223          	sw	a5,4(sp)
   1ea44:	084d7793          	andi	a5,s10,132
   1ea48:	02f12223          	sw	a5,36(sp)
   1ea4c:	06079463          	bnez	a5,1eab4 <_svfiprintf_r+0x5c4>
   1ea50:	00412783          	lw	a5,4(sp)
   1ea54:	40fa8733          	sub	a4,s5,a5
   1ea58:	04e05e63          	blez	a4,1eab4 <_svfiprintf_r+0x5c4>
   1ea5c:	01000893          	li	a7,16
   1ea60:	00700313          	li	t1,7
   1ea64:	01812783          	lw	a5,24(sp)
   1ea68:	04412683          	lw	a3,68(sp)
   1ea6c:	04812603          	lw	a2,72(sp)
   1ea70:	00fda023          	sw	a5,0(s11)
   1ea74:	00168693          	addi	a3,a3,1
   1ea78:	008d8593          	addi	a1,s11,8
   1ea7c:	4ae8cc63          	blt	a7,a4,1ef34 <_svfiprintf_r+0xa44>
   1ea80:	00eda223          	sw	a4,4(s11)
   1ea84:	00c70733          	add	a4,a4,a2
   1ea88:	04e12423          	sw	a4,72(sp)
   1ea8c:	04d12223          	sw	a3,68(sp)
   1ea90:	00700713          	li	a4,7
   1ea94:	00058d93          	mv	s11,a1
   1ea98:	00d75e63          	ble	a3,a4,1eab4 <_svfiprintf_r+0x5c4>
   1ea9c:	04010613          	addi	a2,sp,64
   1eaa0:	00090593          	mv	a1,s2
   1eaa4:	00098513          	mv	a0,s3
   1eaa8:	88dff0ef          	jal	ra,1e334 <__ssprint_r>
   1eaac:	5a051863          	bnez	a0,1f05c <_svfiprintf_r+0xb6c>
   1eab0:	000b8d93          	mv	s11,s7
   1eab4:	03b14703          	lbu	a4,59(sp)
   1eab8:	04070863          	beqz	a4,1eb08 <_svfiprintf_r+0x618>
   1eabc:	03b10693          	addi	a3,sp,59
   1eac0:	00dda023          	sw	a3,0(s11)
   1eac4:	00100693          	li	a3,1
   1eac8:	04412703          	lw	a4,68(sp)
   1eacc:	00dda223          	sw	a3,4(s11)
   1ead0:	04812683          	lw	a3,72(sp)
   1ead4:	00170713          	addi	a4,a4,1
   1ead8:	04e12223          	sw	a4,68(sp)
   1eadc:	00168693          	addi	a3,a3,1
   1eae0:	04d12423          	sw	a3,72(sp)
   1eae4:	00700693          	li	a3,7
   1eae8:	008d8d93          	addi	s11,s11,8
   1eaec:	00e6de63          	ble	a4,a3,1eb08 <_svfiprintf_r+0x618>
   1eaf0:	04010613          	addi	a2,sp,64
   1eaf4:	00090593          	mv	a1,s2
   1eaf8:	00098513          	mv	a0,s3
   1eafc:	839ff0ef          	jal	ra,1e334 <__ssprint_r>
   1eb00:	54051e63          	bnez	a0,1f05c <_svfiprintf_r+0xb6c>
   1eb04:	000b8d93          	mv	s11,s7
   1eb08:	02012783          	lw	a5,32(sp)
   1eb0c:	04078863          	beqz	a5,1eb5c <_svfiprintf_r+0x66c>
   1eb10:	03c10693          	addi	a3,sp,60
   1eb14:	00dda023          	sw	a3,0(s11)
   1eb18:	00200693          	li	a3,2
   1eb1c:	04412703          	lw	a4,68(sp)
   1eb20:	00dda223          	sw	a3,4(s11)
   1eb24:	04812683          	lw	a3,72(sp)
   1eb28:	00170713          	addi	a4,a4,1
   1eb2c:	04e12223          	sw	a4,68(sp)
   1eb30:	00268693          	addi	a3,a3,2
   1eb34:	04d12423          	sw	a3,72(sp)
   1eb38:	00700693          	li	a3,7
   1eb3c:	008d8d93          	addi	s11,s11,8
   1eb40:	00e6de63          	ble	a4,a3,1eb5c <_svfiprintf_r+0x66c>
   1eb44:	04010613          	addi	a2,sp,64
   1eb48:	00090593          	mv	a1,s2
   1eb4c:	00098513          	mv	a0,s3
   1eb50:	fe4ff0ef          	jal	ra,1e334 <__ssprint_r>
   1eb54:	50051463          	bnez	a0,1f05c <_svfiprintf_r+0xb6c>
   1eb58:	000b8d93          	mv	s11,s7
   1eb5c:	02412783          	lw	a5,36(sp)
   1eb60:	08000713          	li	a4,128
   1eb64:	06e79463          	bne	a5,a4,1ebcc <_svfiprintf_r+0x6dc>
   1eb68:	00412783          	lw	a5,4(sp)
   1eb6c:	40fa8733          	sub	a4,s5,a5
   1eb70:	04e05e63          	blez	a4,1ebcc <_svfiprintf_r+0x6dc>
   1eb74:	01000893          	li	a7,16
   1eb78:	00700313          	li	t1,7
   1eb7c:	01412783          	lw	a5,20(sp)
   1eb80:	04412683          	lw	a3,68(sp)
   1eb84:	04812603          	lw	a2,72(sp)
   1eb88:	00fda023          	sw	a5,0(s11)
   1eb8c:	00168693          	addi	a3,a3,1
   1eb90:	008d8593          	addi	a1,s11,8
   1eb94:	3ee8c463          	blt	a7,a4,1ef7c <_svfiprintf_r+0xa8c>
   1eb98:	00eda223          	sw	a4,4(s11)
   1eb9c:	00c70733          	add	a4,a4,a2
   1eba0:	04e12423          	sw	a4,72(sp)
   1eba4:	04d12223          	sw	a3,68(sp)
   1eba8:	00700713          	li	a4,7
   1ebac:	00058d93          	mv	s11,a1
   1ebb0:	00d75e63          	ble	a3,a4,1ebcc <_svfiprintf_r+0x6dc>
   1ebb4:	04010613          	addi	a2,sp,64
   1ebb8:	00090593          	mv	a1,s2
   1ebbc:	00098513          	mv	a0,s3
   1ebc0:	f74ff0ef          	jal	ra,1e334 <__ssprint_r>
   1ebc4:	48051c63          	bnez	a0,1f05c <_svfiprintf_r+0xb6c>
   1ebc8:	000b8d93          	mv	s11,s7
   1ebcc:	409a0a33          	sub	s4,s4,s1
   1ebd0:	05405e63          	blez	s4,1ec2c <_svfiprintf_r+0x73c>
   1ebd4:	01000893          	li	a7,16
   1ebd8:	00700313          	li	t1,7
   1ebdc:	01412783          	lw	a5,20(sp)
   1ebe0:	04412703          	lw	a4,68(sp)
   1ebe4:	04812683          	lw	a3,72(sp)
   1ebe8:	00fda023          	sw	a5,0(s11)
   1ebec:	00170713          	addi	a4,a4,1
   1ebf0:	008d8613          	addi	a2,s11,8
   1ebf4:	3d48c863          	blt	a7,s4,1efc4 <_svfiprintf_r+0xad4>
   1ebf8:	014da223          	sw	s4,4(s11)
   1ebfc:	00da0a33          	add	s4,s4,a3
   1ec00:	05412423          	sw	s4,72(sp)
   1ec04:	04e12223          	sw	a4,68(sp)
   1ec08:	00700693          	li	a3,7
   1ec0c:	00060d93          	mv	s11,a2
   1ec10:	00e6de63          	ble	a4,a3,1ec2c <_svfiprintf_r+0x73c>
   1ec14:	04010613          	addi	a2,sp,64
   1ec18:	00090593          	mv	a1,s2
   1ec1c:	00098513          	mv	a0,s3
   1ec20:	f14ff0ef          	jal	ra,1e334 <__ssprint_r>
   1ec24:	42051c63          	bnez	a0,1f05c <_svfiprintf_r+0xb6c>
   1ec28:	000b8d93          	mv	s11,s7
   1ec2c:	04812703          	lw	a4,72(sp)
   1ec30:	009da223          	sw	s1,4(s11)
   1ec34:	008da023          	sw	s0,0(s11)
   1ec38:	009704b3          	add	s1,a4,s1
   1ec3c:	04412703          	lw	a4,68(sp)
   1ec40:	04912423          	sw	s1,72(sp)
   1ec44:	00700693          	li	a3,7
   1ec48:	00170713          	addi	a4,a4,1
   1ec4c:	04e12223          	sw	a4,68(sp)
   1ec50:	008d8813          	addi	a6,s11,8
   1ec54:	00e6de63          	ble	a4,a3,1ec70 <_svfiprintf_r+0x780>
   1ec58:	04010613          	addi	a2,sp,64
   1ec5c:	00090593          	mv	a1,s2
   1ec60:	00098513          	mv	a0,s3
   1ec64:	ed0ff0ef          	jal	ra,1e334 <__ssprint_r>
   1ec68:	3e051a63          	bnez	a0,1f05c <_svfiprintf_r+0xb6c>
   1ec6c:	000b8813          	mv	a6,s7
   1ec70:	004d7793          	andi	a5,s10,4
   1ec74:	38079863          	bnez	a5,1f004 <_svfiprintf_r+0xb14>
   1ec78:	00412783          	lw	a5,4(sp)
   1ec7c:	00fad463          	ble	a5,s5,1ec84 <_svfiprintf_r+0x794>
   1ec80:	00078a93          	mv	s5,a5
   1ec84:	04812783          	lw	a5,72(sp)
   1ec88:	015c0c33          	add	s8,s8,s5
   1ec8c:	00078c63          	beqz	a5,1eca4 <_svfiprintf_r+0x7b4>
   1ec90:	04010613          	addi	a2,sp,64
   1ec94:	00090593          	mv	a1,s2
   1ec98:	00098513          	mv	a0,s3
   1ec9c:	e98ff0ef          	jal	ra,1e334 <__ssprint_r>
   1eca0:	3a051e63          	bnez	a0,1f05c <_svfiprintf_r+0xb6c>
   1eca4:	04012223          	sw	zero,68(sp)
   1eca8:	000c8413          	mv	s0,s9
   1ecac:	000b8d93          	mv	s11,s7
   1ecb0:	915ff06f          	j	1e5c4 <_svfiprintf_r+0xd4>
   1ecb4:	00040513          	mv	a0,s0
   1ecb8:	b75f40ef          	jal	ra,1382c <strlen>
   1ecbc:	00050493          	mv	s1,a0
   1ecc0:	00000a13          	li	s4,0
   1ecc4:	d49ff06f          	j	1ea0c <_svfiprintf_r+0x51c>
   1ecc8:	010d6d13          	ori	s10,s10,16
   1eccc:	020d7713          	andi	a4,s10,32
   1ecd0:	02070063          	beqz	a4,1ecf0 <_svfiprintf_r+0x800>
   1ecd4:	00740413          	addi	s0,s0,7
   1ecd8:	ff847413          	andi	s0,s0,-8
   1ecdc:	00042703          	lw	a4,0(s0)
   1ece0:	00442a03          	lw	s4,4(s0)
   1ece4:	00840c93          	addi	s9,s0,8
   1ece8:	00100693          	li	a3,1
   1ecec:	c81ff06f          	j	1e96c <_svfiprintf_r+0x47c>
   1ecf0:	010d7713          	andi	a4,s10,16
   1ecf4:	00440c93          	addi	s9,s0,4
   1ecf8:	00070663          	beqz	a4,1ed04 <_svfiprintf_r+0x814>
   1ecfc:	00042703          	lw	a4,0(s0)
   1ed00:	0100006f          	j	1ed10 <_svfiprintf_r+0x820>
   1ed04:	040d7713          	andi	a4,s10,64
   1ed08:	00070863          	beqz	a4,1ed18 <_svfiprintf_r+0x828>
   1ed0c:	00045703          	lhu	a4,0(s0)
   1ed10:	00000a13          	li	s4,0
   1ed14:	fd5ff06f          	j	1ece8 <_svfiprintf_r+0x7f8>
   1ed18:	200d7713          	andi	a4,s10,512
   1ed1c:	fe0700e3          	beqz	a4,1ecfc <_svfiprintf_r+0x80c>
   1ed20:	00044703          	lbu	a4,0(s0)
   1ed24:	fedff06f          	j	1ed10 <_svfiprintf_r+0x820>
   1ed28:	00024737          	lui	a4,0x24
   1ed2c:	4d070793          	addi	a5,a4,1232 # 244d0 <zeroes.4514+0x34>
   1ed30:	955ff06f          	j	1e684 <_svfiprintf_r+0x194>
   1ed34:	010d7713          	andi	a4,s10,16
   1ed38:	00440c93          	addi	s9,s0,4
   1ed3c:	00070663          	beqz	a4,1ed48 <_svfiprintf_r+0x858>
   1ed40:	00042703          	lw	a4,0(s0)
   1ed44:	0100006f          	j	1ed54 <_svfiprintf_r+0x864>
   1ed48:	040d7713          	andi	a4,s10,64
   1ed4c:	00070863          	beqz	a4,1ed5c <_svfiprintf_r+0x86c>
   1ed50:	00045703          	lhu	a4,0(s0)
   1ed54:	00000a13          	li	s4,0
   1ed58:	94dff06f          	j	1e6a4 <_svfiprintf_r+0x1b4>
   1ed5c:	200d7713          	andi	a4,s10,512
   1ed60:	fe0700e3          	beqz	a4,1ed40 <_svfiprintf_r+0x850>
   1ed64:	00044703          	lbu	a4,0(s0)
   1ed68:	fedff06f          	j	1ed54 <_svfiprintf_r+0x864>
   1ed6c:	000d0613          	mv	a2,s10
   1ed70:	00100693          	li	a3,1
   1ed74:	b21ff06f          	j	1e894 <_svfiprintf_r+0x3a4>
   1ed78:	00100613          	li	a2,1
   1ed7c:	38c68463          	beq	a3,a2,1f104 <_svfiprintf_r+0xc14>
   1ed80:	00200613          	li	a2,2
   1ed84:	14c68663          	beq	a3,a2,1eed0 <_svfiprintf_r+0x9e0>
   1ed88:	0f010693          	addi	a3,sp,240
   1ed8c:	01da1593          	slli	a1,s4,0x1d
   1ed90:	00777613          	andi	a2,a4,7
   1ed94:	00375713          	srli	a4,a4,0x3
   1ed98:	03060613          	addi	a2,a2,48
   1ed9c:	00e5e733          	or	a4,a1,a4
   1eda0:	003a5a13          	srli	s4,s4,0x3
   1eda4:	fec68fa3          	sb	a2,-1(a3)
   1eda8:	014765b3          	or	a1,a4,s4
   1edac:	fff68413          	addi	s0,a3,-1
   1edb0:	02059663          	bnez	a1,1eddc <_svfiprintf_r+0x8ec>
   1edb4:	001d7713          	andi	a4,s10,1
   1edb8:	00070a63          	beqz	a4,1edcc <_svfiprintf_r+0x8dc>
   1edbc:	03000713          	li	a4,48
   1edc0:	00e60663          	beq	a2,a4,1edcc <_svfiprintf_r+0x8dc>
   1edc4:	fee40fa3          	sb	a4,-1(s0)
   1edc8:	ffe68413          	addi	s0,a3,-2
   1edcc:	0f010793          	addi	a5,sp,240
   1edd0:	00048a13          	mv	s4,s1
   1edd4:	408784b3          	sub	s1,a5,s0
   1edd8:	c35ff06f          	j	1ea0c <_svfiprintf_r+0x51c>
   1eddc:	00040693          	mv	a3,s0
   1ede0:	fadff06f          	j	1ed8c <_svfiprintf_r+0x89c>
   1ede4:	400d7793          	andi	a5,s10,1024
   1ede8:	00000313          	li	t1,0
   1edec:	0f010e13          	addi	t3,sp,240
   1edf0:	00f12223          	sw	a5,4(sp)
   1edf4:	00070513          	mv	a0,a4
   1edf8:	00a00613          	li	a2,10
   1edfc:	00000693          	li	a3,0
   1ee00:	000a0593          	mv	a1,s4
   1ee04:	02612623          	sw	t1,44(sp)
   1ee08:	fffe0413          	addi	s0,t3,-1
   1ee0c:	03c12223          	sw	t3,36(sp)
   1ee10:	02e12023          	sw	a4,32(sp)
   1ee14:	5f1000ef          	jal	ra,1fc04 <__umoddi3>
   1ee18:	02412e03          	lw	t3,36(sp)
   1ee1c:	02c12303          	lw	t1,44(sp)
   1ee20:	00412783          	lw	a5,4(sp)
   1ee24:	03050513          	addi	a0,a0,48
   1ee28:	feae0fa3          	sb	a0,-1(t3)
   1ee2c:	00130313          	addi	t1,t1,1
   1ee30:	02012703          	lw	a4,32(sp)
   1ee34:	04078e63          	beqz	a5,1ee90 <_svfiprintf_r+0x9a0>
   1ee38:	00812783          	lw	a5,8(sp)
   1ee3c:	0007c683          	lbu	a3,0(a5)
   1ee40:	04669863          	bne	a3,t1,1ee90 <_svfiprintf_r+0x9a0>
   1ee44:	0ff00793          	li	a5,255
   1ee48:	04f30463          	beq	t1,a5,1ee90 <_svfiprintf_r+0x9a0>
   1ee4c:	000a1663          	bnez	s4,1ee58 <_svfiprintf_r+0x968>
   1ee50:	00900793          	li	a5,9
   1ee54:	02e7fe63          	bleu	a4,a5,1ee90 <_svfiprintf_r+0x9a0>
   1ee58:	00c12783          	lw	a5,12(sp)
   1ee5c:	01c12583          	lw	a1,28(sp)
   1ee60:	02e12023          	sw	a4,32(sp)
   1ee64:	40f40433          	sub	s0,s0,a5
   1ee68:	00078613          	mv	a2,a5
   1ee6c:	00040513          	mv	a0,s0
   1ee70:	848fc0ef          	jal	ra,1aeb8 <strncpy>
   1ee74:	00812783          	lw	a5,8(sp)
   1ee78:	00000313          	li	t1,0
   1ee7c:	02012703          	lw	a4,32(sp)
   1ee80:	0017c683          	lbu	a3,1(a5)
   1ee84:	00068663          	beqz	a3,1ee90 <_svfiprintf_r+0x9a0>
   1ee88:	00178793          	addi	a5,a5,1
   1ee8c:	00f12423          	sw	a5,8(sp)
   1ee90:	00070513          	mv	a0,a4
   1ee94:	00a00613          	li	a2,10
   1ee98:	00000693          	li	a3,0
   1ee9c:	000a0593          	mv	a1,s4
   1eea0:	02612223          	sw	t1,36(sp)
   1eea4:	02e12023          	sw	a4,32(sp)
   1eea8:	788000ef          	jal	ra,1f630 <__udivdi3>
   1eeac:	02012703          	lw	a4,32(sp)
   1eeb0:	02412303          	lw	t1,36(sp)
   1eeb4:	000a1663          	bnez	s4,1eec0 <_svfiprintf_r+0x9d0>
   1eeb8:	00900793          	li	a5,9
   1eebc:	f0e7f8e3          	bleu	a4,a5,1edcc <_svfiprintf_r+0x8dc>
   1eec0:	00050713          	mv	a4,a0
   1eec4:	00058a13          	mv	s4,a1
   1eec8:	00040e13          	mv	t3,s0
   1eecc:	f29ff06f          	j	1edf4 <_svfiprintf_r+0x904>
   1eed0:	0f010413          	addi	s0,sp,240
   1eed4:	01012783          	lw	a5,16(sp)
   1eed8:	00f77693          	andi	a3,a4,15
   1eedc:	fff40413          	addi	s0,s0,-1
   1eee0:	00d786b3          	add	a3,a5,a3
   1eee4:	0006c683          	lbu	a3,0(a3)
   1eee8:	00475713          	srli	a4,a4,0x4
   1eeec:	00d40023          	sb	a3,0(s0)
   1eef0:	01ca1693          	slli	a3,s4,0x1c
   1eef4:	00e6e733          	or	a4,a3,a4
   1eef8:	004a5a13          	srli	s4,s4,0x4
   1eefc:	014766b3          	or	a3,a4,s4
   1ef00:	fc069ae3          	bnez	a3,1eed4 <_svfiprintf_r+0x9e4>
   1ef04:	ec9ff06f          	j	1edcc <_svfiprintf_r+0x8dc>
   1ef08:	0f010413          	addi	s0,sp,240
   1ef0c:	ec0690e3          	bnez	a3,1edcc <_svfiprintf_r+0x8dc>
   1ef10:	00167613          	andi	a2,a2,1
   1ef14:	ea060ce3          	beqz	a2,1edcc <_svfiprintf_r+0x8dc>
   1ef18:	03000713          	li	a4,48
   1ef1c:	1f80006f          	j	1f114 <_svfiprintf_r+0xc24>
   1ef20:	1c060063          	beqz	a2,1f0e0 <_svfiprintf_r+0xbf0>
   1ef24:	08c10623          	sb	a2,140(sp)
   1ef28:	02010da3          	sb	zero,59(sp)
   1ef2c:	00040c93          	mv	s9,s0
   1ef30:	909ff06f          	j	1e838 <_svfiprintf_r+0x348>
   1ef34:	01060613          	addi	a2,a2,16
   1ef38:	011da223          	sw	a7,4(s11)
   1ef3c:	04c12423          	sw	a2,72(sp)
   1ef40:	04d12223          	sw	a3,68(sp)
   1ef44:	02d35663          	ble	a3,t1,1ef70 <_svfiprintf_r+0xa80>
   1ef48:	04010613          	addi	a2,sp,64
   1ef4c:	00090593          	mv	a1,s2
   1ef50:	00098513          	mv	a0,s3
   1ef54:	02e12623          	sw	a4,44(sp)
   1ef58:	bdcff0ef          	jal	ra,1e334 <__ssprint_r>
   1ef5c:	10051063          	bnez	a0,1f05c <_svfiprintf_r+0xb6c>
   1ef60:	02c12703          	lw	a4,44(sp)
   1ef64:	000b8593          	mv	a1,s7
   1ef68:	00700313          	li	t1,7
   1ef6c:	01000893          	li	a7,16
   1ef70:	ff070713          	addi	a4,a4,-16
   1ef74:	00058d93          	mv	s11,a1
   1ef78:	aedff06f          	j	1ea64 <_svfiprintf_r+0x574>
   1ef7c:	01060613          	addi	a2,a2,16
   1ef80:	011da223          	sw	a7,4(s11)
   1ef84:	04c12423          	sw	a2,72(sp)
   1ef88:	04d12223          	sw	a3,68(sp)
   1ef8c:	02d35663          	ble	a3,t1,1efb8 <_svfiprintf_r+0xac8>
   1ef90:	04010613          	addi	a2,sp,64
   1ef94:	00090593          	mv	a1,s2
   1ef98:	00098513          	mv	a0,s3
   1ef9c:	02e12023          	sw	a4,32(sp)
   1efa0:	b94ff0ef          	jal	ra,1e334 <__ssprint_r>
   1efa4:	0a051c63          	bnez	a0,1f05c <_svfiprintf_r+0xb6c>
   1efa8:	02012703          	lw	a4,32(sp)
   1efac:	000b8593          	mv	a1,s7
   1efb0:	00700313          	li	t1,7
   1efb4:	01000893          	li	a7,16
   1efb8:	ff070713          	addi	a4,a4,-16
   1efbc:	00058d93          	mv	s11,a1
   1efc0:	bbdff06f          	j	1eb7c <_svfiprintf_r+0x68c>
   1efc4:	01068693          	addi	a3,a3,16
   1efc8:	011da223          	sw	a7,4(s11)
   1efcc:	04d12423          	sw	a3,72(sp)
   1efd0:	04e12223          	sw	a4,68(sp)
   1efd4:	02e35263          	ble	a4,t1,1eff8 <_svfiprintf_r+0xb08>
   1efd8:	04010613          	addi	a2,sp,64
   1efdc:	00090593          	mv	a1,s2
   1efe0:	00098513          	mv	a0,s3
   1efe4:	b50ff0ef          	jal	ra,1e334 <__ssprint_r>
   1efe8:	06051a63          	bnez	a0,1f05c <_svfiprintf_r+0xb6c>
   1efec:	000b8613          	mv	a2,s7
   1eff0:	00700313          	li	t1,7
   1eff4:	01000893          	li	a7,16
   1eff8:	ff0a0a13          	addi	s4,s4,-16
   1effc:	00060d93          	mv	s11,a2
   1f000:	bddff06f          	j	1ebdc <_svfiprintf_r+0x6ec>
   1f004:	00412783          	lw	a5,4(sp)
   1f008:	40fa8433          	sub	s0,s5,a5
   1f00c:	c68056e3          	blez	s0,1ec78 <_svfiprintf_r+0x788>
   1f010:	01000493          	li	s1,16
   1f014:	00700a13          	li	s4,7
   1f018:	01812683          	lw	a3,24(sp)
   1f01c:	04412783          	lw	a5,68(sp)
   1f020:	04812703          	lw	a4,72(sp)
   1f024:	00d82023          	sw	a3,0(a6)
   1f028:	00178793          	addi	a5,a5,1
   1f02c:	0684ce63          	blt	s1,s0,1f0a8 <_svfiprintf_r+0xbb8>
   1f030:	00870733          	add	a4,a4,s0
   1f034:	04e12423          	sw	a4,72(sp)
   1f038:	00882223          	sw	s0,4(a6)
   1f03c:	04f12223          	sw	a5,68(sp)
   1f040:	00700713          	li	a4,7
   1f044:	c2f75ae3          	ble	a5,a4,1ec78 <_svfiprintf_r+0x788>
   1f048:	04010613          	addi	a2,sp,64
   1f04c:	00090593          	mv	a1,s2
   1f050:	00098513          	mv	a0,s3
   1f054:	ae0ff0ef          	jal	ra,1e334 <__ssprint_r>
   1f058:	c20500e3          	beqz	a0,1ec78 <_svfiprintf_r+0x788>
   1f05c:	00c95783          	lhu	a5,12(s2)
   1f060:	0407f793          	andi	a5,a5,64
   1f064:	d0079263          	bnez	a5,1e568 <_svfiprintf_r+0x78>
   1f068:	12c12083          	lw	ra,300(sp)
   1f06c:	12812403          	lw	s0,296(sp)
   1f070:	000c0513          	mv	a0,s8
   1f074:	12412483          	lw	s1,292(sp)
   1f078:	12012903          	lw	s2,288(sp)
   1f07c:	11c12983          	lw	s3,284(sp)
   1f080:	11812a03          	lw	s4,280(sp)
   1f084:	11412a83          	lw	s5,276(sp)
   1f088:	11012b03          	lw	s6,272(sp)
   1f08c:	10c12b83          	lw	s7,268(sp)
   1f090:	10812c03          	lw	s8,264(sp)
   1f094:	10412c83          	lw	s9,260(sp)
   1f098:	10012d03          	lw	s10,256(sp)
   1f09c:	0fc12d83          	lw	s11,252(sp)
   1f0a0:	13010113          	addi	sp,sp,304
   1f0a4:	00008067          	ret
   1f0a8:	01070713          	addi	a4,a4,16
   1f0ac:	00982223          	sw	s1,4(a6)
   1f0b0:	04e12423          	sw	a4,72(sp)
   1f0b4:	04f12223          	sw	a5,68(sp)
   1f0b8:	00880813          	addi	a6,a6,8
   1f0bc:	00fa5e63          	ble	a5,s4,1f0d8 <_svfiprintf_r+0xbe8>
   1f0c0:	04010613          	addi	a2,sp,64
   1f0c4:	00090593          	mv	a1,s2
   1f0c8:	00098513          	mv	a0,s3
   1f0cc:	a68ff0ef          	jal	ra,1e334 <__ssprint_r>
   1f0d0:	f80516e3          	bnez	a0,1f05c <_svfiprintf_r+0xb6c>
   1f0d4:	000b8813          	mv	a6,s7
   1f0d8:	ff040413          	addi	s0,s0,-16
   1f0dc:	f3dff06f          	j	1f018 <_svfiprintf_r+0xb28>
   1f0e0:	04812783          	lw	a5,72(sp)
   1f0e4:	f6078ce3          	beqz	a5,1f05c <_svfiprintf_r+0xb6c>
   1f0e8:	04010613          	addi	a2,sp,64
   1f0ec:	00090593          	mv	a1,s2
   1f0f0:	00098513          	mv	a0,s3
   1f0f4:	a40ff0ef          	jal	ra,1e334 <__ssprint_r>
   1f0f8:	f65ff06f          	j	1f05c <_svfiprintf_r+0xb6c>
   1f0fc:	fff00693          	li	a3,-1
   1f100:	c6d496e3          	bne	s1,a3,1ed6c <_svfiprintf_r+0x87c>
   1f104:	ce0a10e3          	bnez	s4,1ede4 <_svfiprintf_r+0x8f4>
   1f108:	00900693          	li	a3,9
   1f10c:	cce6ece3          	bltu	a3,a4,1ede4 <_svfiprintf_r+0x8f4>
   1f110:	03070713          	addi	a4,a4,48
   1f114:	0ee107a3          	sb	a4,239(sp)
   1f118:	0ef10413          	addi	s0,sp,239
   1f11c:	cb1ff06f          	j	1edcc <_svfiprintf_r+0x8dc>

0001f120 <_wcrtomb_r>:
   1f120:	8301a783          	lw	a5,-2000(gp) # 25aa0 <_impure_ptr>
   1f124:	fe010113          	addi	sp,sp,-32
   1f128:	00812c23          	sw	s0,24(sp)
   1f12c:	00912a23          	sw	s1,20(sp)
   1f130:	00112e23          	sw	ra,28(sp)
   1f134:	00050413          	mv	s0,a0
   1f138:	00068493          	mv	s1,a3
   1f13c:	0347a783          	lw	a5,52(a5)
   1f140:	04059863          	bnez	a1,1f190 <_wcrtomb_r+0x70>
   1f144:	00079663          	bnez	a5,1f150 <_wcrtomb_r+0x30>
   1f148:	000257b7          	lui	a5,0x25
   1f14c:	4f878793          	addi	a5,a5,1272 # 254f8 <__global_locale>
   1f150:	0e07a783          	lw	a5,224(a5)
   1f154:	00048693          	mv	a3,s1
   1f158:	00000613          	li	a2,0
   1f15c:	00410593          	addi	a1,sp,4
   1f160:	00040513          	mv	a0,s0
   1f164:	000780e7          	jalr	a5
   1f168:	fff00793          	li	a5,-1
   1f16c:	00f51863          	bne	a0,a5,1f17c <_wcrtomb_r+0x5c>
   1f170:	0004a023          	sw	zero,0(s1)
   1f174:	08a00793          	li	a5,138
   1f178:	00f42023          	sw	a5,0(s0)
   1f17c:	01c12083          	lw	ra,28(sp)
   1f180:	01812403          	lw	s0,24(sp)
   1f184:	01412483          	lw	s1,20(sp)
   1f188:	02010113          	addi	sp,sp,32
   1f18c:	00008067          	ret
   1f190:	00079663          	bnez	a5,1f19c <_wcrtomb_r+0x7c>
   1f194:	000257b7          	lui	a5,0x25
   1f198:	4f878793          	addi	a5,a5,1272 # 254f8 <__global_locale>
   1f19c:	0e07a783          	lw	a5,224(a5)
   1f1a0:	00048693          	mv	a3,s1
   1f1a4:	fbdff06f          	j	1f160 <_wcrtomb_r+0x40>

0001f1a8 <wcrtomb>:
   1f1a8:	00060693          	mv	a3,a2
   1f1ac:	00058613          	mv	a2,a1
   1f1b0:	00050593          	mv	a1,a0
   1f1b4:	8301a503          	lw	a0,-2000(gp) # 25aa0 <_impure_ptr>
   1f1b8:	f69ff06f          	j	1f120 <_wcrtomb_r>

0001f1bc <_close>:
   1f1bc:	ff010113          	addi	sp,sp,-16
   1f1c0:	00112623          	sw	ra,12(sp)
   1f1c4:	00812423          	sw	s0,8(sp)
   1f1c8:	00000593          	li	a1,0
   1f1cc:	00000613          	li	a2,0
   1f1d0:	00000693          	li	a3,0
   1f1d4:	00000713          	li	a4,0
   1f1d8:	00000793          	li	a5,0
   1f1dc:	03900893          	li	a7,57
   1f1e0:	00000073          	ecall
   1f1e4:	00050413          	mv	s0,a0
   1f1e8:	00055a63          	bgez	a0,1f1fc <_close+0x40>
   1f1ec:	40800433          	neg	s0,s0
   1f1f0:	438000ef          	jal	ra,1f628 <__errno>
   1f1f4:	00852023          	sw	s0,0(a0)
   1f1f8:	fff00413          	li	s0,-1
   1f1fc:	00040513          	mv	a0,s0
   1f200:	00c12083          	lw	ra,12(sp)
   1f204:	00812403          	lw	s0,8(sp)
   1f208:	01010113          	addi	sp,sp,16
   1f20c:	00008067          	ret

0001f210 <_exit>:
   1f210:	00000593          	li	a1,0
   1f214:	00000613          	li	a2,0
   1f218:	00000693          	li	a3,0
   1f21c:	00000713          	li	a4,0
   1f220:	00000793          	li	a5,0
   1f224:	05d00893          	li	a7,93
   1f228:	00000073          	ecall
   1f22c:	02055263          	bgez	a0,1f250 <_exit+0x40>
   1f230:	ff010113          	addi	sp,sp,-16
   1f234:	00812423          	sw	s0,8(sp)
   1f238:	00050413          	mv	s0,a0
   1f23c:	00112623          	sw	ra,12(sp)
   1f240:	40800433          	neg	s0,s0
   1f244:	3e4000ef          	jal	ra,1f628 <__errno>
   1f248:	00852023          	sw	s0,0(a0)
   1f24c:	0000006f          	j	1f24c <_exit+0x3c>
   1f250:	0000006f          	j	1f250 <_exit+0x40>

0001f254 <_fstat>:
   1f254:	f7010113          	addi	sp,sp,-144
   1f258:	08912223          	sw	s1,132(sp)
   1f25c:	08112623          	sw	ra,140(sp)
   1f260:	00058493          	mv	s1,a1
   1f264:	08812423          	sw	s0,136(sp)
   1f268:	00010593          	mv	a1,sp
   1f26c:	00000613          	li	a2,0
   1f270:	00000693          	li	a3,0
   1f274:	00000713          	li	a4,0
   1f278:	00000793          	li	a5,0
   1f27c:	05000893          	li	a7,80
   1f280:	00000073          	ecall
   1f284:	00050413          	mv	s0,a0
   1f288:	00055a63          	bgez	a0,1f29c <_fstat+0x48>
   1f28c:	40800433          	neg	s0,s0
   1f290:	398000ef          	jal	ra,1f628 <__errno>
   1f294:	00852023          	sw	s0,0(a0)
   1f298:	fff00413          	li	s0,-1
   1f29c:	00048513          	mv	a0,s1
   1f2a0:	00010593          	mv	a1,sp
   1f2a4:	2ac000ef          	jal	ra,1f550 <_conv_stat>
   1f2a8:	00040513          	mv	a0,s0
   1f2ac:	08c12083          	lw	ra,140(sp)
   1f2b0:	08812403          	lw	s0,136(sp)
   1f2b4:	08412483          	lw	s1,132(sp)
   1f2b8:	09010113          	addi	sp,sp,144
   1f2bc:	00008067          	ret

0001f2c0 <_isatty>:
   1f2c0:	f9010113          	addi	sp,sp,-112
   1f2c4:	00810593          	addi	a1,sp,8
   1f2c8:	06112623          	sw	ra,108(sp)
   1f2cc:	f89ff0ef          	jal	ra,1f254 <_fstat>
   1f2d0:	fff00793          	li	a5,-1
   1f2d4:	00f50e63          	beq	a0,a5,1f2f0 <_isatty+0x30>
   1f2d8:	00c12503          	lw	a0,12(sp)
   1f2dc:	00d55513          	srli	a0,a0,0xd
   1f2e0:	00157513          	andi	a0,a0,1
   1f2e4:	06c12083          	lw	ra,108(sp)
   1f2e8:	07010113          	addi	sp,sp,112
   1f2ec:	00008067          	ret
   1f2f0:	00000513          	li	a0,0
   1f2f4:	ff1ff06f          	j	1f2e4 <_isatty+0x24>

0001f2f8 <_lseek>:
   1f2f8:	ff010113          	addi	sp,sp,-16
   1f2fc:	00112623          	sw	ra,12(sp)
   1f300:	00812423          	sw	s0,8(sp)
   1f304:	00000693          	li	a3,0
   1f308:	00000713          	li	a4,0
   1f30c:	00000793          	li	a5,0
   1f310:	03e00893          	li	a7,62
   1f314:	00000073          	ecall
   1f318:	00050413          	mv	s0,a0
   1f31c:	00055a63          	bgez	a0,1f330 <_lseek+0x38>
   1f320:	40800433          	neg	s0,s0
   1f324:	304000ef          	jal	ra,1f628 <__errno>
   1f328:	00852023          	sw	s0,0(a0)
   1f32c:	fff00413          	li	s0,-1
   1f330:	00040513          	mv	a0,s0
   1f334:	00c12083          	lw	ra,12(sp)
   1f338:	00812403          	lw	s0,8(sp)
   1f33c:	01010113          	addi	sp,sp,16
   1f340:	00008067          	ret

0001f344 <_read>:
   1f344:	ff010113          	addi	sp,sp,-16
   1f348:	00112623          	sw	ra,12(sp)
   1f34c:	00812423          	sw	s0,8(sp)
   1f350:	00000693          	li	a3,0
   1f354:	00000713          	li	a4,0
   1f358:	00000793          	li	a5,0
   1f35c:	03f00893          	li	a7,63
   1f360:	00000073          	ecall
   1f364:	00050413          	mv	s0,a0
   1f368:	00055a63          	bgez	a0,1f37c <_read+0x38>
   1f36c:	40800433          	neg	s0,s0
   1f370:	2b8000ef          	jal	ra,1f628 <__errno>
   1f374:	00852023          	sw	s0,0(a0)
   1f378:	fff00413          	li	s0,-1
   1f37c:	00040513          	mv	a0,s0
   1f380:	00c12083          	lw	ra,12(sp)
   1f384:	00812403          	lw	s0,8(sp)
   1f388:	01010113          	addi	sp,sp,16
   1f38c:	00008067          	ret

0001f390 <_sbrk>:
   1f390:	ff010113          	addi	sp,sp,-16
   1f394:	00812423          	sw	s0,8(sp)
   1f398:	8641a783          	lw	a5,-1948(gp) # 25ad4 <heap_end.1852>
   1f39c:	01212023          	sw	s2,0(sp)
   1f3a0:	00112623          	sw	ra,12(sp)
   1f3a4:	00912223          	sw	s1,4(sp)
   1f3a8:	00050913          	mv	s2,a0
   1f3ac:	04079a63          	bnez	a5,1f400 <_sbrk+0x70>
   1f3b0:	00000513          	li	a0,0
   1f3b4:	00000593          	li	a1,0
   1f3b8:	00000613          	li	a2,0
   1f3bc:	00000693          	li	a3,0
   1f3c0:	00000713          	li	a4,0
   1f3c4:	0d600893          	li	a7,214
   1f3c8:	00000073          	ecall
   1f3cc:	00050493          	mv	s1,a0
   1f3d0:	02055663          	bgez	a0,1f3fc <_sbrk+0x6c>
   1f3d4:	254000ef          	jal	ra,1f628 <__errno>
   1f3d8:	409004b3          	neg	s1,s1
   1f3dc:	00952023          	sw	s1,0(a0)
   1f3e0:	fff00513          	li	a0,-1
   1f3e4:	00c12083          	lw	ra,12(sp)
   1f3e8:	00812403          	lw	s0,8(sp)
   1f3ec:	00412483          	lw	s1,4(sp)
   1f3f0:	00012903          	lw	s2,0(sp)
   1f3f4:	01010113          	addi	sp,sp,16
   1f3f8:	00008067          	ret
   1f3fc:	86a1a223          	sw	a0,-1948(gp) # 25ad4 <heap_end.1852>
   1f400:	8641a503          	lw	a0,-1948(gp) # 25ad4 <heap_end.1852>
   1f404:	00000593          	li	a1,0
   1f408:	00000613          	li	a2,0
   1f40c:	00a90533          	add	a0,s2,a0
   1f410:	00000693          	li	a3,0
   1f414:	00000713          	li	a4,0
   1f418:	00000793          	li	a5,0
   1f41c:	0d600893          	li	a7,214
   1f420:	00000073          	ecall
   1f424:	00050493          	mv	s1,a0
   1f428:	00055a63          	bgez	a0,1f43c <_sbrk+0xac>
   1f42c:	409004b3          	neg	s1,s1
   1f430:	1f8000ef          	jal	ra,1f628 <__errno>
   1f434:	00952023          	sw	s1,0(a0)
   1f438:	fff00493          	li	s1,-1
   1f43c:	8641a783          	lw	a5,-1948(gp) # 25ad4 <heap_end.1852>
   1f440:	fff00513          	li	a0,-1
   1f444:	00f90933          	add	s2,s2,a5
   1f448:	f9249ee3          	bne	s1,s2,1f3e4 <_sbrk+0x54>
   1f44c:	8691a223          	sw	s1,-1948(gp) # 25ad4 <heap_end.1852>
   1f450:	00078513          	mv	a0,a5
   1f454:	f91ff06f          	j	1f3e4 <_sbrk+0x54>

0001f458 <_times>:
   1f458:	fe010113          	addi	sp,sp,-32
   1f45c:	00812c23          	sw	s0,24(sp)
   1f460:	00050413          	mv	s0,a0
   1f464:	8b018713          	addi	a4,gp,-1872 # 25b20 <t0.2035>
   1f468:	00072783          	lw	a5,0(a4)
   1f46c:	00472703          	lw	a4,4(a4)
   1f470:	00912a23          	sw	s1,20(sp)
   1f474:	00112e23          	sw	ra,28(sp)
   1f478:	00e7e7b3          	or	a5,a5,a4
   1f47c:	8b018493          	addi	s1,gp,-1872 # 25b20 <t0.2035>
   1f480:	00079863          	bnez	a5,1f490 <_times+0x38>
   1f484:	00000593          	li	a1,0
   1f488:	8b018513          	addi	a0,gp,-1872 # 25b20 <t0.2035>
   1f48c:	148000ef          	jal	ra,1f5d4 <_gettimeofday>
   1f490:	00000593          	li	a1,0
   1f494:	00010513          	mv	a0,sp
   1f498:	13c000ef          	jal	ra,1f5d4 <_gettimeofday>
   1f49c:	0004a503          	lw	a0,0(s1)
   1f4a0:	00012583          	lw	a1,0(sp)
   1f4a4:	0044a703          	lw	a4,4(s1)
   1f4a8:	00412783          	lw	a5,4(sp)
   1f4ac:	40a58533          	sub	a0,a1,a0
   1f4b0:	00a5b5b3          	sltu	a1,a1,a0
   1f4b4:	40e787b3          	sub	a5,a5,a4
   1f4b8:	000f4637          	lui	a2,0xf4
   1f4bc:	40b785b3          	sub	a1,a5,a1
   1f4c0:	24060613          	addi	a2,a2,576 # f4240 <__global_pointer$+0xcdfd0>
   1f4c4:	00000693          	li	a3,0
   1f4c8:	714040ef          	jal	ra,23bdc <__muldi3>
   1f4cc:	0084a703          	lw	a4,8(s1)
   1f4d0:	00812783          	lw	a5,8(sp)
   1f4d4:	00042423          	sw	zero,8(s0)
   1f4d8:	00042623          	sw	zero,12(s0)
   1f4dc:	40e787b3          	sub	a5,a5,a4
   1f4e0:	00f50533          	add	a0,a0,a5
   1f4e4:	00a42023          	sw	a0,0(s0)
   1f4e8:	00042223          	sw	zero,4(s0)
   1f4ec:	01c12083          	lw	ra,28(sp)
   1f4f0:	01812403          	lw	s0,24(sp)
   1f4f4:	01412483          	lw	s1,20(sp)
   1f4f8:	fff00513          	li	a0,-1
   1f4fc:	02010113          	addi	sp,sp,32
   1f500:	00008067          	ret

0001f504 <_write>:
   1f504:	ff010113          	addi	sp,sp,-16
   1f508:	00112623          	sw	ra,12(sp)
   1f50c:	00812423          	sw	s0,8(sp)
   1f510:	00000693          	li	a3,0
   1f514:	00000713          	li	a4,0
   1f518:	00000793          	li	a5,0
   1f51c:	04000893          	li	a7,64
   1f520:	00000073          	ecall
   1f524:	00050413          	mv	s0,a0
   1f528:	00055a63          	bgez	a0,1f53c <_write+0x38>
   1f52c:	40800433          	neg	s0,s0
   1f530:	0f8000ef          	jal	ra,1f628 <__errno>
   1f534:	00852023          	sw	s0,0(a0)
   1f538:	fff00413          	li	s0,-1
   1f53c:	00040513          	mv	a0,s0
   1f540:	00c12083          	lw	ra,12(sp)
   1f544:	00812403          	lw	s0,8(sp)
   1f548:	01010113          	addi	sp,sp,16
   1f54c:	00008067          	ret

0001f550 <_conv_stat>:
   1f550:	0005a783          	lw	a5,0(a1)
   1f554:	0485a703          	lw	a4,72(a1)
   1f558:	00f51023          	sh	a5,0(a0)
   1f55c:	0085a783          	lw	a5,8(a1)
   1f560:	00f51123          	sh	a5,2(a0)
   1f564:	0105a783          	lw	a5,16(a1)
   1f568:	00f52223          	sw	a5,4(a0)
   1f56c:	0145a783          	lw	a5,20(a1)
   1f570:	00f51423          	sh	a5,8(a0)
   1f574:	0185a783          	lw	a5,24(a1)
   1f578:	00f51523          	sh	a5,10(a0)
   1f57c:	01c5a783          	lw	a5,28(a1)
   1f580:	00f51623          	sh	a5,12(a0)
   1f584:	0205a783          	lw	a5,32(a1)
   1f588:	00f51723          	sh	a5,14(a0)
   1f58c:	0305a783          	lw	a5,48(a1)
   1f590:	00f52823          	sw	a5,16(a0)
   1f594:	0405a783          	lw	a5,64(a1)
   1f598:	04f52423          	sw	a5,72(a0)
   1f59c:	0385a783          	lw	a5,56(a1)
   1f5a0:	04f52223          	sw	a5,68(a0)
   1f5a4:	04c5a783          	lw	a5,76(a1)
   1f5a8:	00e52c23          	sw	a4,24(a0)
   1f5ac:	0585a703          	lw	a4,88(a1)
   1f5b0:	00f52e23          	sw	a5,28(a0)
   1f5b4:	05c5a783          	lw	a5,92(a1)
   1f5b8:	02e52423          	sw	a4,40(a0)
   1f5bc:	0685a703          	lw	a4,104(a1)
   1f5c0:	02f52623          	sw	a5,44(a0)
   1f5c4:	06c5a783          	lw	a5,108(a1)
   1f5c8:	02e52c23          	sw	a4,56(a0)
   1f5cc:	02f52e23          	sw	a5,60(a0)
   1f5d0:	00008067          	ret

0001f5d4 <_gettimeofday>:
   1f5d4:	ff010113          	addi	sp,sp,-16
   1f5d8:	00112623          	sw	ra,12(sp)
   1f5dc:	00812423          	sw	s0,8(sp)
   1f5e0:	00000593          	li	a1,0
   1f5e4:	00000613          	li	a2,0
   1f5e8:	00000693          	li	a3,0
   1f5ec:	00000713          	li	a4,0
   1f5f0:	00000793          	li	a5,0
   1f5f4:	0a900893          	li	a7,169
   1f5f8:	00000073          	ecall
   1f5fc:	00050413          	mv	s0,a0
   1f600:	00055a63          	bgez	a0,1f614 <_gettimeofday+0x40>
   1f604:	40800433          	neg	s0,s0
   1f608:	020000ef          	jal	ra,1f628 <__errno>
   1f60c:	00852023          	sw	s0,0(a0)
   1f610:	fff00413          	li	s0,-1
   1f614:	00040513          	mv	a0,s0
   1f618:	00c12083          	lw	ra,12(sp)
   1f61c:	00812403          	lw	s0,8(sp)
   1f620:	01010113          	addi	sp,sp,16
   1f624:	00008067          	ret

0001f628 <__errno>:
   1f628:	8301a503          	lw	a0,-2000(gp) # 25aa0 <_impure_ptr>
   1f62c:	00008067          	ret

0001f630 <__udivdi3>:
   1f630:	fd010113          	addi	sp,sp,-48
   1f634:	02912223          	sw	s1,36(sp)
   1f638:	01612823          	sw	s6,16(sp)
   1f63c:	02112623          	sw	ra,44(sp)
   1f640:	02812423          	sw	s0,40(sp)
   1f644:	03212023          	sw	s2,32(sp)
   1f648:	01312e23          	sw	s3,28(sp)
   1f64c:	01412c23          	sw	s4,24(sp)
   1f650:	01512a23          	sw	s5,20(sp)
   1f654:	01712623          	sw	s7,12(sp)
   1f658:	01812423          	sw	s8,8(sp)
   1f65c:	01912223          	sw	s9,4(sp)
   1f660:	00050b13          	mv	s6,a0
   1f664:	00058493          	mv	s1,a1
   1f668:	38069c63          	bnez	a3,1fa00 <__udivdi3+0x3d0>
   1f66c:	00024937          	lui	s2,0x24
   1f670:	00060413          	mv	s0,a2
   1f674:	00050993          	mv	s3,a0
   1f678:	21c90913          	addi	s2,s2,540 # 2421c <__clz_tab>
   1f67c:	12c5f863          	bleu	a2,a1,1f7ac <__udivdi3+0x17c>
   1f680:	000107b7          	lui	a5,0x10
   1f684:	00058a93          	mv	s5,a1
   1f688:	10f67863          	bleu	a5,a2,1f798 <__udivdi3+0x168>
   1f68c:	0ff00693          	li	a3,255
   1f690:	00c6b6b3          	sltu	a3,a3,a2
   1f694:	00369693          	slli	a3,a3,0x3
   1f698:	00d657b3          	srl	a5,a2,a3
   1f69c:	00f90933          	add	s2,s2,a5
   1f6a0:	00094703          	lbu	a4,0(s2)
   1f6a4:	00d706b3          	add	a3,a4,a3
   1f6a8:	02000713          	li	a4,32
   1f6ac:	40d70733          	sub	a4,a4,a3
   1f6b0:	00070c63          	beqz	a4,1f6c8 <__udivdi3+0x98>
   1f6b4:	00e494b3          	sll	s1,s1,a4
   1f6b8:	00db56b3          	srl	a3,s6,a3
   1f6bc:	00e61433          	sll	s0,a2,a4
   1f6c0:	0096eab3          	or	s5,a3,s1
   1f6c4:	00eb19b3          	sll	s3,s6,a4
   1f6c8:	01045b13          	srli	s6,s0,0x10
   1f6cc:	000b0593          	mv	a1,s6
   1f6d0:	000a8513          	mv	a0,s5
   1f6d4:	c29f30ef          	jal	ra,132fc <__umodsi3>
   1f6d8:	00050913          	mv	s2,a0
   1f6dc:	000b0593          	mv	a1,s6
   1f6e0:	01041b93          	slli	s7,s0,0x10
   1f6e4:	000a8513          	mv	a0,s5
   1f6e8:	bcdf30ef          	jal	ra,132b4 <__udivsi3>
   1f6ec:	010bdb93          	srli	s7,s7,0x10
   1f6f0:	00050493          	mv	s1,a0
   1f6f4:	00050593          	mv	a1,a0
   1f6f8:	000b8513          	mv	a0,s7
   1f6fc:	b8df30ef          	jal	ra,13288 <__mulsi3>
   1f700:	01091913          	slli	s2,s2,0x10
   1f704:	0109d713          	srli	a4,s3,0x10
   1f708:	00e96733          	or	a4,s2,a4
   1f70c:	00048a13          	mv	s4,s1
   1f710:	00a77e63          	bleu	a0,a4,1f72c <__udivdi3+0xfc>
   1f714:	00870733          	add	a4,a4,s0
   1f718:	fff48a13          	addi	s4,s1,-1
   1f71c:	00876863          	bltu	a4,s0,1f72c <__udivdi3+0xfc>
   1f720:	00a77663          	bleu	a0,a4,1f72c <__udivdi3+0xfc>
   1f724:	ffe48a13          	addi	s4,s1,-2
   1f728:	00870733          	add	a4,a4,s0
   1f72c:	40a704b3          	sub	s1,a4,a0
   1f730:	000b0593          	mv	a1,s6
   1f734:	00048513          	mv	a0,s1
   1f738:	bc5f30ef          	jal	ra,132fc <__umodsi3>
   1f73c:	00050913          	mv	s2,a0
   1f740:	000b0593          	mv	a1,s6
   1f744:	00048513          	mv	a0,s1
   1f748:	b6df30ef          	jal	ra,132b4 <__udivsi3>
   1f74c:	01099993          	slli	s3,s3,0x10
   1f750:	00050493          	mv	s1,a0
   1f754:	00050593          	mv	a1,a0
   1f758:	01091913          	slli	s2,s2,0x10
   1f75c:	000b8513          	mv	a0,s7
   1f760:	0109d993          	srli	s3,s3,0x10
   1f764:	b25f30ef          	jal	ra,13288 <__mulsi3>
   1f768:	013969b3          	or	s3,s2,s3
   1f76c:	00048613          	mv	a2,s1
   1f770:	00a9fc63          	bleu	a0,s3,1f788 <__udivdi3+0x158>
   1f774:	013409b3          	add	s3,s0,s3
   1f778:	fff48613          	addi	a2,s1,-1
   1f77c:	0089e663          	bltu	s3,s0,1f788 <__udivdi3+0x158>
   1f780:	00a9f463          	bleu	a0,s3,1f788 <__udivdi3+0x158>
   1f784:	ffe48613          	addi	a2,s1,-2
   1f788:	010a1793          	slli	a5,s4,0x10
   1f78c:	00c7e7b3          	or	a5,a5,a2
   1f790:	00000a13          	li	s4,0
   1f794:	1300006f          	j	1f8c4 <__udivdi3+0x294>
   1f798:	010007b7          	lui	a5,0x1000
   1f79c:	01000693          	li	a3,16
   1f7a0:	eef66ce3          	bltu	a2,a5,1f698 <__udivdi3+0x68>
   1f7a4:	01800693          	li	a3,24
   1f7a8:	ef1ff06f          	j	1f698 <__udivdi3+0x68>
   1f7ac:	00068a13          	mv	s4,a3
   1f7b0:	00061a63          	bnez	a2,1f7c4 <__udivdi3+0x194>
   1f7b4:	00000593          	li	a1,0
   1f7b8:	00100513          	li	a0,1
   1f7bc:	af9f30ef          	jal	ra,132b4 <__udivsi3>
   1f7c0:	00050413          	mv	s0,a0
   1f7c4:	000107b7          	lui	a5,0x10
   1f7c8:	12f47c63          	bleu	a5,s0,1f900 <__udivdi3+0x2d0>
   1f7cc:	0ff00793          	li	a5,255
   1f7d0:	0087f463          	bleu	s0,a5,1f7d8 <__udivdi3+0x1a8>
   1f7d4:	00800a13          	li	s4,8
   1f7d8:	014457b3          	srl	a5,s0,s4
   1f7dc:	00f90933          	add	s2,s2,a5
   1f7e0:	00094683          	lbu	a3,0(s2)
   1f7e4:	02000613          	li	a2,32
   1f7e8:	014686b3          	add	a3,a3,s4
   1f7ec:	40d60633          	sub	a2,a2,a3
   1f7f0:	12061263          	bnez	a2,1f914 <__udivdi3+0x2e4>
   1f7f4:	408484b3          	sub	s1,s1,s0
   1f7f8:	00100a13          	li	s4,1
   1f7fc:	01045b13          	srli	s6,s0,0x10
   1f800:	000b0593          	mv	a1,s6
   1f804:	00048513          	mv	a0,s1
   1f808:	af5f30ef          	jal	ra,132fc <__umodsi3>
   1f80c:	00050913          	mv	s2,a0
   1f810:	000b0593          	mv	a1,s6
   1f814:	00048513          	mv	a0,s1
   1f818:	01041b93          	slli	s7,s0,0x10
   1f81c:	a99f30ef          	jal	ra,132b4 <__udivsi3>
   1f820:	010bdb93          	srli	s7,s7,0x10
   1f824:	00050493          	mv	s1,a0
   1f828:	00050593          	mv	a1,a0
   1f82c:	000b8513          	mv	a0,s7
   1f830:	a59f30ef          	jal	ra,13288 <__mulsi3>
   1f834:	01091913          	slli	s2,s2,0x10
   1f838:	0109d713          	srli	a4,s3,0x10
   1f83c:	00e96733          	or	a4,s2,a4
   1f840:	00048a93          	mv	s5,s1
   1f844:	00a77e63          	bleu	a0,a4,1f860 <__udivdi3+0x230>
   1f848:	00870733          	add	a4,a4,s0
   1f84c:	fff48a93          	addi	s5,s1,-1
   1f850:	00876863          	bltu	a4,s0,1f860 <__udivdi3+0x230>
   1f854:	00a77663          	bleu	a0,a4,1f860 <__udivdi3+0x230>
   1f858:	ffe48a93          	addi	s5,s1,-2
   1f85c:	00870733          	add	a4,a4,s0
   1f860:	40a704b3          	sub	s1,a4,a0
   1f864:	000b0593          	mv	a1,s6
   1f868:	00048513          	mv	a0,s1
   1f86c:	a91f30ef          	jal	ra,132fc <__umodsi3>
   1f870:	00050913          	mv	s2,a0
   1f874:	000b0593          	mv	a1,s6
   1f878:	00048513          	mv	a0,s1
   1f87c:	a39f30ef          	jal	ra,132b4 <__udivsi3>
   1f880:	01099993          	slli	s3,s3,0x10
   1f884:	00050493          	mv	s1,a0
   1f888:	00050593          	mv	a1,a0
   1f88c:	01091913          	slli	s2,s2,0x10
   1f890:	000b8513          	mv	a0,s7
   1f894:	0109d993          	srli	s3,s3,0x10
   1f898:	9f1f30ef          	jal	ra,13288 <__mulsi3>
   1f89c:	013969b3          	or	s3,s2,s3
   1f8a0:	00048613          	mv	a2,s1
   1f8a4:	00a9fc63          	bleu	a0,s3,1f8bc <__udivdi3+0x28c>
   1f8a8:	013409b3          	add	s3,s0,s3
   1f8ac:	fff48613          	addi	a2,s1,-1
   1f8b0:	0089e663          	bltu	s3,s0,1f8bc <__udivdi3+0x28c>
   1f8b4:	00a9f463          	bleu	a0,s3,1f8bc <__udivdi3+0x28c>
   1f8b8:	ffe48613          	addi	a2,s1,-2
   1f8bc:	010a9793          	slli	a5,s5,0x10
   1f8c0:	00c7e7b3          	or	a5,a5,a2
   1f8c4:	00078513          	mv	a0,a5
   1f8c8:	000a0593          	mv	a1,s4
   1f8cc:	02c12083          	lw	ra,44(sp)
   1f8d0:	02812403          	lw	s0,40(sp)
   1f8d4:	02412483          	lw	s1,36(sp)
   1f8d8:	02012903          	lw	s2,32(sp)
   1f8dc:	01c12983          	lw	s3,28(sp)
   1f8e0:	01812a03          	lw	s4,24(sp)
   1f8e4:	01412a83          	lw	s5,20(sp)
   1f8e8:	01012b03          	lw	s6,16(sp)
   1f8ec:	00c12b83          	lw	s7,12(sp)
   1f8f0:	00812c03          	lw	s8,8(sp)
   1f8f4:	00412c83          	lw	s9,4(sp)
   1f8f8:	03010113          	addi	sp,sp,48
   1f8fc:	00008067          	ret
   1f900:	010007b7          	lui	a5,0x1000
   1f904:	01000a13          	li	s4,16
   1f908:	ecf468e3          	bltu	s0,a5,1f7d8 <__udivdi3+0x1a8>
   1f90c:	01800a13          	li	s4,24
   1f910:	ec9ff06f          	j	1f7d8 <__udivdi3+0x1a8>
   1f914:	00c41433          	sll	s0,s0,a2
   1f918:	00d4da33          	srl	s4,s1,a3
   1f91c:	00cb19b3          	sll	s3,s6,a2
   1f920:	00db56b3          	srl	a3,s6,a3
   1f924:	01045b13          	srli	s6,s0,0x10
   1f928:	00c494b3          	sll	s1,s1,a2
   1f92c:	000b0593          	mv	a1,s6
   1f930:	000a0513          	mv	a0,s4
   1f934:	0096eab3          	or	s5,a3,s1
   1f938:	9c5f30ef          	jal	ra,132fc <__umodsi3>
   1f93c:	00050913          	mv	s2,a0
   1f940:	000b0593          	mv	a1,s6
   1f944:	000a0513          	mv	a0,s4
   1f948:	01041b93          	slli	s7,s0,0x10
   1f94c:	969f30ef          	jal	ra,132b4 <__udivsi3>
   1f950:	010bdb93          	srli	s7,s7,0x10
   1f954:	00050493          	mv	s1,a0
   1f958:	00050593          	mv	a1,a0
   1f95c:	000b8513          	mv	a0,s7
   1f960:	929f30ef          	jal	ra,13288 <__mulsi3>
   1f964:	01091913          	slli	s2,s2,0x10
   1f968:	010ad713          	srli	a4,s5,0x10
   1f96c:	00e96733          	or	a4,s2,a4
   1f970:	00048a13          	mv	s4,s1
   1f974:	00a77e63          	bleu	a0,a4,1f990 <__udivdi3+0x360>
   1f978:	00870733          	add	a4,a4,s0
   1f97c:	fff48a13          	addi	s4,s1,-1
   1f980:	00876863          	bltu	a4,s0,1f990 <__udivdi3+0x360>
   1f984:	00a77663          	bleu	a0,a4,1f990 <__udivdi3+0x360>
   1f988:	ffe48a13          	addi	s4,s1,-2
   1f98c:	00870733          	add	a4,a4,s0
   1f990:	40a704b3          	sub	s1,a4,a0
   1f994:	000b0593          	mv	a1,s6
   1f998:	00048513          	mv	a0,s1
   1f99c:	961f30ef          	jal	ra,132fc <__umodsi3>
   1f9a0:	00050913          	mv	s2,a0
   1f9a4:	000b0593          	mv	a1,s6
   1f9a8:	00048513          	mv	a0,s1
   1f9ac:	909f30ef          	jal	ra,132b4 <__udivsi3>
   1f9b0:	00050493          	mv	s1,a0
   1f9b4:	00050593          	mv	a1,a0
   1f9b8:	000b8513          	mv	a0,s7
   1f9bc:	8cdf30ef          	jal	ra,13288 <__mulsi3>
   1f9c0:	010a9693          	slli	a3,s5,0x10
   1f9c4:	01091913          	slli	s2,s2,0x10
   1f9c8:	0106d693          	srli	a3,a3,0x10
   1f9cc:	00d967b3          	or	a5,s2,a3
   1f9d0:	00048713          	mv	a4,s1
   1f9d4:	00a7fe63          	bleu	a0,a5,1f9f0 <__udivdi3+0x3c0>
   1f9d8:	008787b3          	add	a5,a5,s0
   1f9dc:	fff48713          	addi	a4,s1,-1
   1f9e0:	0087e863          	bltu	a5,s0,1f9f0 <__udivdi3+0x3c0>
   1f9e4:	00a7f663          	bleu	a0,a5,1f9f0 <__udivdi3+0x3c0>
   1f9e8:	ffe48713          	addi	a4,s1,-2
   1f9ec:	008787b3          	add	a5,a5,s0
   1f9f0:	010a1a13          	slli	s4,s4,0x10
   1f9f4:	40a784b3          	sub	s1,a5,a0
   1f9f8:	00ea6a33          	or	s4,s4,a4
   1f9fc:	e01ff06f          	j	1f7fc <__udivdi3+0x1cc>
   1fa00:	1ed5ec63          	bltu	a1,a3,1fbf8 <__udivdi3+0x5c8>
   1fa04:	000107b7          	lui	a5,0x10
   1fa08:	04f6f463          	bleu	a5,a3,1fa50 <__udivdi3+0x420>
   1fa0c:	0ff00593          	li	a1,255
   1fa10:	00d5b533          	sltu	a0,a1,a3
   1fa14:	00351513          	slli	a0,a0,0x3
   1fa18:	00024737          	lui	a4,0x24
   1fa1c:	00a6d7b3          	srl	a5,a3,a0
   1fa20:	21c70713          	addi	a4,a4,540 # 2421c <__clz_tab>
   1fa24:	00e787b3          	add	a5,a5,a4
   1fa28:	0007c583          	lbu	a1,0(a5) # 10000 <main-0x74>
   1fa2c:	02000a13          	li	s4,32
   1fa30:	00a585b3          	add	a1,a1,a0
   1fa34:	40ba0a33          	sub	s4,s4,a1
   1fa38:	020a1663          	bnez	s4,1fa64 <__udivdi3+0x434>
   1fa3c:	00100793          	li	a5,1
   1fa40:	e896e2e3          	bltu	a3,s1,1f8c4 <__udivdi3+0x294>
   1fa44:	00cb3633          	sltu	a2,s6,a2
   1fa48:	00164793          	xori	a5,a2,1
   1fa4c:	e79ff06f          	j	1f8c4 <__udivdi3+0x294>
   1fa50:	010007b7          	lui	a5,0x1000
   1fa54:	01000513          	li	a0,16
   1fa58:	fcf6e0e3          	bltu	a3,a5,1fa18 <__udivdi3+0x3e8>
   1fa5c:	01800513          	li	a0,24
   1fa60:	fb9ff06f          	j	1fa18 <__udivdi3+0x3e8>
   1fa64:	00b65ab3          	srl	s5,a2,a1
   1fa68:	014696b3          	sll	a3,a3,s4
   1fa6c:	00daeab3          	or	s5,s5,a3
   1fa70:	00b4d933          	srl	s2,s1,a1
   1fa74:	014497b3          	sll	a5,s1,s4
   1fa78:	00bb55b3          	srl	a1,s6,a1
   1fa7c:	010adb93          	srli	s7,s5,0x10
   1fa80:	00f5e4b3          	or	s1,a1,a5
   1fa84:	00090513          	mv	a0,s2
   1fa88:	000b8593          	mv	a1,s7
   1fa8c:	014619b3          	sll	s3,a2,s4
   1fa90:	86df30ef          	jal	ra,132fc <__umodsi3>
   1fa94:	00050413          	mv	s0,a0
   1fa98:	000b8593          	mv	a1,s7
   1fa9c:	00090513          	mv	a0,s2
   1faa0:	010a9c13          	slli	s8,s5,0x10
   1faa4:	811f30ef          	jal	ra,132b4 <__udivsi3>
   1faa8:	010c5c13          	srli	s8,s8,0x10
   1faac:	00050913          	mv	s2,a0
   1fab0:	00050593          	mv	a1,a0
   1fab4:	000c0513          	mv	a0,s8
   1fab8:	fd0f30ef          	jal	ra,13288 <__mulsi3>
   1fabc:	01041413          	slli	s0,s0,0x10
   1fac0:	0104d713          	srli	a4,s1,0x10
   1fac4:	00e46733          	or	a4,s0,a4
   1fac8:	00090c93          	mv	s9,s2
   1facc:	00a77e63          	bleu	a0,a4,1fae8 <__udivdi3+0x4b8>
   1fad0:	01570733          	add	a4,a4,s5
   1fad4:	fff90c93          	addi	s9,s2,-1
   1fad8:	01576863          	bltu	a4,s5,1fae8 <__udivdi3+0x4b8>
   1fadc:	00a77663          	bleu	a0,a4,1fae8 <__udivdi3+0x4b8>
   1fae0:	ffe90c93          	addi	s9,s2,-2
   1fae4:	01570733          	add	a4,a4,s5
   1fae8:	40a70933          	sub	s2,a4,a0
   1faec:	000b8593          	mv	a1,s7
   1faf0:	00090513          	mv	a0,s2
   1faf4:	809f30ef          	jal	ra,132fc <__umodsi3>
   1faf8:	00050413          	mv	s0,a0
   1fafc:	000b8593          	mv	a1,s7
   1fb00:	00090513          	mv	a0,s2
   1fb04:	fb0f30ef          	jal	ra,132b4 <__udivsi3>
   1fb08:	00050913          	mv	s2,a0
   1fb0c:	00050593          	mv	a1,a0
   1fb10:	000c0513          	mv	a0,s8
   1fb14:	f74f30ef          	jal	ra,13288 <__mulsi3>
   1fb18:	01049793          	slli	a5,s1,0x10
   1fb1c:	01041413          	slli	s0,s0,0x10
   1fb20:	0107d793          	srli	a5,a5,0x10
   1fb24:	00f46733          	or	a4,s0,a5
   1fb28:	00090613          	mv	a2,s2
   1fb2c:	00a77e63          	bleu	a0,a4,1fb48 <__udivdi3+0x518>
   1fb30:	01570733          	add	a4,a4,s5
   1fb34:	fff90613          	addi	a2,s2,-1
   1fb38:	01576863          	bltu	a4,s5,1fb48 <__udivdi3+0x518>
   1fb3c:	00a77663          	bleu	a0,a4,1fb48 <__udivdi3+0x518>
   1fb40:	ffe90613          	addi	a2,s2,-2
   1fb44:	01570733          	add	a4,a4,s5
   1fb48:	010c9793          	slli	a5,s9,0x10
   1fb4c:	00010e37          	lui	t3,0x10
   1fb50:	00c7e7b3          	or	a5,a5,a2
   1fb54:	fffe0813          	addi	a6,t3,-1 # ffff <main-0x75>
   1fb58:	0107f333          	and	t1,a5,a6
   1fb5c:	0109f833          	and	a6,s3,a6
   1fb60:	40a70733          	sub	a4,a4,a0
   1fb64:	0107de93          	srli	t4,a5,0x10
   1fb68:	0109d993          	srli	s3,s3,0x10
   1fb6c:	00030513          	mv	a0,t1
   1fb70:	00080593          	mv	a1,a6
   1fb74:	f14f30ef          	jal	ra,13288 <__mulsi3>
   1fb78:	00050893          	mv	a7,a0
   1fb7c:	00098593          	mv	a1,s3
   1fb80:	00030513          	mv	a0,t1
   1fb84:	f04f30ef          	jal	ra,13288 <__mulsi3>
   1fb88:	00050313          	mv	t1,a0
   1fb8c:	00080593          	mv	a1,a6
   1fb90:	000e8513          	mv	a0,t4
   1fb94:	ef4f30ef          	jal	ra,13288 <__mulsi3>
   1fb98:	00050813          	mv	a6,a0
   1fb9c:	00098593          	mv	a1,s3
   1fba0:	000e8513          	mv	a0,t4
   1fba4:	ee4f30ef          	jal	ra,13288 <__mulsi3>
   1fba8:	0108d693          	srli	a3,a7,0x10
   1fbac:	01030333          	add	t1,t1,a6
   1fbb0:	006686b3          	add	a3,a3,t1
   1fbb4:	0106f463          	bleu	a6,a3,1fbbc <__udivdi3+0x58c>
   1fbb8:	01c50533          	add	a0,a0,t3
   1fbbc:	0106d613          	srli	a2,a3,0x10
   1fbc0:	00a60533          	add	a0,a2,a0
   1fbc4:	02a76663          	bltu	a4,a0,1fbf0 <__udivdi3+0x5c0>
   1fbc8:	bca714e3          	bne	a4,a0,1f790 <__udivdi3+0x160>
   1fbcc:	00010737          	lui	a4,0x10
   1fbd0:	fff70713          	addi	a4,a4,-1 # ffff <main-0x75>
   1fbd4:	00e6f6b3          	and	a3,a3,a4
   1fbd8:	01069693          	slli	a3,a3,0x10
   1fbdc:	00e8f8b3          	and	a7,a7,a4
   1fbe0:	014b1633          	sll	a2,s6,s4
   1fbe4:	011686b3          	add	a3,a3,a7
   1fbe8:	00000a13          	li	s4,0
   1fbec:	ccd67ce3          	bleu	a3,a2,1f8c4 <__udivdi3+0x294>
   1fbf0:	fff78793          	addi	a5,a5,-1 # ffffff <__global_pointer$+0xfd9d8f>
   1fbf4:	b9dff06f          	j	1f790 <__udivdi3+0x160>
   1fbf8:	00000a13          	li	s4,0
   1fbfc:	00000793          	li	a5,0
   1fc00:	cc5ff06f          	j	1f8c4 <__udivdi3+0x294>

0001fc04 <__umoddi3>:
   1fc04:	fd010113          	addi	sp,sp,-48
   1fc08:	02812423          	sw	s0,40(sp)
   1fc0c:	02912223          	sw	s1,36(sp)
   1fc10:	01312e23          	sw	s3,28(sp)
   1fc14:	01612823          	sw	s6,16(sp)
   1fc18:	02112623          	sw	ra,44(sp)
   1fc1c:	03212023          	sw	s2,32(sp)
   1fc20:	01412c23          	sw	s4,24(sp)
   1fc24:	01512a23          	sw	s5,20(sp)
   1fc28:	01712623          	sw	s7,12(sp)
   1fc2c:	01812423          	sw	s8,8(sp)
   1fc30:	01912223          	sw	s9,4(sp)
   1fc34:	01a12023          	sw	s10,0(sp)
   1fc38:	00050b13          	mv	s6,a0
   1fc3c:	00058993          	mv	s3,a1
   1fc40:	00050413          	mv	s0,a0
   1fc44:	00058493          	mv	s1,a1
   1fc48:	26069c63          	bnez	a3,1fec0 <__umoddi3+0x2bc>
   1fc4c:	00024ab7          	lui	s5,0x24
   1fc50:	00060913          	mv	s2,a2
   1fc54:	00068a13          	mv	s4,a3
   1fc58:	21ca8a93          	addi	s5,s5,540 # 2421c <__clz_tab>
   1fc5c:	14c5f263          	bleu	a2,a1,1fda0 <__umoddi3+0x19c>
   1fc60:	000107b7          	lui	a5,0x10
   1fc64:	12f67463          	bleu	a5,a2,1fd8c <__umoddi3+0x188>
   1fc68:	0ff00793          	li	a5,255
   1fc6c:	00c7f463          	bleu	a2,a5,1fc74 <__umoddi3+0x70>
   1fc70:	00800a13          	li	s4,8
   1fc74:	014657b3          	srl	a5,a2,s4
   1fc78:	00fa8ab3          	add	s5,s5,a5
   1fc7c:	000ac703          	lbu	a4,0(s5)
   1fc80:	02000513          	li	a0,32
   1fc84:	01470733          	add	a4,a4,s4
   1fc88:	40e50a33          	sub	s4,a0,a4
   1fc8c:	000a0c63          	beqz	s4,1fca4 <__umoddi3+0xa0>
   1fc90:	014995b3          	sll	a1,s3,s4
   1fc94:	00eb5733          	srl	a4,s6,a4
   1fc98:	01461933          	sll	s2,a2,s4
   1fc9c:	00b764b3          	or	s1,a4,a1
   1fca0:	014b1433          	sll	s0,s6,s4
   1fca4:	01095a93          	srli	s5,s2,0x10
   1fca8:	000a8593          	mv	a1,s5
   1fcac:	00048513          	mv	a0,s1
   1fcb0:	e4cf30ef          	jal	ra,132fc <__umodsi3>
   1fcb4:	00050993          	mv	s3,a0
   1fcb8:	000a8593          	mv	a1,s5
   1fcbc:	01091b13          	slli	s6,s2,0x10
   1fcc0:	00048513          	mv	a0,s1
   1fcc4:	df0f30ef          	jal	ra,132b4 <__udivsi3>
   1fcc8:	010b5b13          	srli	s6,s6,0x10
   1fccc:	00050593          	mv	a1,a0
   1fcd0:	000b0513          	mv	a0,s6
   1fcd4:	db4f30ef          	jal	ra,13288 <__mulsi3>
   1fcd8:	01099993          	slli	s3,s3,0x10
   1fcdc:	01045793          	srli	a5,s0,0x10
   1fce0:	00f9e7b3          	or	a5,s3,a5
   1fce4:	00a7fa63          	bleu	a0,a5,1fcf8 <__umoddi3+0xf4>
   1fce8:	012787b3          	add	a5,a5,s2
   1fcec:	0127e663          	bltu	a5,s2,1fcf8 <__umoddi3+0xf4>
   1fcf0:	00a7f463          	bleu	a0,a5,1fcf8 <__umoddi3+0xf4>
   1fcf4:	012787b3          	add	a5,a5,s2
   1fcf8:	40a784b3          	sub	s1,a5,a0
   1fcfc:	000a8593          	mv	a1,s5
   1fd00:	00048513          	mv	a0,s1
   1fd04:	df8f30ef          	jal	ra,132fc <__umodsi3>
   1fd08:	00050993          	mv	s3,a0
   1fd0c:	000a8593          	mv	a1,s5
   1fd10:	00048513          	mv	a0,s1
   1fd14:	da0f30ef          	jal	ra,132b4 <__udivsi3>
   1fd18:	01041413          	slli	s0,s0,0x10
   1fd1c:	00050593          	mv	a1,a0
   1fd20:	01099993          	slli	s3,s3,0x10
   1fd24:	000b0513          	mv	a0,s6
   1fd28:	01045413          	srli	s0,s0,0x10
   1fd2c:	d5cf30ef          	jal	ra,13288 <__mulsi3>
   1fd30:	0089e433          	or	s0,s3,s0
   1fd34:	00a47a63          	bleu	a0,s0,1fd48 <__umoddi3+0x144>
   1fd38:	01240433          	add	s0,s0,s2
   1fd3c:	01246663          	bltu	s0,s2,1fd48 <__umoddi3+0x144>
   1fd40:	00a47463          	bleu	a0,s0,1fd48 <__umoddi3+0x144>
   1fd44:	01240433          	add	s0,s0,s2
   1fd48:	40a40433          	sub	s0,s0,a0
   1fd4c:	01445533          	srl	a0,s0,s4
   1fd50:	00000593          	li	a1,0
   1fd54:	02c12083          	lw	ra,44(sp)
   1fd58:	02812403          	lw	s0,40(sp)
   1fd5c:	02412483          	lw	s1,36(sp)
   1fd60:	02012903          	lw	s2,32(sp)
   1fd64:	01c12983          	lw	s3,28(sp)
   1fd68:	01812a03          	lw	s4,24(sp)
   1fd6c:	01412a83          	lw	s5,20(sp)
   1fd70:	01012b03          	lw	s6,16(sp)
   1fd74:	00c12b83          	lw	s7,12(sp)
   1fd78:	00812c03          	lw	s8,8(sp)
   1fd7c:	00412c83          	lw	s9,4(sp)
   1fd80:	00012d03          	lw	s10,0(sp)
   1fd84:	03010113          	addi	sp,sp,48
   1fd88:	00008067          	ret
   1fd8c:	010007b7          	lui	a5,0x1000
   1fd90:	01000a13          	li	s4,16
   1fd94:	eef660e3          	bltu	a2,a5,1fc74 <__umoddi3+0x70>
   1fd98:	01800a13          	li	s4,24
   1fd9c:	ed9ff06f          	j	1fc74 <__umoddi3+0x70>
   1fda0:	00061a63          	bnez	a2,1fdb4 <__umoddi3+0x1b0>
   1fda4:	00000593          	li	a1,0
   1fda8:	00100513          	li	a0,1
   1fdac:	d08f30ef          	jal	ra,132b4 <__udivsi3>
   1fdb0:	00050913          	mv	s2,a0
   1fdb4:	000107b7          	lui	a5,0x10
   1fdb8:	0ef97a63          	bleu	a5,s2,1feac <__umoddi3+0x2a8>
   1fdbc:	0ff00793          	li	a5,255
   1fdc0:	0127f463          	bleu	s2,a5,1fdc8 <__umoddi3+0x1c4>
   1fdc4:	00800a13          	li	s4,8
   1fdc8:	014957b3          	srl	a5,s2,s4
   1fdcc:	00fa8ab3          	add	s5,s5,a5
   1fdd0:	000ac703          	lbu	a4,0(s5)
   1fdd4:	02000513          	li	a0,32
   1fdd8:	412984b3          	sub	s1,s3,s2
   1fddc:	01470733          	add	a4,a4,s4
   1fde0:	40e50a33          	sub	s4,a0,a4
   1fde4:	ec0a00e3          	beqz	s4,1fca4 <__umoddi3+0xa0>
   1fde8:	01491933          	sll	s2,s2,s4
   1fdec:	00e9dab3          	srl	s5,s3,a4
   1fdf0:	014995b3          	sll	a1,s3,s4
   1fdf4:	00eb5733          	srl	a4,s6,a4
   1fdf8:	01095493          	srli	s1,s2,0x10
   1fdfc:	00b76bb3          	or	s7,a4,a1
   1fe00:	000a8513          	mv	a0,s5
   1fe04:	00048593          	mv	a1,s1
   1fe08:	cf4f30ef          	jal	ra,132fc <__umodsi3>
   1fe0c:	00050993          	mv	s3,a0
   1fe10:	00048593          	mv	a1,s1
   1fe14:	014b1433          	sll	s0,s6,s4
   1fe18:	000a8513          	mv	a0,s5
   1fe1c:	01091b13          	slli	s6,s2,0x10
   1fe20:	c94f30ef          	jal	ra,132b4 <__udivsi3>
   1fe24:	010b5b13          	srli	s6,s6,0x10
   1fe28:	00050593          	mv	a1,a0
   1fe2c:	000b0513          	mv	a0,s6
   1fe30:	c58f30ef          	jal	ra,13288 <__mulsi3>
   1fe34:	01099993          	slli	s3,s3,0x10
   1fe38:	010bd793          	srli	a5,s7,0x10
   1fe3c:	00f9e7b3          	or	a5,s3,a5
   1fe40:	00a7fa63          	bleu	a0,a5,1fe54 <__umoddi3+0x250>
   1fe44:	012787b3          	add	a5,a5,s2
   1fe48:	0127e663          	bltu	a5,s2,1fe54 <__umoddi3+0x250>
   1fe4c:	00a7f463          	bleu	a0,a5,1fe54 <__umoddi3+0x250>
   1fe50:	012787b3          	add	a5,a5,s2
   1fe54:	40a78ab3          	sub	s5,a5,a0
   1fe58:	00048593          	mv	a1,s1
   1fe5c:	000a8513          	mv	a0,s5
   1fe60:	c9cf30ef          	jal	ra,132fc <__umodsi3>
   1fe64:	00050993          	mv	s3,a0
   1fe68:	00048593          	mv	a1,s1
   1fe6c:	000a8513          	mv	a0,s5
   1fe70:	c44f30ef          	jal	ra,132b4 <__udivsi3>
   1fe74:	00050593          	mv	a1,a0
   1fe78:	000b0513          	mv	a0,s6
   1fe7c:	c0cf30ef          	jal	ra,13288 <__mulsi3>
   1fe80:	010b9593          	slli	a1,s7,0x10
   1fe84:	01099993          	slli	s3,s3,0x10
   1fe88:	0105d593          	srli	a1,a1,0x10
   1fe8c:	00b9e5b3          	or	a1,s3,a1
   1fe90:	00a5fa63          	bleu	a0,a1,1fea4 <__umoddi3+0x2a0>
   1fe94:	012585b3          	add	a1,a1,s2
   1fe98:	0125e663          	bltu	a1,s2,1fea4 <__umoddi3+0x2a0>
   1fe9c:	00a5f463          	bleu	a0,a1,1fea4 <__umoddi3+0x2a0>
   1fea0:	012585b3          	add	a1,a1,s2
   1fea4:	40a584b3          	sub	s1,a1,a0
   1fea8:	dfdff06f          	j	1fca4 <__umoddi3+0xa0>
   1feac:	010007b7          	lui	a5,0x1000
   1feb0:	01000a13          	li	s4,16
   1feb4:	f0f96ae3          	bltu	s2,a5,1fdc8 <__umoddi3+0x1c4>
   1feb8:	01800a13          	li	s4,24
   1febc:	f0dff06f          	j	1fdc8 <__umoddi3+0x1c4>
   1fec0:	e8d5eae3          	bltu	a1,a3,1fd54 <__umoddi3+0x150>
   1fec4:	000107b7          	lui	a5,0x10
   1fec8:	04f6fc63          	bleu	a5,a3,1ff20 <__umoddi3+0x31c>
   1fecc:	0ff00a93          	li	s5,255
   1fed0:	00dab533          	sltu	a0,s5,a3
   1fed4:	00351513          	slli	a0,a0,0x3
   1fed8:	00024737          	lui	a4,0x24
   1fedc:	00a6d7b3          	srl	a5,a3,a0
   1fee0:	21c70713          	addi	a4,a4,540 # 2421c <__clz_tab>
   1fee4:	00e787b3          	add	a5,a5,a4
   1fee8:	0007ca83          	lbu	s5,0(a5) # 10000 <main-0x74>
   1feec:	02000593          	li	a1,32
   1fef0:	00aa8ab3          	add	s5,s5,a0
   1fef4:	41558a33          	sub	s4,a1,s5
   1fef8:	020a1e63          	bnez	s4,1ff34 <__umoddi3+0x330>
   1fefc:	0136e463          	bltu	a3,s3,1ff04 <__umoddi3+0x300>
   1ff00:	00cb6a63          	bltu	s6,a2,1ff14 <__umoddi3+0x310>
   1ff04:	40cb0433          	sub	s0,s6,a2
   1ff08:	40d986b3          	sub	a3,s3,a3
   1ff0c:	008b3b33          	sltu	s6,s6,s0
   1ff10:	416684b3          	sub	s1,a3,s6
   1ff14:	00040513          	mv	a0,s0
   1ff18:	00048593          	mv	a1,s1
   1ff1c:	e39ff06f          	j	1fd54 <__umoddi3+0x150>
   1ff20:	010007b7          	lui	a5,0x1000
   1ff24:	01000513          	li	a0,16
   1ff28:	faf6e8e3          	bltu	a3,a5,1fed8 <__umoddi3+0x2d4>
   1ff2c:	01800513          	li	a0,24
   1ff30:	fa9ff06f          	j	1fed8 <__umoddi3+0x2d4>
   1ff34:	014696b3          	sll	a3,a3,s4
   1ff38:	015657b3          	srl	a5,a2,s5
   1ff3c:	00d7ebb3          	or	s7,a5,a3
   1ff40:	0159d433          	srl	s0,s3,s5
   1ff44:	014995b3          	sll	a1,s3,s4
   1ff48:	015b54b3          	srl	s1,s6,s5
   1ff4c:	010bdc13          	srli	s8,s7,0x10
   1ff50:	00b4e4b3          	or	s1,s1,a1
   1ff54:	00040513          	mv	a0,s0
   1ff58:	000c0593          	mv	a1,s8
   1ff5c:	01461d33          	sll	s10,a2,s4
   1ff60:	b9cf30ef          	jal	ra,132fc <__umodsi3>
   1ff64:	00050993          	mv	s3,a0
   1ff68:	000c0593          	mv	a1,s8
   1ff6c:	00040513          	mv	a0,s0
   1ff70:	010b9c93          	slli	s9,s7,0x10
   1ff74:	b40f30ef          	jal	ra,132b4 <__udivsi3>
   1ff78:	010cdc93          	srli	s9,s9,0x10
   1ff7c:	00050413          	mv	s0,a0
   1ff80:	00050593          	mv	a1,a0
   1ff84:	000c8513          	mv	a0,s9
   1ff88:	b00f30ef          	jal	ra,13288 <__mulsi3>
   1ff8c:	01099993          	slli	s3,s3,0x10
   1ff90:	0104d713          	srli	a4,s1,0x10
   1ff94:	00e9e733          	or	a4,s3,a4
   1ff98:	014b1b33          	sll	s6,s6,s4
   1ff9c:	00040993          	mv	s3,s0
   1ffa0:	00a77e63          	bleu	a0,a4,1ffbc <__umoddi3+0x3b8>
   1ffa4:	01770733          	add	a4,a4,s7
   1ffa8:	fff40993          	addi	s3,s0,-1
   1ffac:	01776863          	bltu	a4,s7,1ffbc <__umoddi3+0x3b8>
   1ffb0:	00a77663          	bleu	a0,a4,1ffbc <__umoddi3+0x3b8>
   1ffb4:	ffe40993          	addi	s3,s0,-2
   1ffb8:	01770733          	add	a4,a4,s7
   1ffbc:	40a70933          	sub	s2,a4,a0
   1ffc0:	000c0593          	mv	a1,s8
   1ffc4:	00090513          	mv	a0,s2
   1ffc8:	b34f30ef          	jal	ra,132fc <__umodsi3>
   1ffcc:	00050413          	mv	s0,a0
   1ffd0:	000c0593          	mv	a1,s8
   1ffd4:	00090513          	mv	a0,s2
   1ffd8:	adcf30ef          	jal	ra,132b4 <__udivsi3>
   1ffdc:	00050593          	mv	a1,a0
   1ffe0:	00050913          	mv	s2,a0
   1ffe4:	000c8513          	mv	a0,s9
   1ffe8:	aa0f30ef          	jal	ra,13288 <__mulsi3>
   1ffec:	01049593          	slli	a1,s1,0x10
   1fff0:	01041413          	slli	s0,s0,0x10
   1fff4:	0105d593          	srli	a1,a1,0x10
   1fff8:	00b465b3          	or	a1,s0,a1
   1fffc:	00090793          	mv	a5,s2
   20000:	00a5fe63          	bleu	a0,a1,2001c <__umoddi3+0x418>
   20004:	017585b3          	add	a1,a1,s7
   20008:	fff90793          	addi	a5,s2,-1
   2000c:	0175e863          	bltu	a1,s7,2001c <__umoddi3+0x418>
   20010:	00a5f663          	bleu	a0,a1,2001c <__umoddi3+0x418>
   20014:	ffe90793          	addi	a5,s2,-2
   20018:	017585b3          	add	a1,a1,s7
   2001c:	00010e37          	lui	t3,0x10
   20020:	01099993          	slli	s3,s3,0x10
   20024:	00f9e9b3          	or	s3,s3,a5
   20028:	fffe0813          	addi	a6,t3,-1 # ffff <main-0x75>
   2002c:	0109f733          	and	a4,s3,a6
   20030:	010d7833          	and	a6,s10,a6
   20034:	40a584b3          	sub	s1,a1,a0
   20038:	0109d993          	srli	s3,s3,0x10
   2003c:	010d5893          	srli	a7,s10,0x10
   20040:	00070513          	mv	a0,a4
   20044:	00080593          	mv	a1,a6
   20048:	a40f30ef          	jal	ra,13288 <__mulsi3>
   2004c:	00050793          	mv	a5,a0
   20050:	00088593          	mv	a1,a7
   20054:	00070513          	mv	a0,a4
   20058:	a30f30ef          	jal	ra,13288 <__mulsi3>
   2005c:	00050313          	mv	t1,a0
   20060:	00080593          	mv	a1,a6
   20064:	00098513          	mv	a0,s3
   20068:	a20f30ef          	jal	ra,13288 <__mulsi3>
   2006c:	00050813          	mv	a6,a0
   20070:	00088593          	mv	a1,a7
   20074:	00098513          	mv	a0,s3
   20078:	a10f30ef          	jal	ra,13288 <__mulsi3>
   2007c:	0107d713          	srli	a4,a5,0x10
   20080:	01030333          	add	t1,t1,a6
   20084:	00670733          	add	a4,a4,t1
   20088:	01077463          	bleu	a6,a4,20090 <__umoddi3+0x48c>
   2008c:	01c50533          	add	a0,a0,t3
   20090:	000106b7          	lui	a3,0x10
   20094:	fff68693          	addi	a3,a3,-1 # ffff <main-0x75>
   20098:	01075593          	srli	a1,a4,0x10
   2009c:	00d77733          	and	a4,a4,a3
   200a0:	01071713          	slli	a4,a4,0x10
   200a4:	00d7f7b3          	and	a5,a5,a3
   200a8:	00a585b3          	add	a1,a1,a0
   200ac:	00f707b3          	add	a5,a4,a5
   200b0:	00b4e663          	bltu	s1,a1,200bc <__umoddi3+0x4b8>
   200b4:	00b49e63          	bne	s1,a1,200d0 <__umoddi3+0x4cc>
   200b8:	00fb7c63          	bleu	a5,s6,200d0 <__umoddi3+0x4cc>
   200bc:	41a78633          	sub	a2,a5,s10
   200c0:	00c7b7b3          	sltu	a5,a5,a2
   200c4:	017787b3          	add	a5,a5,s7
   200c8:	40f585b3          	sub	a1,a1,a5
   200cc:	00060793          	mv	a5,a2
   200d0:	40fb07b3          	sub	a5,s6,a5
   200d4:	00fb3b33          	sltu	s6,s6,a5
   200d8:	40b485b3          	sub	a1,s1,a1
   200dc:	416585b3          	sub	a1,a1,s6
   200e0:	01559433          	sll	s0,a1,s5
   200e4:	0147d7b3          	srl	a5,a5,s4
   200e8:	00f46533          	or	a0,s0,a5
   200ec:	0145d5b3          	srl	a1,a1,s4
   200f0:	c65ff06f          	j	1fd54 <__umoddi3+0x150>

000200f4 <__muldf3>:
   200f4:	fd010113          	addi	sp,sp,-48
   200f8:	03212023          	sw	s2,32(sp)
   200fc:	0145d913          	srli	s2,a1,0x14
   20100:	01312e23          	sw	s3,28(sp)
   20104:	01412c23          	sw	s4,24(sp)
   20108:	01512a23          	sw	s5,20(sp)
   2010c:	01612823          	sw	s6,16(sp)
   20110:	01712623          	sw	s7,12(sp)
   20114:	00c59a93          	slli	s5,a1,0xc
   20118:	02112623          	sw	ra,44(sp)
   2011c:	02812423          	sw	s0,40(sp)
   20120:	02912223          	sw	s1,36(sp)
   20124:	7ff97913          	andi	s2,s2,2047
   20128:	00050b13          	mv	s6,a0
   2012c:	00060b93          	mv	s7,a2
   20130:	00068a13          	mv	s4,a3
   20134:	00cada93          	srli	s5,s5,0xc
   20138:	01f5d993          	srli	s3,a1,0x1f
   2013c:	0a090463          	beqz	s2,201e4 <__muldf3+0xf0>
   20140:	7ff00793          	li	a5,2047
   20144:	10f90263          	beq	s2,a5,20248 <__muldf3+0x154>
   20148:	01d55413          	srli	s0,a0,0x1d
   2014c:	003a9a93          	slli	s5,s5,0x3
   20150:	01546ab3          	or	s5,s0,s5
   20154:	00800437          	lui	s0,0x800
   20158:	008ae433          	or	s0,s5,s0
   2015c:	00351493          	slli	s1,a0,0x3
   20160:	c0190913          	addi	s2,s2,-1023
   20164:	00000b13          	li	s6,0
   20168:	014a5513          	srli	a0,s4,0x14
   2016c:	00ca1a93          	slli	s5,s4,0xc
   20170:	7ff57513          	andi	a0,a0,2047
   20174:	000b8713          	mv	a4,s7
   20178:	00cada93          	srli	s5,s5,0xc
   2017c:	01fa5a13          	srli	s4,s4,0x1f
   20180:	10050263          	beqz	a0,20284 <__muldf3+0x190>
   20184:	7ff00793          	li	a5,2047
   20188:	16f50263          	beq	a0,a5,202ec <__muldf3+0x1f8>
   2018c:	01dbd793          	srli	a5,s7,0x1d
   20190:	003a9a93          	slli	s5,s5,0x3
   20194:	0157eab3          	or	s5,a5,s5
   20198:	008007b7          	lui	a5,0x800
   2019c:	00fae7b3          	or	a5,s5,a5
   201a0:	003b9713          	slli	a4,s7,0x3
   201a4:	c0150513          	addi	a0,a0,-1023
   201a8:	00000693          	li	a3,0
   201ac:	002b1613          	slli	a2,s6,0x2
   201b0:	00d66633          	or	a2,a2,a3
   201b4:	00a90933          	add	s2,s2,a0
   201b8:	fff60613          	addi	a2,a2,-1
   201bc:	00e00593          	li	a1,14
   201c0:	0149c833          	xor	a6,s3,s4
   201c4:	00190893          	addi	a7,s2,1
   201c8:	14c5ee63          	bltu	a1,a2,20324 <__muldf3+0x230>
   201cc:	000255b7          	lui	a1,0x25
   201d0:	00261613          	slli	a2,a2,0x2
   201d4:	e4058593          	addi	a1,a1,-448 # 24e40 <zeroes.4476+0x10>
   201d8:	00b60633          	add	a2,a2,a1
   201dc:	00062603          	lw	a2,0(a2)
   201e0:	00060067          	jr	a2
   201e4:	00aae433          	or	s0,s5,a0
   201e8:	06040e63          	beqz	s0,20264 <__muldf3+0x170>
   201ec:	040a8063          	beqz	s5,2022c <__muldf3+0x138>
   201f0:	000a8513          	mv	a0,s5
   201f4:	96cf30ef          	jal	ra,13360 <__clzsi2>
   201f8:	ff550793          	addi	a5,a0,-11
   201fc:	01c00713          	li	a4,28
   20200:	02f74c63          	blt	a4,a5,20238 <__muldf3+0x144>
   20204:	01d00413          	li	s0,29
   20208:	ff850493          	addi	s1,a0,-8
   2020c:	40f40433          	sub	s0,s0,a5
   20210:	009a9ab3          	sll	s5,s5,s1
   20214:	008b5433          	srl	s0,s6,s0
   20218:	01546433          	or	s0,s0,s5
   2021c:	009b14b3          	sll	s1,s6,s1
   20220:	c0d00913          	li	s2,-1011
   20224:	40a90933          	sub	s2,s2,a0
   20228:	f3dff06f          	j	20164 <__muldf3+0x70>
   2022c:	934f30ef          	jal	ra,13360 <__clzsi2>
   20230:	02050513          	addi	a0,a0,32
   20234:	fc5ff06f          	j	201f8 <__muldf3+0x104>
   20238:	fd850413          	addi	s0,a0,-40
   2023c:	008b1433          	sll	s0,s6,s0
   20240:	00000493          	li	s1,0
   20244:	fddff06f          	j	20220 <__muldf3+0x12c>
   20248:	00aae433          	or	s0,s5,a0
   2024c:	02040463          	beqz	s0,20274 <__muldf3+0x180>
   20250:	00050493          	mv	s1,a0
   20254:	000a8413          	mv	s0,s5
   20258:	7ff00913          	li	s2,2047
   2025c:	00300b13          	li	s6,3
   20260:	f09ff06f          	j	20168 <__muldf3+0x74>
   20264:	00000493          	li	s1,0
   20268:	00000913          	li	s2,0
   2026c:	00100b13          	li	s6,1
   20270:	ef9ff06f          	j	20168 <__muldf3+0x74>
   20274:	00000493          	li	s1,0
   20278:	7ff00913          	li	s2,2047
   2027c:	00200b13          	li	s6,2
   20280:	ee9ff06f          	j	20168 <__muldf3+0x74>
   20284:	017ae7b3          	or	a5,s5,s7
   20288:	06078e63          	beqz	a5,20304 <__muldf3+0x210>
   2028c:	040a8063          	beqz	s5,202cc <__muldf3+0x1d8>
   20290:	000a8513          	mv	a0,s5
   20294:	8ccf30ef          	jal	ra,13360 <__clzsi2>
   20298:	ff550693          	addi	a3,a0,-11
   2029c:	01c00793          	li	a5,28
   202a0:	02d7ce63          	blt	a5,a3,202dc <__muldf3+0x1e8>
   202a4:	01d00793          	li	a5,29
   202a8:	ff850713          	addi	a4,a0,-8
   202ac:	40d787b3          	sub	a5,a5,a3
   202b0:	00ea9ab3          	sll	s5,s5,a4
   202b4:	00fbd7b3          	srl	a5,s7,a5
   202b8:	0157e7b3          	or	a5,a5,s5
   202bc:	00eb9733          	sll	a4,s7,a4
   202c0:	c0d00613          	li	a2,-1011
   202c4:	40a60533          	sub	a0,a2,a0
   202c8:	ee1ff06f          	j	201a8 <__muldf3+0xb4>
   202cc:	000b8513          	mv	a0,s7
   202d0:	890f30ef          	jal	ra,13360 <__clzsi2>
   202d4:	02050513          	addi	a0,a0,32
   202d8:	fc1ff06f          	j	20298 <__muldf3+0x1a4>
   202dc:	fd850793          	addi	a5,a0,-40
   202e0:	00fb97b3          	sll	a5,s7,a5
   202e4:	00000713          	li	a4,0
   202e8:	fd9ff06f          	j	202c0 <__muldf3+0x1cc>
   202ec:	017ae7b3          	or	a5,s5,s7
   202f0:	02078263          	beqz	a5,20314 <__muldf3+0x220>
   202f4:	000a8793          	mv	a5,s5
   202f8:	7ff00513          	li	a0,2047
   202fc:	00300693          	li	a3,3
   20300:	eadff06f          	j	201ac <__muldf3+0xb8>
   20304:	00000713          	li	a4,0
   20308:	00000513          	li	a0,0
   2030c:	00100693          	li	a3,1
   20310:	e9dff06f          	j	201ac <__muldf3+0xb8>
   20314:	00000713          	li	a4,0
   20318:	7ff00513          	li	a0,2047
   2031c:	00200693          	li	a3,2
   20320:	e8dff06f          	j	201ac <__muldf3+0xb8>
   20324:	000103b7          	lui	t2,0x10
   20328:	fff38313          	addi	t1,t2,-1 # ffff <main-0x75>
   2032c:	0104df93          	srli	t6,s1,0x10
   20330:	01075293          	srli	t0,a4,0x10
   20334:	0064f4b3          	and	s1,s1,t1
   20338:	00677733          	and	a4,a4,t1
   2033c:	00048513          	mv	a0,s1
   20340:	00070593          	mv	a1,a4
   20344:	f45f20ef          	jal	ra,13288 <__mulsi3>
   20348:	00050e93          	mv	t4,a0
   2034c:	00028593          	mv	a1,t0
   20350:	00048513          	mv	a0,s1
   20354:	f35f20ef          	jal	ra,13288 <__mulsi3>
   20358:	00050e13          	mv	t3,a0
   2035c:	00070593          	mv	a1,a4
   20360:	000f8513          	mv	a0,t6
   20364:	f25f20ef          	jal	ra,13288 <__mulsi3>
   20368:	00050993          	mv	s3,a0
   2036c:	00028593          	mv	a1,t0
   20370:	000f8513          	mv	a0,t6
   20374:	f15f20ef          	jal	ra,13288 <__mulsi3>
   20378:	010ed693          	srli	a3,t4,0x10
   2037c:	013e0e33          	add	t3,t3,s3
   20380:	01c686b3          	add	a3,a3,t3
   20384:	00050f13          	mv	t5,a0
   20388:	0136f463          	bleu	s3,a3,20390 <__muldf3+0x29c>
   2038c:	00750f33          	add	t5,a0,t2
   20390:	0066fe33          	and	t3,a3,t1
   20394:	006efeb3          	and	t4,t4,t1
   20398:	0107d993          	srli	s3,a5,0x10
   2039c:	010e1e13          	slli	t3,t3,0x10
   203a0:	0067f7b3          	and	a5,a5,t1
   203a4:	0106d393          	srli	t2,a3,0x10
   203a8:	01de0e33          	add	t3,t3,t4
   203ac:	00048513          	mv	a0,s1
   203b0:	00078593          	mv	a1,a5
   203b4:	ed5f20ef          	jal	ra,13288 <__mulsi3>
   203b8:	00050e93          	mv	t4,a0
   203bc:	00098593          	mv	a1,s3
   203c0:	00048513          	mv	a0,s1
   203c4:	ec5f20ef          	jal	ra,13288 <__mulsi3>
   203c8:	00050313          	mv	t1,a0
   203cc:	00078593          	mv	a1,a5
   203d0:	000f8513          	mv	a0,t6
   203d4:	eb5f20ef          	jal	ra,13288 <__mulsi3>
   203d8:	00050493          	mv	s1,a0
   203dc:	00098593          	mv	a1,s3
   203e0:	000f8513          	mv	a0,t6
   203e4:	ea5f20ef          	jal	ra,13288 <__mulsi3>
   203e8:	010ed613          	srli	a2,t4,0x10
   203ec:	00930333          	add	t1,t1,s1
   203f0:	00660633          	add	a2,a2,t1
   203f4:	00967663          	bleu	s1,a2,20400 <__muldf3+0x30c>
   203f8:	000106b7          	lui	a3,0x10
   203fc:	00d50533          	add	a0,a0,a3
   20400:	01065693          	srli	a3,a2,0x10
   20404:	00010ab7          	lui	s5,0x10
   20408:	00a68fb3          	add	t6,a3,a0
   2040c:	fffa8693          	addi	a3,s5,-1 # ffff <main-0x75>
   20410:	00d67633          	and	a2,a2,a3
   20414:	01061613          	slli	a2,a2,0x10
   20418:	00defeb3          	and	t4,t4,a3
   2041c:	01d60eb3          	add	t4,a2,t4
   20420:	01045493          	srli	s1,s0,0x10
   20424:	00d47433          	and	s0,s0,a3
   20428:	01d383b3          	add	t2,t2,t4
   2042c:	00040513          	mv	a0,s0
   20430:	00070593          	mv	a1,a4
   20434:	e55f20ef          	jal	ra,13288 <__mulsi3>
   20438:	00050a13          	mv	s4,a0
   2043c:	00028593          	mv	a1,t0
   20440:	00040513          	mv	a0,s0
   20444:	e45f20ef          	jal	ra,13288 <__mulsi3>
   20448:	00050313          	mv	t1,a0
   2044c:	00070593          	mv	a1,a4
   20450:	00048513          	mv	a0,s1
   20454:	e35f20ef          	jal	ra,13288 <__mulsi3>
   20458:	00050b13          	mv	s6,a0
   2045c:	00028593          	mv	a1,t0
   20460:	00048513          	mv	a0,s1
   20464:	e25f20ef          	jal	ra,13288 <__mulsi3>
   20468:	010a5713          	srli	a4,s4,0x10
   2046c:	01630333          	add	t1,t1,s6
   20470:	00670733          	add	a4,a4,t1
   20474:	01677463          	bleu	s6,a4,2047c <__muldf3+0x388>
   20478:	01550533          	add	a0,a0,s5
   2047c:	00010ab7          	lui	s5,0x10
   20480:	fffa8693          	addi	a3,s5,-1 # ffff <main-0x75>
   20484:	00d77333          	and	t1,a4,a3
   20488:	01075593          	srli	a1,a4,0x10
   2048c:	00da7a33          	and	s4,s4,a3
   20490:	01031313          	slli	t1,t1,0x10
   20494:	00a582b3          	add	t0,a1,a0
   20498:	01430333          	add	t1,t1,s4
   2049c:	00040513          	mv	a0,s0
   204a0:	00078593          	mv	a1,a5
   204a4:	de5f20ef          	jal	ra,13288 <__mulsi3>
   204a8:	00050713          	mv	a4,a0
   204ac:	00098593          	mv	a1,s3
   204b0:	00040513          	mv	a0,s0
   204b4:	dd5f20ef          	jal	ra,13288 <__mulsi3>
   204b8:	00050413          	mv	s0,a0
   204bc:	00078593          	mv	a1,a5
   204c0:	00048513          	mv	a0,s1
   204c4:	dc5f20ef          	jal	ra,13288 <__mulsi3>
   204c8:	00050a13          	mv	s4,a0
   204cc:	00098593          	mv	a1,s3
   204d0:	00048513          	mv	a0,s1
   204d4:	db5f20ef          	jal	ra,13288 <__mulsi3>
   204d8:	01075613          	srli	a2,a4,0x10
   204dc:	01440433          	add	s0,s0,s4
   204e0:	00860633          	add	a2,a2,s0
   204e4:	01467463          	bleu	s4,a2,204ec <__muldf3+0x3f8>
   204e8:	01550533          	add	a0,a0,s5
   204ec:	000107b7          	lui	a5,0x10
   204f0:	fff78793          	addi	a5,a5,-1 # ffff <main-0x75>
   204f4:	00f676b3          	and	a3,a2,a5
   204f8:	00f77733          	and	a4,a4,a5
   204fc:	01069693          	slli	a3,a3,0x10
   20500:	01e383b3          	add	t2,t2,t5
   20504:	00e686b3          	add	a3,a3,a4
   20508:	01d3beb3          	sltu	t4,t2,t4
   2050c:	01f686b3          	add	a3,a3,t6
   20510:	01d687b3          	add	a5,a3,t4
   20514:	006383b3          	add	t2,t2,t1
   20518:	005785b3          	add	a1,a5,t0
   2051c:	0063b333          	sltu	t1,t2,t1
   20520:	00658f33          	add	t5,a1,t1
   20524:	01f6b6b3          	sltu	a3,a3,t6
   20528:	01d7b7b3          	sltu	a5,a5,t4
   2052c:	00f6e7b3          	or	a5,a3,a5
   20530:	01065613          	srli	a2,a2,0x10
   20534:	0055b5b3          	sltu	a1,a1,t0
   20538:	006f3333          	sltu	t1,t5,t1
   2053c:	00c787b3          	add	a5,a5,a2
   20540:	0065e333          	or	t1,a1,t1
   20544:	006787b3          	add	a5,a5,t1
   20548:	00939713          	slli	a4,t2,0x9
   2054c:	00a787b3          	add	a5,a5,a0
   20550:	01c76733          	or	a4,a4,t3
   20554:	00979793          	slli	a5,a5,0x9
   20558:	017f5513          	srli	a0,t5,0x17
   2055c:	00e03733          	snez	a4,a4
   20560:	0173de13          	srli	t3,t2,0x17
   20564:	009f1693          	slli	a3,t5,0x9
   20568:	00a7e7b3          	or	a5,a5,a0
   2056c:	01c76733          	or	a4,a4,t3
   20570:	00d76733          	or	a4,a4,a3
   20574:	00779693          	slli	a3,a5,0x7
   20578:	1006d263          	bgez	a3,2067c <__muldf3+0x588>
   2057c:	00175693          	srli	a3,a4,0x1
   20580:	00177713          	andi	a4,a4,1
   20584:	00e6e733          	or	a4,a3,a4
   20588:	01f79693          	slli	a3,a5,0x1f
   2058c:	00d76733          	or	a4,a4,a3
   20590:	0017d793          	srli	a5,a5,0x1
   20594:	3ff88613          	addi	a2,a7,1023
   20598:	0ec05663          	blez	a2,20684 <__muldf3+0x590>
   2059c:	00777693          	andi	a3,a4,7
   205a0:	02068063          	beqz	a3,205c0 <__muldf3+0x4cc>
   205a4:	00f77693          	andi	a3,a4,15
   205a8:	00400593          	li	a1,4
   205ac:	00b68a63          	beq	a3,a1,205c0 <__muldf3+0x4cc>
   205b0:	00470693          	addi	a3,a4,4
   205b4:	00e6b733          	sltu	a4,a3,a4
   205b8:	00e787b3          	add	a5,a5,a4
   205bc:	00068713          	mv	a4,a3
   205c0:	00779693          	slli	a3,a5,0x7
   205c4:	0006da63          	bgez	a3,205d8 <__muldf3+0x4e4>
   205c8:	ff0006b7          	lui	a3,0xff000
   205cc:	fff68693          	addi	a3,a3,-1 # feffffff <__global_pointer$+0xfefd9d8f>
   205d0:	00d7f7b3          	and	a5,a5,a3
   205d4:	40088613          	addi	a2,a7,1024
   205d8:	7fe00693          	li	a3,2046
   205dc:	16c6c663          	blt	a3,a2,20748 <__muldf3+0x654>
   205e0:	00375693          	srli	a3,a4,0x3
   205e4:	01d79713          	slli	a4,a5,0x1d
   205e8:	00d76733          	or	a4,a4,a3
   205ec:	0037d793          	srli	a5,a5,0x3
   205f0:	00c79793          	slli	a5,a5,0xc
   205f4:	7ff67693          	andi	a3,a2,2047
   205f8:	01469693          	slli	a3,a3,0x14
   205fc:	02c12083          	lw	ra,44(sp)
   20600:	02812403          	lw	s0,40(sp)
   20604:	00c7d793          	srli	a5,a5,0xc
   20608:	01f81813          	slli	a6,a6,0x1f
   2060c:	00d7e7b3          	or	a5,a5,a3
   20610:	0107e6b3          	or	a3,a5,a6
   20614:	02412483          	lw	s1,36(sp)
   20618:	02012903          	lw	s2,32(sp)
   2061c:	01c12983          	lw	s3,28(sp)
   20620:	01812a03          	lw	s4,24(sp)
   20624:	01412a83          	lw	s5,20(sp)
   20628:	01012b03          	lw	s6,16(sp)
   2062c:	00c12b83          	lw	s7,12(sp)
   20630:	00070513          	mv	a0,a4
   20634:	00068593          	mv	a1,a3
   20638:	03010113          	addi	sp,sp,48
   2063c:	00008067          	ret
   20640:	00098813          	mv	a6,s3
   20644:	00040793          	mv	a5,s0
   20648:	00048713          	mv	a4,s1
   2064c:	000b0693          	mv	a3,s6
   20650:	00200613          	li	a2,2
   20654:	0ec68a63          	beq	a3,a2,20748 <__muldf3+0x654>
   20658:	00300613          	li	a2,3
   2065c:	0cc68c63          	beq	a3,a2,20734 <__muldf3+0x640>
   20660:	00100613          	li	a2,1
   20664:	f2c698e3          	bne	a3,a2,20594 <__muldf3+0x4a0>
   20668:	00000793          	li	a5,0
   2066c:	00000713          	li	a4,0
   20670:	0880006f          	j	206f8 <__muldf3+0x604>
   20674:	000a0813          	mv	a6,s4
   20678:	fd9ff06f          	j	20650 <__muldf3+0x55c>
   2067c:	00090893          	mv	a7,s2
   20680:	f15ff06f          	j	20594 <__muldf3+0x4a0>
   20684:	00100593          	li	a1,1
   20688:	40c585b3          	sub	a1,a1,a2
   2068c:	03800693          	li	a3,56
   20690:	fcb6cce3          	blt	a3,a1,20668 <__muldf3+0x574>
   20694:	01f00693          	li	a3,31
   20698:	06b6c463          	blt	a3,a1,20700 <__muldf3+0x60c>
   2069c:	41e88893          	addi	a7,a7,1054
   206a0:	011796b3          	sll	a3,a5,a7
   206a4:	00b75633          	srl	a2,a4,a1
   206a8:	01171733          	sll	a4,a4,a7
   206ac:	00c6e6b3          	or	a3,a3,a2
   206b0:	00e03733          	snez	a4,a4
   206b4:	00e6e733          	or	a4,a3,a4
   206b8:	00b7d7b3          	srl	a5,a5,a1
   206bc:	00777693          	andi	a3,a4,7
   206c0:	02068063          	beqz	a3,206e0 <__muldf3+0x5ec>
   206c4:	00f77693          	andi	a3,a4,15
   206c8:	00400613          	li	a2,4
   206cc:	00c68a63          	beq	a3,a2,206e0 <__muldf3+0x5ec>
   206d0:	00470693          	addi	a3,a4,4
   206d4:	00e6b733          	sltu	a4,a3,a4
   206d8:	00e787b3          	add	a5,a5,a4
   206dc:	00068713          	mv	a4,a3
   206e0:	00879693          	slli	a3,a5,0x8
   206e4:	0606ca63          	bltz	a3,20758 <__muldf3+0x664>
   206e8:	01d79693          	slli	a3,a5,0x1d
   206ec:	00375713          	srli	a4,a4,0x3
   206f0:	00e6e733          	or	a4,a3,a4
   206f4:	0037d793          	srli	a5,a5,0x3
   206f8:	00000613          	li	a2,0
   206fc:	ef5ff06f          	j	205f0 <__muldf3+0x4fc>
   20700:	fe100693          	li	a3,-31
   20704:	40c686b3          	sub	a3,a3,a2
   20708:	02000513          	li	a0,32
   2070c:	00d7d6b3          	srl	a3,a5,a3
   20710:	00000613          	li	a2,0
   20714:	00a58663          	beq	a1,a0,20720 <__muldf3+0x62c>
   20718:	43e88893          	addi	a7,a7,1086
   2071c:	01179633          	sll	a2,a5,a7
   20720:	00e66733          	or	a4,a2,a4
   20724:	00e03733          	snez	a4,a4
   20728:	00e6e733          	or	a4,a3,a4
   2072c:	00000793          	li	a5,0
   20730:	f8dff06f          	j	206bc <__muldf3+0x5c8>
   20734:	000807b7          	lui	a5,0x80
   20738:	00000713          	li	a4,0
   2073c:	7ff00613          	li	a2,2047
   20740:	00000813          	li	a6,0
   20744:	eadff06f          	j	205f0 <__muldf3+0x4fc>
   20748:	00000793          	li	a5,0
   2074c:	00000713          	li	a4,0
   20750:	7ff00613          	li	a2,2047
   20754:	e9dff06f          	j	205f0 <__muldf3+0x4fc>
   20758:	00000793          	li	a5,0
   2075c:	00000713          	li	a4,0
   20760:	00100613          	li	a2,1
   20764:	e8dff06f          	j	205f0 <__muldf3+0x4fc>

00020768 <__eqtf2>:
   20768:	00c52783          	lw	a5,12(a0)
   2076c:	0005af03          	lw	t5,0(a1)
   20770:	0045af83          	lw	t6,4(a1)
   20774:	0085a283          	lw	t0,8(a1)
   20778:	00c5a583          	lw	a1,12(a1)
   2077c:	00008737          	lui	a4,0x8
   20780:	0107d693          	srli	a3,a5,0x10
   20784:	fff70713          	addi	a4,a4,-1 # 7fff <main-0x8075>
   20788:	01079813          	slli	a6,a5,0x10
   2078c:	01059e93          	slli	t4,a1,0x10
   20790:	01f7d613          	srli	a2,a5,0x1f
   20794:	00e6f6b3          	and	a3,a3,a4
   20798:	0105d793          	srli	a5,a1,0x10
   2079c:	ff010113          	addi	sp,sp,-16
   207a0:	00052883          	lw	a7,0(a0)
   207a4:	00452303          	lw	t1,4(a0)
   207a8:	00852e03          	lw	t3,8(a0)
   207ac:	01085813          	srli	a6,a6,0x10
   207b0:	010ede93          	srli	t4,t4,0x10
   207b4:	00e7f7b3          	and	a5,a5,a4
   207b8:	01f5d593          	srli	a1,a1,0x1f
   207bc:	02e69063          	bne	a3,a4,207dc <__eqtf2+0x74>
   207c0:	0068e733          	or	a4,a7,t1
   207c4:	01c76733          	or	a4,a4,t3
   207c8:	01076733          	or	a4,a4,a6
   207cc:	00100513          	li	a0,1
   207d0:	04071a63          	bnez	a4,20824 <__eqtf2+0xbc>
   207d4:	04d79863          	bne	a5,a3,20824 <__eqtf2+0xbc>
   207d8:	0080006f          	j	207e0 <__eqtf2+0x78>
   207dc:	00e79c63          	bne	a5,a4,207f4 <__eqtf2+0x8c>
   207e0:	01ff6733          	or	a4,t5,t6
   207e4:	00576733          	or	a4,a4,t0
   207e8:	01d76733          	or	a4,a4,t4
   207ec:	00100513          	li	a0,1
   207f0:	02071a63          	bnez	a4,20824 <__eqtf2+0xbc>
   207f4:	00100513          	li	a0,1
   207f8:	02d79663          	bne	a5,a3,20824 <__eqtf2+0xbc>
   207fc:	03e89463          	bne	a7,t5,20824 <__eqtf2+0xbc>
   20800:	03f31263          	bne	t1,t6,20824 <__eqtf2+0xbc>
   20804:	025e1063          	bne	t3,t0,20824 <__eqtf2+0xbc>
   20808:	01d81e63          	bne	a6,t4,20824 <__eqtf2+0xbc>
   2080c:	02b60063          	beq	a2,a1,2082c <__eqtf2+0xc4>
   20810:	00079a63          	bnez	a5,20824 <__eqtf2+0xbc>
   20814:	0068e533          	or	a0,a7,t1
   20818:	01c56533          	or	a0,a0,t3
   2081c:	01056533          	or	a0,a0,a6
   20820:	00a03533          	snez	a0,a0
   20824:	01010113          	addi	sp,sp,16
   20828:	00008067          	ret
   2082c:	00000513          	li	a0,0
   20830:	ff5ff06f          	j	20824 <__eqtf2+0xbc>

00020834 <__getf2>:
   20834:	00c52783          	lw	a5,12(a0)
   20838:	00c5a603          	lw	a2,12(a1)
   2083c:	0005a283          	lw	t0,0(a1)
   20840:	0045a883          	lw	a7,4(a1)
   20844:	0085af03          	lw	t5,8(a1)
   20848:	000085b7          	lui	a1,0x8
   2084c:	0107d693          	srli	a3,a5,0x10
   20850:	fff58593          	addi	a1,a1,-1 # 7fff <main-0x8075>
   20854:	01079313          	slli	t1,a5,0x10
   20858:	01061e13          	slli	t3,a2,0x10
   2085c:	01065713          	srli	a4,a2,0x10
   20860:	00b6f6b3          	and	a3,a3,a1
   20864:	ff010113          	addi	sp,sp,-16
   20868:	00052f83          	lw	t6,0(a0)
   2086c:	00452803          	lw	a6,4(a0)
   20870:	00852e83          	lw	t4,8(a0)
   20874:	01035313          	srli	t1,t1,0x10
   20878:	01f7d793          	srli	a5,a5,0x1f
   2087c:	010e5e13          	srli	t3,t3,0x10
   20880:	00b77733          	and	a4,a4,a1
   20884:	01f65613          	srli	a2,a2,0x1f
   20888:	02b69063          	bne	a3,a1,208a8 <__getf2+0x74>
   2088c:	01f865b3          	or	a1,a6,t6
   20890:	01d5e5b3          	or	a1,a1,t4
   20894:	0065e5b3          	or	a1,a1,t1
   20898:	ffe00513          	li	a0,-2
   2089c:	0c058863          	beqz	a1,2096c <__getf2+0x138>
   208a0:	01010113          	addi	sp,sp,16
   208a4:	00008067          	ret
   208a8:	00b71c63          	bne	a4,a1,208c0 <__getf2+0x8c>
   208ac:	0058e5b3          	or	a1,a7,t0
   208b0:	01e5e5b3          	or	a1,a1,t5
   208b4:	01c5e5b3          	or	a1,a1,t3
   208b8:	ffe00513          	li	a0,-2
   208bc:	fe0592e3          	bnez	a1,208a0 <__getf2+0x6c>
   208c0:	0a069863          	bnez	a3,20970 <__getf2+0x13c>
   208c4:	01f86533          	or	a0,a6,t6
   208c8:	01d56533          	or	a0,a0,t4
   208cc:	00656533          	or	a0,a0,t1
   208d0:	00153513          	seqz	a0,a0
   208d4:	00071a63          	bnez	a4,208e8 <__getf2+0xb4>
   208d8:	0058e5b3          	or	a1,a7,t0
   208dc:	01e5e5b3          	or	a1,a1,t5
   208e0:	01c5e5b3          	or	a1,a1,t3
   208e4:	06058663          	beqz	a1,20950 <__getf2+0x11c>
   208e8:	00051a63          	bnez	a0,208fc <__getf2+0xc8>
   208ec:	00c78e63          	beq	a5,a2,20908 <__getf2+0xd4>
   208f0:	00100513          	li	a0,1
   208f4:	fa0786e3          	beqz	a5,208a0 <__getf2+0x6c>
   208f8:	0080006f          	j	20900 <__getf2+0xcc>
   208fc:	fa0612e3          	bnez	a2,208a0 <__getf2+0x6c>
   20900:	fff00513          	li	a0,-1
   20904:	f9dff06f          	j	208a0 <__getf2+0x6c>
   20908:	fed744e3          	blt	a4,a3,208f0 <__getf2+0xbc>
   2090c:	00e6da63          	ble	a4,a3,20920 <__getf2+0xec>
   20910:	fff00513          	li	a0,-1
   20914:	f80786e3          	beqz	a5,208a0 <__getf2+0x6c>
   20918:	00100513          	li	a0,1
   2091c:	f85ff06f          	j	208a0 <__getf2+0x6c>
   20920:	fc6e68e3          	bltu	t3,t1,208f0 <__getf2+0xbc>
   20924:	03c31c63          	bne	t1,t3,2095c <__getf2+0x128>
   20928:	fddf64e3          	bltu	t5,t4,208f0 <__getf2+0xbc>
   2092c:	03df1c63          	bne	t5,t4,20964 <__getf2+0x130>
   20930:	fd08e0e3          	bltu	a7,a6,208f0 <__getf2+0xbc>
   20934:	01089463          	bne	a7,a6,2093c <__getf2+0x108>
   20938:	fbf2ece3          	bltu	t0,t6,208f0 <__getf2+0xbc>
   2093c:	fd186ae3          	bltu	a6,a7,20910 <__getf2+0xdc>
   20940:	00000513          	li	a0,0
   20944:	f5089ee3          	bne	a7,a6,208a0 <__getf2+0x6c>
   20948:	f45ffce3          	bleu	t0,t6,208a0 <__getf2+0x6c>
   2094c:	fc5ff06f          	j	20910 <__getf2+0xdc>
   20950:	fa0500e3          	beqz	a0,208f0 <__getf2+0xbc>
   20954:	00000513          	li	a0,0
   20958:	f49ff06f          	j	208a0 <__getf2+0x6c>
   2095c:	fbc36ae3          	bltu	t1,t3,20910 <__getf2+0xdc>
   20960:	ff5ff06f          	j	20954 <__getf2+0x120>
   20964:	fbeee6e3          	bltu	t4,t5,20910 <__getf2+0xdc>
   20968:	fedff06f          	j	20954 <__getf2+0x120>
   2096c:	f4d700e3          	beq	a4,a3,208ac <__getf2+0x78>
   20970:	f6071ee3          	bnez	a4,208ec <__getf2+0xb8>
   20974:	00000513          	li	a0,0
   20978:	f61ff06f          	j	208d8 <__getf2+0xa4>

0002097c <__letf2>:
   2097c:	00c52783          	lw	a5,12(a0)
   20980:	00c5a603          	lw	a2,12(a1)
   20984:	0005a283          	lw	t0,0(a1)
   20988:	0045a883          	lw	a7,4(a1)
   2098c:	0085af03          	lw	t5,8(a1)
   20990:	000085b7          	lui	a1,0x8
   20994:	0107d693          	srli	a3,a5,0x10
   20998:	fff58593          	addi	a1,a1,-1 # 7fff <main-0x8075>
   2099c:	01079313          	slli	t1,a5,0x10
   209a0:	01061e13          	slli	t3,a2,0x10
   209a4:	01065713          	srli	a4,a2,0x10
   209a8:	00b6f6b3          	and	a3,a3,a1
   209ac:	ff010113          	addi	sp,sp,-16
   209b0:	00052f83          	lw	t6,0(a0)
   209b4:	00452803          	lw	a6,4(a0)
   209b8:	00852e83          	lw	t4,8(a0)
   209bc:	01035313          	srli	t1,t1,0x10
   209c0:	01f7d793          	srli	a5,a5,0x1f
   209c4:	010e5e13          	srli	t3,t3,0x10
   209c8:	00b77733          	and	a4,a4,a1
   209cc:	01f65613          	srli	a2,a2,0x1f
   209d0:	02b69063          	bne	a3,a1,209f0 <__letf2+0x74>
   209d4:	01f865b3          	or	a1,a6,t6
   209d8:	01d5e5b3          	or	a1,a1,t4
   209dc:	0065e5b3          	or	a1,a1,t1
   209e0:	00200513          	li	a0,2
   209e4:	0c058863          	beqz	a1,20ab4 <__letf2+0x138>
   209e8:	01010113          	addi	sp,sp,16
   209ec:	00008067          	ret
   209f0:	00b71c63          	bne	a4,a1,20a08 <__letf2+0x8c>
   209f4:	0058e5b3          	or	a1,a7,t0
   209f8:	01e5e5b3          	or	a1,a1,t5
   209fc:	01c5e5b3          	or	a1,a1,t3
   20a00:	00200513          	li	a0,2
   20a04:	fe0592e3          	bnez	a1,209e8 <__letf2+0x6c>
   20a08:	0a069863          	bnez	a3,20ab8 <__letf2+0x13c>
   20a0c:	01f86533          	or	a0,a6,t6
   20a10:	01d56533          	or	a0,a0,t4
   20a14:	00656533          	or	a0,a0,t1
   20a18:	00153513          	seqz	a0,a0
   20a1c:	00071a63          	bnez	a4,20a30 <__letf2+0xb4>
   20a20:	0058e5b3          	or	a1,a7,t0
   20a24:	01e5e5b3          	or	a1,a1,t5
   20a28:	01c5e5b3          	or	a1,a1,t3
   20a2c:	06058663          	beqz	a1,20a98 <__letf2+0x11c>
   20a30:	00051a63          	bnez	a0,20a44 <__letf2+0xc8>
   20a34:	00c78e63          	beq	a5,a2,20a50 <__letf2+0xd4>
   20a38:	00100513          	li	a0,1
   20a3c:	fa0786e3          	beqz	a5,209e8 <__letf2+0x6c>
   20a40:	0080006f          	j	20a48 <__letf2+0xcc>
   20a44:	fa0612e3          	bnez	a2,209e8 <__letf2+0x6c>
   20a48:	fff00513          	li	a0,-1
   20a4c:	f9dff06f          	j	209e8 <__letf2+0x6c>
   20a50:	fed744e3          	blt	a4,a3,20a38 <__letf2+0xbc>
   20a54:	00e6da63          	ble	a4,a3,20a68 <__letf2+0xec>
   20a58:	fff00513          	li	a0,-1
   20a5c:	f80786e3          	beqz	a5,209e8 <__letf2+0x6c>
   20a60:	00100513          	li	a0,1
   20a64:	f85ff06f          	j	209e8 <__letf2+0x6c>
   20a68:	fc6e68e3          	bltu	t3,t1,20a38 <__letf2+0xbc>
   20a6c:	03c31c63          	bne	t1,t3,20aa4 <__letf2+0x128>
   20a70:	fddf64e3          	bltu	t5,t4,20a38 <__letf2+0xbc>
   20a74:	03df1c63          	bne	t5,t4,20aac <__letf2+0x130>
   20a78:	fd08e0e3          	bltu	a7,a6,20a38 <__letf2+0xbc>
   20a7c:	01089463          	bne	a7,a6,20a84 <__letf2+0x108>
   20a80:	fbf2ece3          	bltu	t0,t6,20a38 <__letf2+0xbc>
   20a84:	fd186ae3          	bltu	a6,a7,20a58 <__letf2+0xdc>
   20a88:	00000513          	li	a0,0
   20a8c:	f5089ee3          	bne	a7,a6,209e8 <__letf2+0x6c>
   20a90:	f45ffce3          	bleu	t0,t6,209e8 <__letf2+0x6c>
   20a94:	fc5ff06f          	j	20a58 <__letf2+0xdc>
   20a98:	fa0500e3          	beqz	a0,20a38 <__letf2+0xbc>
   20a9c:	00000513          	li	a0,0
   20aa0:	f49ff06f          	j	209e8 <__letf2+0x6c>
   20aa4:	fbc36ae3          	bltu	t1,t3,20a58 <__letf2+0xdc>
   20aa8:	ff5ff06f          	j	20a9c <__letf2+0x120>
   20aac:	fbeee6e3          	bltu	t4,t5,20a58 <__letf2+0xdc>
   20ab0:	fedff06f          	j	20a9c <__letf2+0x120>
   20ab4:	f4d700e3          	beq	a4,a3,209f4 <__letf2+0x78>
   20ab8:	f6071ee3          	bnez	a4,20a34 <__letf2+0xb8>
   20abc:	00000513          	li	a0,0
   20ac0:	f61ff06f          	j	20a20 <__letf2+0xa4>

00020ac4 <__multf3>:
   20ac4:	f6010113          	addi	sp,sp,-160
   20ac8:	09412423          	sw	s4,136(sp)
   20acc:	00c5aa03          	lw	s4,12(a1)
   20ad0:	0005a683          	lw	a3,0(a1)
   20ad4:	0045a783          	lw	a5,4(a1)
   20ad8:	08812c23          	sw	s0,152(sp)
   20adc:	00050413          	mv	s0,a0
   20ae0:	0085a503          	lw	a0,8(a1)
   20ae4:	010a1713          	slli	a4,s4,0x10
   20ae8:	08912a23          	sw	s1,148(sp)
   20aec:	09312623          	sw	s3,140(sp)
   20af0:	09512223          	sw	s5,132(sp)
   20af4:	09612023          	sw	s6,128(sp)
   20af8:	00062483          	lw	s1,0(a2)
   20afc:	00462b03          	lw	s6,4(a2)
   20b00:	00862a83          	lw	s5,8(a2)
   20b04:	00c62983          	lw	s3,12(a2)
   20b08:	00008637          	lui	a2,0x8
   20b0c:	09212823          	sw	s2,144(sp)
   20b10:	01075713          	srli	a4,a4,0x10
   20b14:	010a5913          	srli	s2,s4,0x10
   20b18:	fff60613          	addi	a2,a2,-1 # 7fff <main-0x8075>
   20b1c:	05412623          	sw	s4,76(sp)
   20b20:	08112e23          	sw	ra,156(sp)
   20b24:	07712e23          	sw	s7,124(sp)
   20b28:	07812c23          	sw	s8,120(sp)
   20b2c:	07912a23          	sw	s9,116(sp)
   20b30:	07a12823          	sw	s10,112(sp)
   20b34:	07b12623          	sw	s11,108(sp)
   20b38:	04d12023          	sw	a3,64(sp)
   20b3c:	04f12223          	sw	a5,68(sp)
   20b40:	04a12423          	sw	a0,72(sp)
   20b44:	00d12823          	sw	a3,16(sp)
   20b48:	00f12a23          	sw	a5,20(sp)
   20b4c:	00a12c23          	sw	a0,24(sp)
   20b50:	00e12e23          	sw	a4,28(sp)
   20b54:	00c97933          	and	s2,s2,a2
   20b58:	01fa5a13          	srli	s4,s4,0x1f
   20b5c:	12090463          	beqz	s2,20c84 <__multf3+0x1c0>
   20b60:	24c90063          	beq	s2,a2,20da0 <__multf3+0x2dc>
   20b64:	000107b7          	lui	a5,0x10
   20b68:	00f767b3          	or	a5,a4,a5
   20b6c:	00f12e23          	sw	a5,28(sp)
   20b70:	01010613          	addi	a2,sp,16
   20b74:	01c10793          	addi	a5,sp,28
   20b78:	0007a703          	lw	a4,0(a5) # 10000 <main-0x74>
   20b7c:	ffc7a683          	lw	a3,-4(a5)
   20b80:	ffc78793          	addi	a5,a5,-4
   20b84:	00371713          	slli	a4,a4,0x3
   20b88:	01d6d693          	srli	a3,a3,0x1d
   20b8c:	00d76733          	or	a4,a4,a3
   20b90:	00e7a223          	sw	a4,4(a5)
   20b94:	fef612e3          	bne	a2,a5,20b78 <__multf3+0xb4>
   20b98:	01012783          	lw	a5,16(sp)
   20b9c:	ffffc537          	lui	a0,0xffffc
   20ba0:	00150513          	addi	a0,a0,1 # ffffc001 <__global_pointer$+0xfffd5d91>
   20ba4:	00379793          	slli	a5,a5,0x3
   20ba8:	00f12823          	sw	a5,16(sp)
   20bac:	00a90933          	add	s2,s2,a0
   20bb0:	00000c13          	li	s8,0
   20bb4:	01099513          	slli	a0,s3,0x10
   20bb8:	00008737          	lui	a4,0x8
   20bbc:	0109d793          	srli	a5,s3,0x10
   20bc0:	01055513          	srli	a0,a0,0x10
   20bc4:	fff70713          	addi	a4,a4,-1 # 7fff <main-0x8075>
   20bc8:	05312623          	sw	s3,76(sp)
   20bcc:	04912023          	sw	s1,64(sp)
   20bd0:	05612223          	sw	s6,68(sp)
   20bd4:	05512423          	sw	s5,72(sp)
   20bd8:	02912023          	sw	s1,32(sp)
   20bdc:	03612223          	sw	s6,36(sp)
   20be0:	03512423          	sw	s5,40(sp)
   20be4:	02a12623          	sw	a0,44(sp)
   20be8:	00e7f7b3          	and	a5,a5,a4
   20bec:	01f9d993          	srli	s3,s3,0x1f
   20bf0:	1c078c63          	beqz	a5,20dc8 <__multf3+0x304>
   20bf4:	2ee78863          	beq	a5,a4,20ee4 <__multf3+0x420>
   20bf8:	00010ab7          	lui	s5,0x10
   20bfc:	01556ab3          	or	s5,a0,s5
   20c00:	03512623          	sw	s5,44(sp)
   20c04:	02010593          	addi	a1,sp,32
   20c08:	02c10713          	addi	a4,sp,44
   20c0c:	00072683          	lw	a3,0(a4)
   20c10:	ffc72603          	lw	a2,-4(a4)
   20c14:	ffc70713          	addi	a4,a4,-4
   20c18:	00369693          	slli	a3,a3,0x3
   20c1c:	01d65613          	srli	a2,a2,0x1d
   20c20:	00c6e6b3          	or	a3,a3,a2
   20c24:	00d72223          	sw	a3,4(a4)
   20c28:	fee592e3          	bne	a1,a4,20c0c <__multf3+0x148>
   20c2c:	02012703          	lw	a4,32(sp)
   20c30:	ffffc537          	lui	a0,0xffffc
   20c34:	00150513          	addi	a0,a0,1 # ffffc001 <__global_pointer$+0xfffd5d91>
   20c38:	00371713          	slli	a4,a4,0x3
   20c3c:	02e12023          	sw	a4,32(sp)
   20c40:	00a787b3          	add	a5,a5,a0
   20c44:	00000713          	li	a4,0
   20c48:	00f907b3          	add	a5,s2,a5
   20c4c:	00f12423          	sw	a5,8(sp)
   20c50:	00178b93          	addi	s7,a5,1
   20c54:	002c1793          	slli	a5,s8,0x2
   20c58:	00e7e7b3          	or	a5,a5,a4
   20c5c:	fff78793          	addi	a5,a5,-1
   20c60:	00e00693          	li	a3,14
   20c64:	013a44b3          	xor	s1,s4,s3
   20c68:	2af6e263          	bltu	a3,a5,20f0c <__multf3+0x448>
   20c6c:	000256b7          	lui	a3,0x25
   20c70:	00279793          	slli	a5,a5,0x2
   20c74:	e7c68693          	addi	a3,a3,-388 # 24e7c <zeroes.4476+0x4c>
   20c78:	00d787b3          	add	a5,a5,a3
   20c7c:	0007a783          	lw	a5,0(a5)
   20c80:	00078067          	jr	a5
   20c84:	00d7e633          	or	a2,a5,a3
   20c88:	00a66633          	or	a2,a2,a0
   20c8c:	00e66633          	or	a2,a2,a4
   20c90:	12060663          	beqz	a2,20dbc <__multf3+0x2f8>
   20c94:	06070063          	beqz	a4,20cf4 <__multf3+0x230>
   20c98:	00070513          	mv	a0,a4
   20c9c:	ec4f20ef          	jal	ra,13360 <__clzsi2>
   20ca0:	ff450693          	addi	a3,a0,-12
   20ca4:	4056d713          	srai	a4,a3,0x5
   20ca8:	01f6f693          	andi	a3,a3,31
   20cac:	40e007b3          	neg	a5,a4
   20cb0:	06068c63          	beqz	a3,20d28 <__multf3+0x264>
   20cb4:	00279793          	slli	a5,a5,0x2
   20cb8:	01010313          	addi	t1,sp,16
   20cbc:	00c78793          	addi	a5,a5,12
   20cc0:	02000813          	li	a6,32
   20cc4:	00f307b3          	add	a5,t1,a5
   20cc8:	00271593          	slli	a1,a4,0x2
   20ccc:	40d80833          	sub	a6,a6,a3
   20cd0:	08f31263          	bne	t1,a5,20d54 <__multf3+0x290>
   20cd4:	fff70793          	addi	a5,a4,-1
   20cd8:	06010713          	addi	a4,sp,96
   20cdc:	00b705b3          	add	a1,a4,a1
   20ce0:	01012703          	lw	a4,16(sp)
   20ce4:	00d716b3          	sll	a3,a4,a3
   20ce8:	fad5a823          	sw	a3,-80(a1)
   20cec:	fff00693          	li	a3,-1
   20cf0:	09c0006f          	j	20d8c <__multf3+0x2c8>
   20cf4:	00050863          	beqz	a0,20d04 <__multf3+0x240>
   20cf8:	e68f20ef          	jal	ra,13360 <__clzsi2>
   20cfc:	02050513          	addi	a0,a0,32
   20d00:	fa1ff06f          	j	20ca0 <__multf3+0x1dc>
   20d04:	00078a63          	beqz	a5,20d18 <__multf3+0x254>
   20d08:	00078513          	mv	a0,a5
   20d0c:	e54f20ef          	jal	ra,13360 <__clzsi2>
   20d10:	04050513          	addi	a0,a0,64
   20d14:	f8dff06f          	j	20ca0 <__multf3+0x1dc>
   20d18:	00068513          	mv	a0,a3
   20d1c:	e44f20ef          	jal	ra,13360 <__clzsi2>
   20d20:	06050513          	addi	a0,a0,96
   20d24:	f7dff06f          	j	20ca0 <__multf3+0x1dc>
   20d28:	01c10693          	addi	a3,sp,28
   20d2c:	00279793          	slli	a5,a5,0x2
   20d30:	00300613          	li	a2,3
   20d34:	00f685b3          	add	a1,a3,a5
   20d38:	0005a583          	lw	a1,0(a1)
   20d3c:	fff60613          	addi	a2,a2,-1
   20d40:	ffc68693          	addi	a3,a3,-4
   20d44:	00b6a223          	sw	a1,4(a3)
   20d48:	fee656e3          	ble	a4,a2,20d34 <__multf3+0x270>
   20d4c:	fff70793          	addi	a5,a4,-1
   20d50:	f9dff06f          	j	20cec <__multf3+0x228>
   20d54:	ffc7a603          	lw	a2,-4(a5)
   20d58:	0007a883          	lw	a7,0(a5)
   20d5c:	00b78e33          	add	t3,a5,a1
   20d60:	01065633          	srl	a2,a2,a6
   20d64:	00d898b3          	sll	a7,a7,a3
   20d68:	01166633          	or	a2,a2,a7
   20d6c:	00ce2023          	sw	a2,0(t3)
   20d70:	ffc78793          	addi	a5,a5,-4
   20d74:	f5dff06f          	j	20cd0 <__multf3+0x20c>
   20d78:	00279713          	slli	a4,a5,0x2
   20d7c:	01010613          	addi	a2,sp,16
   20d80:	00e60733          	add	a4,a2,a4
   20d84:	00072023          	sw	zero,0(a4)
   20d88:	fff78793          	addi	a5,a5,-1
   20d8c:	fed796e3          	bne	a5,a3,20d78 <__multf3+0x2b4>
   20d90:	ffffc937          	lui	s2,0xffffc
   20d94:	01190913          	addi	s2,s2,17 # ffffc011 <__global_pointer$+0xfffd5da1>
   20d98:	40a90933          	sub	s2,s2,a0
   20d9c:	e15ff06f          	j	20bb0 <__multf3+0xec>
   20da0:	00d7e7b3          	or	a5,a5,a3
   20da4:	00a7e7b3          	or	a5,a5,a0
   20da8:	00e7e7b3          	or	a5,a5,a4
   20dac:	00300c13          	li	s8,3
   20db0:	e00792e3          	bnez	a5,20bb4 <__multf3+0xf0>
   20db4:	00200c13          	li	s8,2
   20db8:	dfdff06f          	j	20bb4 <__multf3+0xf0>
   20dbc:	00000913          	li	s2,0
   20dc0:	00100c13          	li	s8,1
   20dc4:	df1ff06f          	j	20bb4 <__multf3+0xf0>
   20dc8:	0164e7b3          	or	a5,s1,s6
   20dcc:	0157e7b3          	or	a5,a5,s5
   20dd0:	00a7e7b3          	or	a5,a5,a0
   20dd4:	12078663          	beqz	a5,20f00 <__multf3+0x43c>
   20dd8:	04050e63          	beqz	a0,20e34 <__multf3+0x370>
   20ddc:	d84f20ef          	jal	ra,13360 <__clzsi2>
   20de0:	ff450613          	addi	a2,a0,-12
   20de4:	40565693          	srai	a3,a2,0x5
   20de8:	01f67613          	andi	a2,a2,31
   20dec:	40d00733          	neg	a4,a3
   20df0:	06060e63          	beqz	a2,20e6c <__multf3+0x3a8>
   20df4:	00271713          	slli	a4,a4,0x2
   20df8:	02010313          	addi	t1,sp,32
   20dfc:	00c70713          	addi	a4,a4,12
   20e00:	02000793          	li	a5,32
   20e04:	00e30733          	add	a4,t1,a4
   20e08:	00269813          	slli	a6,a3,0x2
   20e0c:	40c787b3          	sub	a5,a5,a2
   20e10:	08e31463          	bne	t1,a4,20e98 <__multf3+0x3d4>
   20e14:	06010793          	addi	a5,sp,96
   20e18:	01078833          	add	a6,a5,a6
   20e1c:	02012783          	lw	a5,32(sp)
   20e20:	fff68713          	addi	a4,a3,-1
   20e24:	00c79633          	sll	a2,a5,a2
   20e28:	fcc82023          	sw	a2,-64(a6)
   20e2c:	fff00693          	li	a3,-1
   20e30:	0a00006f          	j	20ed0 <__multf3+0x40c>
   20e34:	000a8a63          	beqz	s5,20e48 <__multf3+0x384>
   20e38:	000a8513          	mv	a0,s5
   20e3c:	d24f20ef          	jal	ra,13360 <__clzsi2>
   20e40:	02050513          	addi	a0,a0,32
   20e44:	f9dff06f          	j	20de0 <__multf3+0x31c>
   20e48:	000b0a63          	beqz	s6,20e5c <__multf3+0x398>
   20e4c:	000b0513          	mv	a0,s6
   20e50:	d10f20ef          	jal	ra,13360 <__clzsi2>
   20e54:	04050513          	addi	a0,a0,64
   20e58:	f89ff06f          	j	20de0 <__multf3+0x31c>
   20e5c:	00048513          	mv	a0,s1
   20e60:	d00f20ef          	jal	ra,13360 <__clzsi2>
   20e64:	06050513          	addi	a0,a0,96
   20e68:	f79ff06f          	j	20de0 <__multf3+0x31c>
   20e6c:	02c10613          	addi	a2,sp,44
   20e70:	00271713          	slli	a4,a4,0x2
   20e74:	00300793          	li	a5,3
   20e78:	00e605b3          	add	a1,a2,a4
   20e7c:	0005a583          	lw	a1,0(a1)
   20e80:	fff78793          	addi	a5,a5,-1
   20e84:	ffc60613          	addi	a2,a2,-4
   20e88:	00b62223          	sw	a1,4(a2)
   20e8c:	fed7d6e3          	ble	a3,a5,20e78 <__multf3+0x3b4>
   20e90:	fff68713          	addi	a4,a3,-1
   20e94:	f99ff06f          	j	20e2c <__multf3+0x368>
   20e98:	ffc72583          	lw	a1,-4(a4)
   20e9c:	00072883          	lw	a7,0(a4)
   20ea0:	01070e33          	add	t3,a4,a6
   20ea4:	00f5d5b3          	srl	a1,a1,a5
   20ea8:	00c898b3          	sll	a7,a7,a2
   20eac:	0115e5b3          	or	a1,a1,a7
   20eb0:	00be2023          	sw	a1,0(t3)
   20eb4:	ffc70713          	addi	a4,a4,-4
   20eb8:	f59ff06f          	j	20e10 <__multf3+0x34c>
   20ebc:	00271793          	slli	a5,a4,0x2
   20ec0:	02010613          	addi	a2,sp,32
   20ec4:	00f607b3          	add	a5,a2,a5
   20ec8:	0007a023          	sw	zero,0(a5)
   20ecc:	fff70713          	addi	a4,a4,-1
   20ed0:	fed716e3          	bne	a4,a3,20ebc <__multf3+0x3f8>
   20ed4:	ffffc7b7          	lui	a5,0xffffc
   20ed8:	01178793          	addi	a5,a5,17 # ffffc011 <__global_pointer$+0xfffd5da1>
   20edc:	40a787b3          	sub	a5,a5,a0
   20ee0:	d65ff06f          	j	20c44 <__multf3+0x180>
   20ee4:	0164e4b3          	or	s1,s1,s6
   20ee8:	0154eab3          	or	s5,s1,s5
   20eec:	00aaeab3          	or	s5,s5,a0
   20ef0:	00300713          	li	a4,3
   20ef4:	d40a9ae3          	bnez	s5,20c48 <__multf3+0x184>
   20ef8:	00200713          	li	a4,2
   20efc:	d4dff06f          	j	20c48 <__multf3+0x184>
   20f00:	00000793          	li	a5,0
   20f04:	00100713          	li	a4,1
   20f08:	d41ff06f          	j	20c48 <__multf3+0x184>
   20f0c:	01012283          	lw	t0,16(sp)
   20f10:	02012f83          	lw	t6,32(sp)
   20f14:	00010337          	lui	t1,0x10
   20f18:	fff30793          	addi	a5,t1,-1 # ffff <main-0x75>
   20f1c:	00f2f8b3          	and	a7,t0,a5
   20f20:	00fff7b3          	and	a5,t6,a5
   20f24:	0102de13          	srli	t3,t0,0x10
   20f28:	010fd713          	srli	a4,t6,0x10
   20f2c:	00088513          	mv	a0,a7
   20f30:	00078593          	mv	a1,a5
   20f34:	b54f20ef          	jal	ra,13288 <__mulsi3>
   20f38:	00050813          	mv	a6,a0
   20f3c:	00070593          	mv	a1,a4
   20f40:	00088513          	mv	a0,a7
   20f44:	b44f20ef          	jal	ra,13288 <__mulsi3>
   20f48:	00050893          	mv	a7,a0
   20f4c:	00078593          	mv	a1,a5
   20f50:	000e0513          	mv	a0,t3
   20f54:	b34f20ef          	jal	ra,13288 <__mulsi3>
   20f58:	00050793          	mv	a5,a0
   20f5c:	00070593          	mv	a1,a4
   20f60:	000e0513          	mv	a0,t3
   20f64:	b24f20ef          	jal	ra,13288 <__mulsi3>
   20f68:	01085713          	srli	a4,a6,0x10
   20f6c:	00f888b3          	add	a7,a7,a5
   20f70:	01170733          	add	a4,a4,a7
   20f74:	00f77463          	bleu	a5,a4,20f7c <__multf3+0x4b8>
   20f78:	00650533          	add	a0,a0,t1
   20f7c:	01075793          	srli	a5,a4,0x10
   20f80:	00a787b3          	add	a5,a5,a0
   20f84:	00010e37          	lui	t3,0x10
   20f88:	02412e83          	lw	t4,36(sp)
   20f8c:	04f12223          	sw	a5,68(sp)
   20f90:	fffe0793          	addi	a5,t3,-1 # ffff <main-0x75>
   20f94:	00f77733          	and	a4,a4,a5
   20f98:	00f87833          	and	a6,a6,a5
   20f9c:	01071713          	slli	a4,a4,0x10
   20fa0:	01070733          	add	a4,a4,a6
   20fa4:	00feff33          	and	t5,t4,a5
   20fa8:	00f2f833          	and	a6,t0,a5
   20fac:	04e12023          	sw	a4,64(sp)
   20fb0:	0102d313          	srli	t1,t0,0x10
   20fb4:	010ed713          	srli	a4,t4,0x10
   20fb8:	00080513          	mv	a0,a6
   20fbc:	000f0593          	mv	a1,t5
   20fc0:	ac8f20ef          	jal	ra,13288 <__mulsi3>
   20fc4:	00050893          	mv	a7,a0
   20fc8:	00070593          	mv	a1,a4
   20fcc:	00080513          	mv	a0,a6
   20fd0:	ab8f20ef          	jal	ra,13288 <__mulsi3>
   20fd4:	00050813          	mv	a6,a0
   20fd8:	000f0593          	mv	a1,t5
   20fdc:	00030513          	mv	a0,t1
   20fe0:	aa8f20ef          	jal	ra,13288 <__mulsi3>
   20fe4:	00050f13          	mv	t5,a0
   20fe8:	00070593          	mv	a1,a4
   20fec:	00030513          	mv	a0,t1
   20ff0:	a98f20ef          	jal	ra,13288 <__mulsi3>
   20ff4:	0108d713          	srli	a4,a7,0x10
   20ff8:	01e80833          	add	a6,a6,t5
   20ffc:	01070733          	add	a4,a4,a6
   21000:	00050c13          	mv	s8,a0
   21004:	01e77463          	bleu	t5,a4,2100c <__multf3+0x548>
   21008:	01c50c33          	add	s8,a0,t3
   2100c:	01412f03          	lw	t5,20(sp)
   21010:	00f77833          	and	a6,a4,a5
   21014:	00f8f8b3          	and	a7,a7,a5
   21018:	01081813          	slli	a6,a6,0x10
   2101c:	01075693          	srli	a3,a4,0x10
   21020:	01180833          	add	a6,a6,a7
   21024:	00ff78b3          	and	a7,t5,a5
   21028:	00fff7b3          	and	a5,t6,a5
   2102c:	00d12623          	sw	a3,12(sp)
   21030:	010f5393          	srli	t2,t5,0x10
   21034:	010fd713          	srli	a4,t6,0x10
   21038:	00088513          	mv	a0,a7
   2103c:	00078593          	mv	a1,a5
   21040:	a48f20ef          	jal	ra,13288 <__mulsi3>
   21044:	00050313          	mv	t1,a0
   21048:	00070593          	mv	a1,a4
   2104c:	00088513          	mv	a0,a7
   21050:	a38f20ef          	jal	ra,13288 <__mulsi3>
   21054:	00050893          	mv	a7,a0
   21058:	00078593          	mv	a1,a5
   2105c:	00038513          	mv	a0,t2
   21060:	a28f20ef          	jal	ra,13288 <__mulsi3>
   21064:	00050e13          	mv	t3,a0
   21068:	00070593          	mv	a1,a4
   2106c:	00038513          	mv	a0,t2
   21070:	a18f20ef          	jal	ra,13288 <__mulsi3>
   21074:	01035793          	srli	a5,t1,0x10
   21078:	01c888b3          	add	a7,a7,t3
   2107c:	011787b3          	add	a5,a5,a7
   21080:	01c7f663          	bleu	t3,a5,2108c <__multf3+0x5c8>
   21084:	00010737          	lui	a4,0x10
   21088:	00e50533          	add	a0,a0,a4
   2108c:	000103b7          	lui	t2,0x10
   21090:	fff38713          	addi	a4,t2,-1 # ffff <main-0x75>
   21094:	00e7f8b3          	and	a7,a5,a4
   21098:	0107da13          	srli	s4,a5,0x10
   2109c:	00aa0a33          	add	s4,s4,a0
   210a0:	00ef77b3          	and	a5,t5,a4
   210a4:	00e37533          	and	a0,t1,a4
   210a8:	01089893          	slli	a7,a7,0x10
   210ac:	00eef733          	and	a4,t4,a4
   210b0:	00a888b3          	add	a7,a7,a0
   210b4:	010f5913          	srli	s2,t5,0x10
   210b8:	010ede13          	srli	t3,t4,0x10
   210bc:	00078513          	mv	a0,a5
   210c0:	00070593          	mv	a1,a4
   210c4:	9c4f20ef          	jal	ra,13288 <__mulsi3>
   210c8:	00050313          	mv	t1,a0
   210cc:	000e0593          	mv	a1,t3
   210d0:	00078513          	mv	a0,a5
   210d4:	9b4f20ef          	jal	ra,13288 <__mulsi3>
   210d8:	00050993          	mv	s3,a0
   210dc:	00070593          	mv	a1,a4
   210e0:	00090513          	mv	a0,s2
   210e4:	9a4f20ef          	jal	ra,13288 <__mulsi3>
   210e8:	00050713          	mv	a4,a0
   210ec:	000e0593          	mv	a1,t3
   210f0:	00090513          	mv	a0,s2
   210f4:	994f20ef          	jal	ra,13288 <__mulsi3>
   210f8:	01035793          	srli	a5,t1,0x10
   210fc:	00e989b3          	add	s3,s3,a4
   21100:	013787b3          	add	a5,a5,s3
   21104:	00e7f463          	bleu	a4,a5,2110c <__multf3+0x648>
   21108:	00750533          	add	a0,a0,t2
   2110c:	000103b7          	lui	t2,0x10
   21110:	fff38593          	addi	a1,t2,-1 # ffff <main-0x75>
   21114:	00b7f733          	and	a4,a5,a1
   21118:	00b37333          	and	t1,t1,a1
   2111c:	01071713          	slli	a4,a4,0x10
   21120:	00670733          	add	a4,a4,t1
   21124:	02812303          	lw	t1,40(sp)
   21128:	0107d993          	srli	s3,a5,0x10
   2112c:	00b2f7b3          	and	a5,t0,a1
   21130:	00b37ab3          	and	s5,t1,a1
   21134:	00a989b3          	add	s3,s3,a0
   21138:	0102d913          	srli	s2,t0,0x10
   2113c:	01035b13          	srli	s6,t1,0x10
   21140:	00078513          	mv	a0,a5
   21144:	000a8593          	mv	a1,s5
   21148:	940f20ef          	jal	ra,13288 <__mulsi3>
   2114c:	00050e13          	mv	t3,a0
   21150:	000b0593          	mv	a1,s6
   21154:	00078513          	mv	a0,a5
   21158:	930f20ef          	jal	ra,13288 <__mulsi3>
   2115c:	00050793          	mv	a5,a0
   21160:	000a8593          	mv	a1,s5
   21164:	00090513          	mv	a0,s2
   21168:	920f20ef          	jal	ra,13288 <__mulsi3>
   2116c:	00050a93          	mv	s5,a0
   21170:	000b0593          	mv	a1,s6
   21174:	00090513          	mv	a0,s2
   21178:	910f20ef          	jal	ra,13288 <__mulsi3>
   2117c:	010e5693          	srli	a3,t3,0x10
   21180:	015787b3          	add	a5,a5,s5
   21184:	00f686b3          	add	a3,a3,a5
   21188:	0156f463          	bleu	s5,a3,21190 <__multf3+0x6cc>
   2118c:	00750533          	add	a0,a0,t2
   21190:	00010d37          	lui	s10,0x10
   21194:	fffd0393          	addi	t2,s10,-1 # ffff <main-0x75>
   21198:	0076f7b3          	and	a5,a3,t2
   2119c:	007e7e33          	and	t3,t3,t2
   211a0:	01079793          	slli	a5,a5,0x10
   211a4:	01c787b3          	add	a5,a5,t3
   211a8:	01812e03          	lw	t3,24(sp)
   211ac:	0106d913          	srli	s2,a3,0x10
   211b0:	00a90933          	add	s2,s2,a0
   211b4:	007e7cb3          	and	s9,t3,t2
   211b8:	007ff3b3          	and	t2,t6,t2
   211bc:	010e5d93          	srli	s11,t3,0x10
   211c0:	010fdb13          	srli	s6,t6,0x10
   211c4:	000c8513          	mv	a0,s9
   211c8:	00038593          	mv	a1,t2
   211cc:	8bcf20ef          	jal	ra,13288 <__mulsi3>
   211d0:	00050a93          	mv	s5,a0
   211d4:	000b0593          	mv	a1,s6
   211d8:	000c8513          	mv	a0,s9
   211dc:	8acf20ef          	jal	ra,13288 <__mulsi3>
   211e0:	00050c93          	mv	s9,a0
   211e4:	00038593          	mv	a1,t2
   211e8:	000d8513          	mv	a0,s11
   211ec:	89cf20ef          	jal	ra,13288 <__mulsi3>
   211f0:	00050393          	mv	t2,a0
   211f4:	000b0593          	mv	a1,s6
   211f8:	000d8513          	mv	a0,s11
   211fc:	88cf20ef          	jal	ra,13288 <__mulsi3>
   21200:	010ad613          	srli	a2,s5,0x10
   21204:	007c8cb3          	add	s9,s9,t2
   21208:	01960cb3          	add	s9,a2,s9
   2120c:	007cf463          	bleu	t2,s9,21214 <__multf3+0x750>
   21210:	01a50533          	add	a0,a0,s10
   21214:	04412603          	lw	a2,68(sp)
   21218:	010cd693          	srli	a3,s9,0x10
   2121c:	00a686b3          	add	a3,a3,a0
   21220:	00c12503          	lw	a0,12(sp)
   21224:	00c80633          	add	a2,a6,a2
   21228:	010630b3          	sltu	ra,a2,a6
   2122c:	00150833          	add	a6,a0,ra
   21230:	000103b7          	lui	t2,0x10
   21234:	fff38593          	addi	a1,t2,-1 # ffff <main-0x75>
   21238:	01880c33          	add	s8,a6,s8
   2123c:	01160633          	add	a2,a2,a7
   21240:	011638b3          	sltu	a7,a2,a7
   21244:	014c0533          	add	a0,s8,s4
   21248:	00bcfcb3          	and	s9,s9,a1
   2124c:	01150833          	add	a6,a0,a7
   21250:	00bafab3          	and	s5,s5,a1
   21254:	010c9c93          	slli	s9,s9,0x10
   21258:	015c8cb3          	add	s9,s9,s5
   2125c:	01453533          	sltu	a0,a0,s4
   21260:	00e80ab3          	add	s5,a6,a4
   21264:	01183833          	sltu	a6,a6,a7
   21268:	001c3c33          	sltu	s8,s8,ra
   2126c:	01056833          	or	a6,a0,a6
   21270:	01880833          	add	a6,a6,s8
   21274:	00eab733          	sltu	a4,s5,a4
   21278:	01380833          	add	a6,a6,s3
   2127c:	00e800b3          	add	ra,a6,a4
   21280:	00fa8ab3          	add	s5,s5,a5
   21284:	01208533          	add	a0,ra,s2
   21288:	00fab7b3          	sltu	a5,s5,a5
   2128c:	00f508b3          	add	a7,a0,a5
   21290:	019a8ab3          	add	s5,s5,s9
   21294:	04c12223          	sw	a2,68(sp)
   21298:	05512423          	sw	s5,72(sp)
   2129c:	00d88633          	add	a2,a7,a3
   212a0:	019abab3          	sltu	s5,s5,s9
   212a4:	01560a33          	add	s4,a2,s5
   212a8:	00f8b7b3          	sltu	a5,a7,a5
   212ac:	01383833          	sltu	a6,a6,s3
   212b0:	00e0b733          	sltu	a4,ra,a4
   212b4:	01253533          	sltu	a0,a0,s2
   212b8:	00f56533          	or	a0,a0,a5
   212bc:	00e86833          	or	a6,a6,a4
   212c0:	00d636b3          	sltu	a3,a2,a3
   212c4:	015a3ab3          	sltu	s5,s4,s5
   212c8:	00a80833          	add	a6,a6,a0
   212cc:	0156eab3          	or	s5,a3,s5
   212d0:	01580ab3          	add	s5,a6,s5
   212d4:	02c12803          	lw	a6,44(sp)
   212d8:	0102d913          	srli	s2,t0,0x10
   212dc:	00b2f2b3          	and	t0,t0,a1
   212e0:	00b877b3          	and	a5,a6,a1
   212e4:	05412623          	sw	s4,76(sp)
   212e8:	05512823          	sw	s5,80(sp)
   212ec:	01085893          	srli	a7,a6,0x10
   212f0:	00028513          	mv	a0,t0
   212f4:	00078593          	mv	a1,a5
   212f8:	f91f10ef          	jal	ra,13288 <__mulsi3>
   212fc:	00050c93          	mv	s9,a0
   21300:	00088593          	mv	a1,a7
   21304:	00028513          	mv	a0,t0
   21308:	f81f10ef          	jal	ra,13288 <__mulsi3>
   2130c:	00050713          	mv	a4,a0
   21310:	00078593          	mv	a1,a5
   21314:	00090513          	mv	a0,s2
   21318:	f71f10ef          	jal	ra,13288 <__mulsi3>
   2131c:	00050793          	mv	a5,a0
   21320:	00088593          	mv	a1,a7
   21324:	00090513          	mv	a0,s2
   21328:	f61f10ef          	jal	ra,13288 <__mulsi3>
   2132c:	010cd613          	srli	a2,s9,0x10
   21330:	00f70733          	add	a4,a4,a5
   21334:	00e60633          	add	a2,a2,a4
   21338:	00f67463          	bleu	a5,a2,21340 <__multf3+0x87c>
   2133c:	00750533          	add	a0,a0,t2
   21340:	01c12883          	lw	a7,28(sp)
   21344:	00010737          	lui	a4,0x10
   21348:	fff70793          	addi	a5,a4,-1 # ffff <main-0x75>
   2134c:	01065a13          	srli	s4,a2,0x10
   21350:	00f67633          	and	a2,a2,a5
   21354:	01061613          	slli	a2,a2,0x10
   21358:	00fcfcb3          	and	s9,s9,a5
   2135c:	010fd293          	srli	t0,t6,0x10
   21360:	00f8f933          	and	s2,a7,a5
   21364:	00ffffb3          	and	t6,t6,a5
   21368:	00aa0a33          	add	s4,s4,a0
   2136c:	01960cb3          	add	s9,a2,s9
   21370:	0108d393          	srli	t2,a7,0x10
   21374:	00090513          	mv	a0,s2
   21378:	000f8593          	mv	a1,t6
   2137c:	f0df10ef          	jal	ra,13288 <__mulsi3>
   21380:	00050b13          	mv	s6,a0
   21384:	00028593          	mv	a1,t0
   21388:	00090513          	mv	a0,s2
   2138c:	efdf10ef          	jal	ra,13288 <__mulsi3>
   21390:	00050793          	mv	a5,a0
   21394:	000f8593          	mv	a1,t6
   21398:	00038513          	mv	a0,t2
   2139c:	eedf10ef          	jal	ra,13288 <__mulsi3>
   213a0:	00050f93          	mv	t6,a0
   213a4:	00028593          	mv	a1,t0
   213a8:	00038513          	mv	a0,t2
   213ac:	eddf10ef          	jal	ra,13288 <__mulsi3>
   213b0:	010b5693          	srli	a3,s6,0x10
   213b4:	01f787b3          	add	a5,a5,t6
   213b8:	00f686b3          	add	a3,a3,a5
   213bc:	01f6f463          	bleu	t6,a3,213c4 <__multf3+0x900>
   213c0:	00e50533          	add	a0,a0,a4
   213c4:	000102b7          	lui	t0,0x10
   213c8:	fff28793          	addi	a5,t0,-1 # ffff <main-0x75>
   213cc:	0106d993          	srli	s3,a3,0x10
   213d0:	00f6f6b3          	and	a3,a3,a5
   213d4:	00ff7733          	and	a4,t5,a5
   213d8:	01069693          	slli	a3,a3,0x10
   213dc:	00fb7b33          	and	s6,s6,a5
   213e0:	00f377b3          	and	a5,t1,a5
   213e4:	00a989b3          	add	s3,s3,a0
   213e8:	01668b33          	add	s6,a3,s6
   213ec:	010f5913          	srli	s2,t5,0x10
   213f0:	01035393          	srli	t2,t1,0x10
   213f4:	00070513          	mv	a0,a4
   213f8:	00078593          	mv	a1,a5
   213fc:	e8df10ef          	jal	ra,13288 <__mulsi3>
   21400:	00050f93          	mv	t6,a0
   21404:	00038593          	mv	a1,t2
   21408:	00070513          	mv	a0,a4
   2140c:	e7df10ef          	jal	ra,13288 <__mulsi3>
   21410:	00050713          	mv	a4,a0
   21414:	00078593          	mv	a1,a5
   21418:	00090513          	mv	a0,s2
   2141c:	e6df10ef          	jal	ra,13288 <__mulsi3>
   21420:	00050a93          	mv	s5,a0
   21424:	00038593          	mv	a1,t2
   21428:	00090513          	mv	a0,s2
   2142c:	e5df10ef          	jal	ra,13288 <__mulsi3>
   21430:	010fd793          	srli	a5,t6,0x10
   21434:	01570733          	add	a4,a4,s5
   21438:	00e787b3          	add	a5,a5,a4
   2143c:	0157f463          	bleu	s5,a5,21444 <__multf3+0x980>
   21440:	00550533          	add	a0,a0,t0
   21444:	000103b7          	lui	t2,0x10
   21448:	fff38693          	addi	a3,t2,-1 # ffff <main-0x75>
   2144c:	00d7f733          	and	a4,a5,a3
   21450:	0107d913          	srli	s2,a5,0x10
   21454:	00dfffb3          	and	t6,t6,a3
   21458:	00de72b3          	and	t0,t3,a3
   2145c:	00defab3          	and	s5,t4,a3
   21460:	01071713          	slli	a4,a4,0x10
   21464:	00a90933          	add	s2,s2,a0
   21468:	01f70733          	add	a4,a4,t6
   2146c:	010e5793          	srli	a5,t3,0x10
   21470:	010edc13          	srli	s8,t4,0x10
   21474:	00028513          	mv	a0,t0
   21478:	000a8593          	mv	a1,s5
   2147c:	e0df10ef          	jal	ra,13288 <__mulsi3>
   21480:	00050f93          	mv	t6,a0
   21484:	000c0593          	mv	a1,s8
   21488:	00028513          	mv	a0,t0
   2148c:	dfdf10ef          	jal	ra,13288 <__mulsi3>
   21490:	00050293          	mv	t0,a0
   21494:	000a8593          	mv	a1,s5
   21498:	00078513          	mv	a0,a5
   2149c:	dedf10ef          	jal	ra,13288 <__mulsi3>
   214a0:	00050a93          	mv	s5,a0
   214a4:	000c0593          	mv	a1,s8
   214a8:	00078513          	mv	a0,a5
   214ac:	dddf10ef          	jal	ra,13288 <__mulsi3>
   214b0:	015286b3          	add	a3,t0,s5
   214b4:	010fd293          	srli	t0,t6,0x10
   214b8:	005686b3          	add	a3,a3,t0
   214bc:	0156f463          	bleu	s5,a3,214c4 <__multf3+0xa00>
   214c0:	00750533          	add	a0,a0,t2
   214c4:	00010ab7          	lui	s5,0x10
   214c8:	fffa8393          	addi	t2,s5,-1 # ffff <main-0x75>
   214cc:	0076f7b3          	and	a5,a3,t2
   214d0:	007ff2b3          	and	t0,t6,t2
   214d4:	01079793          	slli	a5,a5,0x10
   214d8:	005782b3          	add	t0,a5,t0
   214dc:	04c12783          	lw	a5,76(sp)
   214e0:	05012f83          	lw	t6,80(sp)
   214e4:	0106dc13          	srli	s8,a3,0x10
   214e8:	00fc87b3          	add	a5,s9,a5
   214ec:	0197b633          	sltu	a2,a5,s9
   214f0:	01fa0fb3          	add	t6,s4,t6
   214f4:	00cf8db3          	add	s11,t6,a2
   214f8:	016787b3          	add	a5,a5,s6
   214fc:	0167b6b3          	sltu	a3,a5,s6
   21500:	013d8b33          	add	s6,s11,s3
   21504:	00db0d33          	add	s10,s6,a3
   21508:	00e787b3          	add	a5,a5,a4
   2150c:	00e7b733          	sltu	a4,a5,a4
   21510:	012d05b3          	add	a1,s10,s2
   21514:	00e58cb3          	add	s9,a1,a4
   21518:	00ac0c33          	add	s8,s8,a0
   2151c:	005787b3          	add	a5,a5,t0
   21520:	04f12623          	sw	a5,76(sp)
   21524:	014fbfb3          	sltu	t6,t6,s4
   21528:	0057b7b3          	sltu	a5,a5,t0
   2152c:	00cdb633          	sltu	a2,s11,a2
   21530:	018c82b3          	add	t0,s9,s8
   21534:	013b39b3          	sltu	s3,s6,s3
   21538:	00dd36b3          	sltu	a3,s10,a3
   2153c:	00f280b3          	add	ra,t0,a5
   21540:	00ecb733          	sltu	a4,s9,a4
   21544:	00cfefb3          	or	t6,t6,a2
   21548:	00d9e9b3          	or	s3,s3,a3
   2154c:	0125b5b3          	sltu	a1,a1,s2
   21550:	0182bc33          	sltu	s8,t0,s8
   21554:	013f8fb3          	add	t6,t6,s3
   21558:	00e5e5b3          	or	a1,a1,a4
   2155c:	00f0b7b3          	sltu	a5,ra,a5
   21560:	00bf85b3          	add	a1,t6,a1
   21564:	00fc67b3          	or	a5,s8,a5
   21568:	00f587b3          	add	a5,a1,a5
   2156c:	007e7733          	and	a4,t3,t2
   21570:	007373b3          	and	t2,t1,t2
   21574:	04f12a23          	sw	a5,84(sp)
   21578:	04112823          	sw	ra,80(sp)
   2157c:	010e5293          	srli	t0,t3,0x10
   21580:	01035793          	srli	a5,t1,0x10
   21584:	00070513          	mv	a0,a4
   21588:	00038593          	mv	a1,t2
   2158c:	cfdf10ef          	jal	ra,13288 <__mulsi3>
   21590:	00050f93          	mv	t6,a0
   21594:	00078593          	mv	a1,a5
   21598:	00070513          	mv	a0,a4
   2159c:	cedf10ef          	jal	ra,13288 <__mulsi3>
   215a0:	00050713          	mv	a4,a0
   215a4:	00038593          	mv	a1,t2
   215a8:	00028513          	mv	a0,t0
   215ac:	cddf10ef          	jal	ra,13288 <__mulsi3>
   215b0:	00050393          	mv	t2,a0
   215b4:	00078593          	mv	a1,a5
   215b8:	00028513          	mv	a0,t0
   215bc:	ccdf10ef          	jal	ra,13288 <__mulsi3>
   215c0:	010fd613          	srli	a2,t6,0x10
   215c4:	00770733          	add	a4,a4,t2
   215c8:	00e60633          	add	a2,a2,a4
   215cc:	00767463          	bleu	t2,a2,215d4 <__multf3+0xb10>
   215d0:	01550533          	add	a0,a0,s5
   215d4:	000102b7          	lui	t0,0x10
   215d8:	fff28793          	addi	a5,t0,-1 # ffff <main-0x75>
   215dc:	01065713          	srli	a4,a2,0x10
   215e0:	00f67633          	and	a2,a2,a5
   215e4:	00a709b3          	add	s3,a4,a0
   215e8:	01061613          	slli	a2,a2,0x10
   215ec:	00fff733          	and	a4,t6,a5
   215f0:	010f5913          	srli	s2,t5,0x10
   215f4:	00f87fb3          	and	t6,a6,a5
   215f8:	00ff7f33          	and	t5,t5,a5
   215fc:	00e60733          	add	a4,a2,a4
   21600:	01085393          	srli	t2,a6,0x10
   21604:	000f0513          	mv	a0,t5
   21608:	000f8593          	mv	a1,t6
   2160c:	c7df10ef          	jal	ra,13288 <__mulsi3>
   21610:	00050a13          	mv	s4,a0
   21614:	00038593          	mv	a1,t2
   21618:	000f0513          	mv	a0,t5
   2161c:	c6df10ef          	jal	ra,13288 <__mulsi3>
   21620:	00050793          	mv	a5,a0
   21624:	000f8593          	mv	a1,t6
   21628:	00090513          	mv	a0,s2
   2162c:	c5df10ef          	jal	ra,13288 <__mulsi3>
   21630:	00050f93          	mv	t6,a0
   21634:	00038593          	mv	a1,t2
   21638:	00090513          	mv	a0,s2
   2163c:	c4df10ef          	jal	ra,13288 <__mulsi3>
   21640:	01f786b3          	add	a3,a5,t6
   21644:	010a5793          	srli	a5,s4,0x10
   21648:	00f686b3          	add	a3,a3,a5
   2164c:	01f6f463          	bleu	t6,a3,21654 <__multf3+0xb90>
   21650:	00550533          	add	a0,a0,t0
   21654:	00010f37          	lui	t5,0x10
   21658:	ffff0613          	addi	a2,t5,-1 # ffff <main-0x75>
   2165c:	0106d913          	srli	s2,a3,0x10
   21660:	00c6f6b3          	and	a3,a3,a2
   21664:	01069693          	slli	a3,a3,0x10
   21668:	00ca7a33          	and	s4,s4,a2
   2166c:	010ed393          	srli	t2,t4,0x10
   21670:	00c8f2b3          	and	t0,a7,a2
   21674:	00cefeb3          	and	t4,t4,a2
   21678:	00a90933          	add	s2,s2,a0
   2167c:	01468a33          	add	s4,a3,s4
   21680:	0108d793          	srli	a5,a7,0x10
   21684:	00028513          	mv	a0,t0
   21688:	000e8593          	mv	a1,t4
   2168c:	bfdf10ef          	jal	ra,13288 <__mulsi3>
   21690:	00050f93          	mv	t6,a0
   21694:	00038593          	mv	a1,t2
   21698:	00028513          	mv	a0,t0
   2169c:	bedf10ef          	jal	ra,13288 <__mulsi3>
   216a0:	00050293          	mv	t0,a0
   216a4:	000e8593          	mv	a1,t4
   216a8:	00078513          	mv	a0,a5
   216ac:	bddf10ef          	jal	ra,13288 <__mulsi3>
   216b0:	00050e93          	mv	t4,a0
   216b4:	00038593          	mv	a1,t2
   216b8:	00078513          	mv	a0,a5
   216bc:	bcdf10ef          	jal	ra,13288 <__mulsi3>
   216c0:	010fd693          	srli	a3,t6,0x10
   216c4:	01d282b3          	add	t0,t0,t4
   216c8:	005686b3          	add	a3,a3,t0
   216cc:	01d6f463          	bleu	t4,a3,216d4 <__multf3+0xc10>
   216d0:	01e50533          	add	a0,a0,t5
   216d4:	00010eb7          	lui	t4,0x10
   216d8:	fffe8793          	addi	a5,t4,-1 # ffff <main-0x75>
   216dc:	00f6f5b3          	and	a1,a3,a5
   216e0:	0106d393          	srli	t2,a3,0x10
   216e4:	01059593          	slli	a1,a1,0x10
   216e8:	00ffffb3          	and	t6,t6,a5
   216ec:	010e5a93          	srli	s5,t3,0x10
   216f0:	00fe7e33          	and	t3,t3,a5
   216f4:	00f877b3          	and	a5,a6,a5
   216f8:	00a383b3          	add	t2,t2,a0
   216fc:	01f58fb3          	add	t6,a1,t6
   21700:	01085293          	srli	t0,a6,0x10
   21704:	000e0513          	mv	a0,t3
   21708:	00078593          	mv	a1,a5
   2170c:	b7df10ef          	jal	ra,13288 <__mulsi3>
   21710:	00050f13          	mv	t5,a0
   21714:	00028593          	mv	a1,t0
   21718:	000e0513          	mv	a0,t3
   2171c:	b6df10ef          	jal	ra,13288 <__mulsi3>
   21720:	00050e13          	mv	t3,a0
   21724:	00078593          	mv	a1,a5
   21728:	000a8513          	mv	a0,s5
   2172c:	b5df10ef          	jal	ra,13288 <__mulsi3>
   21730:	00050793          	mv	a5,a0
   21734:	00028593          	mv	a1,t0
   21738:	000a8513          	mv	a0,s5
   2173c:	b4df10ef          	jal	ra,13288 <__mulsi3>
   21740:	010f5693          	srli	a3,t5,0x10
   21744:	00fe0e33          	add	t3,t3,a5
   21748:	01c686b3          	add	a3,a3,t3
   2174c:	00f6f463          	bleu	a5,a3,21754 <__multf3+0xc90>
   21750:	01d50533          	add	a0,a0,t4
   21754:	00010eb7          	lui	t4,0x10
   21758:	fffe8613          	addi	a2,t4,-1 # ffff <main-0x75>
   2175c:	00c6fe33          	and	t3,a3,a2
   21760:	00cf7f33          	and	t5,t5,a2
   21764:	010e1e13          	slli	t3,t3,0x10
   21768:	0106d793          	srli	a5,a3,0x10
   2176c:	01ee0e33          	add	t3,t3,t5
   21770:	01035b13          	srli	s6,t1,0x10
   21774:	00c8ff33          	and	t5,a7,a2
   21778:	00c37333          	and	t1,t1,a2
   2177c:	00a782b3          	add	t0,a5,a0
   21780:	00030593          	mv	a1,t1
   21784:	0108d793          	srli	a5,a7,0x10
   21788:	000f0513          	mv	a0,t5
   2178c:	afdf10ef          	jal	ra,13288 <__mulsi3>
   21790:	00050a93          	mv	s5,a0
   21794:	000b0593          	mv	a1,s6
   21798:	000f0513          	mv	a0,t5
   2179c:	aedf10ef          	jal	ra,13288 <__mulsi3>
   217a0:	00050f13          	mv	t5,a0
   217a4:	00030593          	mv	a1,t1
   217a8:	00078513          	mv	a0,a5
   217ac:	addf10ef          	jal	ra,13288 <__mulsi3>
   217b0:	00050313          	mv	t1,a0
   217b4:	000b0593          	mv	a1,s6
   217b8:	00078513          	mv	a0,a5
   217bc:	acdf10ef          	jal	ra,13288 <__mulsi3>
   217c0:	010ad693          	srli	a3,s5,0x10
   217c4:	006f0f33          	add	t5,t5,t1
   217c8:	01e686b3          	add	a3,a3,t5
   217cc:	0066f463          	bleu	t1,a3,217d4 <__multf3+0xd10>
   217d0:	01d50533          	add	a0,a0,t4
   217d4:	05012583          	lw	a1,80(sp)
   217d8:	00010eb7          	lui	t4,0x10
   217dc:	fffe8313          	addi	t1,t4,-1 # ffff <main-0x75>
   217e0:	00b705b3          	add	a1,a4,a1
   217e4:	00e5b633          	sltu	a2,a1,a4
   217e8:	05412703          	lw	a4,84(sp)
   217ec:	0066ff33          	and	t5,a3,t1
   217f0:	006afab3          	and	s5,s5,t1
   217f4:	00e98733          	add	a4,s3,a4
   217f8:	00c70cb3          	add	s9,a4,a2
   217fc:	014585b3          	add	a1,a1,s4
   21800:	010f1f13          	slli	t5,t5,0x10
   21804:	0106d793          	srli	a5,a3,0x10
   21808:	015f0f33          	add	t5,t5,s5
   2180c:	0145b6b3          	sltu	a3,a1,s4
   21810:	012c8ab3          	add	s5,s9,s2
   21814:	00da8c33          	add	s8,s5,a3
   21818:	01f585b3          	add	a1,a1,t6
   2181c:	007c0a33          	add	s4,s8,t2
   21820:	00dc36b3          	sltu	a3,s8,a3
   21824:	04b12823          	sw	a1,80(sp)
   21828:	01373733          	sltu	a4,a4,s3
   2182c:	01f5b5b3          	sltu	a1,a1,t6
   21830:	00ccb633          	sltu	a2,s9,a2
   21834:	012ab933          	sltu	s2,s5,s2
   21838:	00ba0b33          	add	s6,s4,a1
   2183c:	00a78533          	add	a0,a5,a0
   21840:	00c76733          	or	a4,a4,a2
   21844:	00d967b3          	or	a5,s2,a3
   21848:	00f70733          	add	a4,a4,a5
   2184c:	007a33b3          	sltu	t2,s4,t2
   21850:	00bb37b3          	sltu	a5,s6,a1
   21854:	00f3e7b3          	or	a5,t2,a5
   21858:	01cb0fb3          	add	t6,s6,t3
   2185c:	00f70733          	add	a4,a4,a5
   21860:	005707b3          	add	a5,a4,t0
   21864:	01cfbe33          	sltu	t3,t6,t3
   21868:	01c786b3          	add	a3,a5,t3
   2186c:	01ef8fb3          	add	t6,t6,t5
   21870:	00a68733          	add	a4,a3,a0
   21874:	01efbf33          	sltu	t5,t6,t5
   21878:	05f12a23          	sw	t6,84(sp)
   2187c:	01e70fb3          	add	t6,a4,t5
   21880:	00a73533          	sltu	a0,a4,a0
   21884:	0057b7b3          	sltu	a5,a5,t0
   21888:	01c6be33          	sltu	t3,a3,t3
   2188c:	01efbf33          	sltu	t5,t6,t5
   21890:	01e56f33          	or	t5,a0,t5
   21894:	01c7e7b3          	or	a5,a5,t3
   21898:	01e787b3          	add	a5,a5,t5
   2189c:	04f12e23          	sw	a5,92(sp)
   218a0:	0108df13          	srli	t5,a7,0x10
   218a4:	01085793          	srli	a5,a6,0x10
   218a8:	0068f8b3          	and	a7,a7,t1
   218ac:	00687833          	and	a6,a6,t1
   218b0:	05f12c23          	sw	t6,88(sp)
   218b4:	00088513          	mv	a0,a7
   218b8:	00080593          	mv	a1,a6
   218bc:	9cdf10ef          	jal	ra,13288 <__mulsi3>
   218c0:	00050e13          	mv	t3,a0
   218c4:	00078593          	mv	a1,a5
   218c8:	00088513          	mv	a0,a7
   218cc:	9bdf10ef          	jal	ra,13288 <__mulsi3>
   218d0:	00050713          	mv	a4,a0
   218d4:	00080593          	mv	a1,a6
   218d8:	000f0513          	mv	a0,t5
   218dc:	9adf10ef          	jal	ra,13288 <__mulsi3>
   218e0:	00050813          	mv	a6,a0
   218e4:	00078593          	mv	a1,a5
   218e8:	000f0513          	mv	a0,t5
   218ec:	99df10ef          	jal	ra,13288 <__mulsi3>
   218f0:	010e5793          	srli	a5,t3,0x10
   218f4:	01070733          	add	a4,a4,a6
   218f8:	00e787b3          	add	a5,a5,a4
   218fc:	0107f463          	bleu	a6,a5,21904 <__multf3+0xe40>
   21900:	01d50533          	add	a0,a0,t4
   21904:	0067f733          	and	a4,a5,t1
   21908:	01071713          	slli	a4,a4,0x10
   2190c:	006e7333          	and	t1,t3,t1
   21910:	00670333          	add	t1,a4,t1
   21914:	05812703          	lw	a4,88(sp)
   21918:	05c12683          	lw	a3,92(sp)
   2191c:	0107d793          	srli	a5,a5,0x10
   21920:	00e30733          	add	a4,t1,a4
   21924:	00673333          	sltu	t1,a4,t1
   21928:	00d787b3          	add	a5,a5,a3
   2192c:	006787b3          	add	a5,a5,t1
   21930:	00a787b3          	add	a5,a5,a0
   21934:	04f12e23          	sw	a5,92(sp)
   21938:	04e12c23          	sw	a4,88(sp)
   2193c:	04012783          	lw	a5,64(sp)
   21940:	04412703          	lw	a4,68(sp)
   21944:	05010593          	addi	a1,sp,80
   21948:	00e7e7b3          	or	a5,a5,a4
   2194c:	04812703          	lw	a4,72(sp)
   21950:	00e7e733          	or	a4,a5,a4
   21954:	04c12783          	lw	a5,76(sp)
   21958:	00d79793          	slli	a5,a5,0xd
   2195c:	00e7e7b3          	or	a5,a5,a4
   21960:	04010713          	addi	a4,sp,64
   21964:	00c72683          	lw	a3,12(a4)
   21968:	01072603          	lw	a2,16(a4)
   2196c:	00470713          	addi	a4,a4,4
   21970:	0136d693          	srli	a3,a3,0x13
   21974:	00d61613          	slli	a2,a2,0xd
   21978:	00c6e6b3          	or	a3,a3,a2
   2197c:	fed72e23          	sw	a3,-4(a4)
   21980:	fee592e3          	bne	a1,a4,21964 <__multf3+0xea0>
   21984:	04012703          	lw	a4,64(sp)
   21988:	04812683          	lw	a3,72(sp)
   2198c:	00f037b3          	snez	a5,a5
   21990:	00e7e7b3          	or	a5,a5,a4
   21994:	02d12c23          	sw	a3,56(sp)
   21998:	04c12703          	lw	a4,76(sp)
   2199c:	04412683          	lw	a3,68(sp)
   219a0:	02f12823          	sw	a5,48(sp)
   219a4:	02e12e23          	sw	a4,60(sp)
   219a8:	02d12a23          	sw	a3,52(sp)
   219ac:	00b71693          	slli	a3,a4,0xb
   219b0:	2206d063          	bgez	a3,21bd0 <__multf3+0x110c>
   219b4:	01f79793          	slli	a5,a5,0x1f
   219b8:	03010713          	addi	a4,sp,48
   219bc:	03c10593          	addi	a1,sp,60
   219c0:	00072683          	lw	a3,0(a4)
   219c4:	00472603          	lw	a2,4(a4)
   219c8:	00470713          	addi	a4,a4,4
   219cc:	0016d693          	srli	a3,a3,0x1
   219d0:	01f61613          	slli	a2,a2,0x1f
   219d4:	00c6e6b3          	or	a3,a3,a2
   219d8:	fed72e23          	sw	a3,-4(a4)
   219dc:	fee592e3          	bne	a1,a4,219c0 <__multf3+0xefc>
   219e0:	03c12703          	lw	a4,60(sp)
   219e4:	00f037b3          	snez	a5,a5
   219e8:	00175713          	srli	a4,a4,0x1
   219ec:	02e12e23          	sw	a4,60(sp)
   219f0:	03012703          	lw	a4,48(sp)
   219f4:	00f767b3          	or	a5,a4,a5
   219f8:	02f12823          	sw	a5,48(sp)
   219fc:	000047b7          	lui	a5,0x4
   21a00:	fff78793          	addi	a5,a5,-1 # 3fff <main-0xc075>
   21a04:	00fb87b3          	add	a5,s7,a5
   21a08:	1ef05463          	blez	a5,21bf0 <__multf3+0x112c>
   21a0c:	03012703          	lw	a4,48(sp)
   21a10:	00777693          	andi	a3,a4,7
   21a14:	04068463          	beqz	a3,21a5c <__multf3+0xf98>
   21a18:	00f77693          	andi	a3,a4,15
   21a1c:	00400613          	li	a2,4
   21a20:	02c68e63          	beq	a3,a2,21a5c <__multf3+0xf98>
   21a24:	03412683          	lw	a3,52(sp)
   21a28:	00470713          	addi	a4,a4,4
   21a2c:	02e12823          	sw	a4,48(sp)
   21a30:	00473713          	sltiu	a4,a4,4
   21a34:	00d706b3          	add	a3,a4,a3
   21a38:	00e6b733          	sltu	a4,a3,a4
   21a3c:	02d12a23          	sw	a3,52(sp)
   21a40:	03812683          	lw	a3,56(sp)
   21a44:	00d706b3          	add	a3,a4,a3
   21a48:	02d12c23          	sw	a3,56(sp)
   21a4c:	00e6b6b3          	sltu	a3,a3,a4
   21a50:	03c12703          	lw	a4,60(sp)
   21a54:	00e686b3          	add	a3,a3,a4
   21a58:	02d12e23          	sw	a3,60(sp)
   21a5c:	03c12703          	lw	a4,60(sp)
   21a60:	00b71693          	slli	a3,a4,0xb
   21a64:	0006de63          	bgez	a3,21a80 <__multf3+0xfbc>
   21a68:	fff007b7          	lui	a5,0xfff00
   21a6c:	fff78793          	addi	a5,a5,-1 # ffefffff <__global_pointer$+0xffed9d8f>
   21a70:	00f77733          	and	a4,a4,a5
   21a74:	000047b7          	lui	a5,0x4
   21a78:	02e12e23          	sw	a4,60(sp)
   21a7c:	00fb87b3          	add	a5,s7,a5
   21a80:	03010713          	addi	a4,sp,48
   21a84:	03c10593          	addi	a1,sp,60
   21a88:	00072683          	lw	a3,0(a4)
   21a8c:	00472603          	lw	a2,4(a4)
   21a90:	00470713          	addi	a4,a4,4
   21a94:	0036d693          	srli	a3,a3,0x3
   21a98:	01d61613          	slli	a2,a2,0x1d
   21a9c:	00c6e6b3          	or	a3,a3,a2
   21aa0:	fed72e23          	sw	a3,-4(a4)
   21aa4:	feb712e3          	bne	a4,a1,21a88 <__multf3+0xfc4>
   21aa8:	00008737          	lui	a4,0x8
   21aac:	ffe70693          	addi	a3,a4,-2 # 7ffe <main-0x8076>
   21ab0:	12f6c463          	blt	a3,a5,21bd8 <__multf3+0x1114>
   21ab4:	03c12703          	lw	a4,60(sp)
   21ab8:	00375713          	srli	a4,a4,0x3
   21abc:	02e12e23          	sw	a4,60(sp)
   21ac0:	03c12703          	lw	a4,60(sp)
   21ac4:	01179793          	slli	a5,a5,0x11
   21ac8:	800106b7          	lui	a3,0x80010
   21acc:	04e11623          	sh	a4,76(sp)
   21ad0:	04c12703          	lw	a4,76(sp)
   21ad4:	0117d793          	srli	a5,a5,0x11
   21ad8:	fff68693          	addi	a3,a3,-1 # 8000ffff <__global_pointer$+0x7ffe9d8f>
   21adc:	00d77733          	and	a4,a4,a3
   21ae0:	01079793          	slli	a5,a5,0x10
   21ae4:	00f767b3          	or	a5,a4,a5
   21ae8:	03012703          	lw	a4,48(sp)
   21aec:	00179793          	slli	a5,a5,0x1
   21af0:	01f49493          	slli	s1,s1,0x1f
   21af4:	00e42023          	sw	a4,0(s0) # 800000 <__global_pointer$+0x7d9d90>
   21af8:	03412703          	lw	a4,52(sp)
   21afc:	0017d793          	srli	a5,a5,0x1
   21b00:	0097e7b3          	or	a5,a5,s1
   21b04:	00e42223          	sw	a4,4(s0)
   21b08:	03812703          	lw	a4,56(sp)
   21b0c:	00f42623          	sw	a5,12(s0)
   21b10:	00040513          	mv	a0,s0
   21b14:	00e42423          	sw	a4,8(s0)
   21b18:	09c12083          	lw	ra,156(sp)
   21b1c:	09812403          	lw	s0,152(sp)
   21b20:	09412483          	lw	s1,148(sp)
   21b24:	09012903          	lw	s2,144(sp)
   21b28:	08c12983          	lw	s3,140(sp)
   21b2c:	08812a03          	lw	s4,136(sp)
   21b30:	08412a83          	lw	s5,132(sp)
   21b34:	08012b03          	lw	s6,128(sp)
   21b38:	07c12b83          	lw	s7,124(sp)
   21b3c:	07812c03          	lw	s8,120(sp)
   21b40:	07412c83          	lw	s9,116(sp)
   21b44:	07012d03          	lw	s10,112(sp)
   21b48:	06c12d83          	lw	s11,108(sp)
   21b4c:	0a010113          	addi	sp,sp,160
   21b50:	00008067          	ret
   21b54:	000a0493          	mv	s1,s4
   21b58:	01012783          	lw	a5,16(sp)
   21b5c:	02f12823          	sw	a5,48(sp)
   21b60:	01412783          	lw	a5,20(sp)
   21b64:	02f12a23          	sw	a5,52(sp)
   21b68:	01812783          	lw	a5,24(sp)
   21b6c:	02f12c23          	sw	a5,56(sp)
   21b70:	01c12783          	lw	a5,28(sp)
   21b74:	02f12e23          	sw	a5,60(sp)
   21b78:	00200793          	li	a5,2
   21b7c:	26fc0a63          	beq	s8,a5,21df0 <__multf3+0x132c>
   21b80:	00300793          	li	a5,3
   21b84:	28fc0463          	beq	s8,a5,21e0c <__multf3+0x1348>
   21b88:	00100793          	li	a5,1
   21b8c:	e6fc18e3          	bne	s8,a5,219fc <__multf3+0xf38>
   21b90:	02012e23          	sw	zero,60(sp)
   21b94:	02012c23          	sw	zero,56(sp)
   21b98:	02012a23          	sw	zero,52(sp)
   21b9c:	02012823          	sw	zero,48(sp)
   21ba0:	2100006f          	j	21db0 <__multf3+0x12ec>
   21ba4:	00098493          	mv	s1,s3
   21ba8:	02012783          	lw	a5,32(sp)
   21bac:	00070c13          	mv	s8,a4
   21bb0:	02f12823          	sw	a5,48(sp)
   21bb4:	02412783          	lw	a5,36(sp)
   21bb8:	02f12a23          	sw	a5,52(sp)
   21bbc:	02812783          	lw	a5,40(sp)
   21bc0:	02f12c23          	sw	a5,56(sp)
   21bc4:	02c12783          	lw	a5,44(sp)
   21bc8:	02f12e23          	sw	a5,60(sp)
   21bcc:	fadff06f          	j	21b78 <__multf3+0x10b4>
   21bd0:	00812b83          	lw	s7,8(sp)
   21bd4:	e29ff06f          	j	219fc <__multf3+0xf38>
   21bd8:	02012e23          	sw	zero,60(sp)
   21bdc:	02012c23          	sw	zero,56(sp)
   21be0:	02012a23          	sw	zero,52(sp)
   21be4:	02012823          	sw	zero,48(sp)
   21be8:	fff70793          	addi	a5,a4,-1
   21bec:	ed5ff06f          	j	21ac0 <__multf3+0xffc>
   21bf0:	00100713          	li	a4,1
   21bf4:	40f707b3          	sub	a5,a4,a5
   21bf8:	07400713          	li	a4,116
   21bfc:	1af74e63          	blt	a4,a5,21db8 <__multf3+0x12f4>
   21c00:	4057d893          	srai	a7,a5,0x5
   21c04:	00000713          	li	a4,0
   21c08:	01f7f793          	andi	a5,a5,31
   21c0c:	00000693          	li	a3,0
   21c10:	00269613          	slli	a2,a3,0x2
   21c14:	03169a63          	bne	a3,a7,21c48 <__multf3+0x1184>
   21c18:	04079463          	bnez	a5,21c60 <__multf3+0x119c>
   21c1c:	00300513          	li	a0,3
   21c20:	03010593          	addi	a1,sp,48
   21c24:	40d506b3          	sub	a3,a0,a3
   21c28:	00c58533          	add	a0,a1,a2
   21c2c:	00052503          	lw	a0,0(a0)
   21c30:	00178793          	addi	a5,a5,1 # 4001 <main-0xc073>
   21c34:	00458593          	addi	a1,a1,4
   21c38:	fea5ae23          	sw	a0,-4(a1)
   21c3c:	fef6d6e3          	ble	a5,a3,21c28 <__multf3+0x1164>
   21c40:	00400613          	li	a2,4
   21c44:	0b80006f          	j	21cfc <__multf3+0x1238>
   21c48:	03010593          	addi	a1,sp,48
   21c4c:	00c58633          	add	a2,a1,a2
   21c50:	00062603          	lw	a2,0(a2)
   21c54:	00168693          	addi	a3,a3,1
   21c58:	00c76733          	or	a4,a4,a2
   21c5c:	fb5ff06f          	j	21c10 <__multf3+0x114c>
   21c60:	06010693          	addi	a3,sp,96
   21c64:	00c686b3          	add	a3,a3,a2
   21c68:	fd06a683          	lw	a3,-48(a3)
   21c6c:	02000813          	li	a6,32
   21c70:	40f80833          	sub	a6,a6,a5
   21c74:	010696b3          	sll	a3,a3,a6
   21c78:	00d76733          	or	a4,a4,a3
   21c7c:	03010693          	addi	a3,sp,48
   21c80:	00c68633          	add	a2,a3,a2
   21c84:	00300693          	li	a3,3
   21c88:	00000513          	li	a0,0
   21c8c:	411686b3          	sub	a3,a3,a7
   21c90:	00460613          	addi	a2,a2,4
   21c94:	02d54463          	blt	a0,a3,21cbc <__multf3+0x11f8>
   21c98:	06010613          	addi	a2,sp,96
   21c9c:	00269693          	slli	a3,a3,0x2
   21ca0:	00d606b3          	add	a3,a2,a3
   21ca4:	03c12603          	lw	a2,60(sp)
   21ca8:	00f657b3          	srl	a5,a2,a5
   21cac:	fcf6a823          	sw	a5,-48(a3)
   21cb0:	00400793          	li	a5,4
   21cb4:	411787b3          	sub	a5,a5,a7
   21cb8:	f89ff06f          	j	21c40 <__multf3+0x117c>
   21cbc:	00251313          	slli	t1,a0,0x2
   21cc0:	03010593          	addi	a1,sp,48
   21cc4:	00658333          	add	t1,a1,t1
   21cc8:	00062e03          	lw	t3,0(a2)
   21ccc:	ffc62583          	lw	a1,-4(a2)
   21cd0:	00150513          	addi	a0,a0,1
   21cd4:	010e1e33          	sll	t3,t3,a6
   21cd8:	00f5d5b3          	srl	a1,a1,a5
   21cdc:	01c5e5b3          	or	a1,a1,t3
   21ce0:	00b32023          	sw	a1,0(t1)
   21ce4:	fadff06f          	j	21c90 <__multf3+0x11cc>
   21ce8:	00279693          	slli	a3,a5,0x2
   21cec:	03010593          	addi	a1,sp,48
   21cf0:	00d586b3          	add	a3,a1,a3
   21cf4:	0006a023          	sw	zero,0(a3)
   21cf8:	00178793          	addi	a5,a5,1
   21cfc:	fec796e3          	bne	a5,a2,21ce8 <__multf3+0x1224>
   21d00:	03012683          	lw	a3,48(sp)
   21d04:	00e03733          	snez	a4,a4
   21d08:	00d76733          	or	a4,a4,a3
   21d0c:	02e12823          	sw	a4,48(sp)
   21d10:	00777693          	andi	a3,a4,7
   21d14:	04068263          	beqz	a3,21d58 <__multf3+0x1294>
   21d18:	00f77693          	andi	a3,a4,15
   21d1c:	02f68e63          	beq	a3,a5,21d58 <__multf3+0x1294>
   21d20:	03412783          	lw	a5,52(sp)
   21d24:	00470713          	addi	a4,a4,4
   21d28:	02e12823          	sw	a4,48(sp)
   21d2c:	00473713          	sltiu	a4,a4,4
   21d30:	00f707b3          	add	a5,a4,a5
   21d34:	00e7b733          	sltu	a4,a5,a4
   21d38:	02f12a23          	sw	a5,52(sp)
   21d3c:	03812783          	lw	a5,56(sp)
   21d40:	00f707b3          	add	a5,a4,a5
   21d44:	02f12c23          	sw	a5,56(sp)
   21d48:	00e7b7b3          	sltu	a5,a5,a4
   21d4c:	03c12703          	lw	a4,60(sp)
   21d50:	00e787b3          	add	a5,a5,a4
   21d54:	02f12e23          	sw	a5,60(sp)
   21d58:	03c12783          	lw	a5,60(sp)
   21d5c:	00c79713          	slli	a4,a5,0xc
   21d60:	00075e63          	bgez	a4,21d7c <__multf3+0x12b8>
   21d64:	02012e23          	sw	zero,60(sp)
   21d68:	02012c23          	sw	zero,56(sp)
   21d6c:	02012a23          	sw	zero,52(sp)
   21d70:	02012823          	sw	zero,48(sp)
   21d74:	00100793          	li	a5,1
   21d78:	d49ff06f          	j	21ac0 <__multf3+0xffc>
   21d7c:	03010793          	addi	a5,sp,48
   21d80:	03c10613          	addi	a2,sp,60
   21d84:	0007a703          	lw	a4,0(a5)
   21d88:	0047a683          	lw	a3,4(a5)
   21d8c:	00478793          	addi	a5,a5,4
   21d90:	00375713          	srli	a4,a4,0x3
   21d94:	01d69693          	slli	a3,a3,0x1d
   21d98:	00d76733          	or	a4,a4,a3
   21d9c:	fee7ae23          	sw	a4,-4(a5)
   21da0:	fef612e3          	bne	a2,a5,21d84 <__multf3+0x12c0>
   21da4:	03c12783          	lw	a5,60(sp)
   21da8:	0037d793          	srli	a5,a5,0x3
   21dac:	02f12e23          	sw	a5,60(sp)
   21db0:	00000793          	li	a5,0
   21db4:	d0dff06f          	j	21ac0 <__multf3+0xffc>
   21db8:	03412783          	lw	a5,52(sp)
   21dbc:	03012703          	lw	a4,48(sp)
   21dc0:	00f76733          	or	a4,a4,a5
   21dc4:	03812783          	lw	a5,56(sp)
   21dc8:	00f76733          	or	a4,a4,a5
   21dcc:	03c12783          	lw	a5,60(sp)
   21dd0:	00f76733          	or	a4,a4,a5
   21dd4:	00000793          	li	a5,0
   21dd8:	ce0704e3          	beqz	a4,21ac0 <__multf3+0xffc>
   21ddc:	02012e23          	sw	zero,60(sp)
   21de0:	02012c23          	sw	zero,56(sp)
   21de4:	02012a23          	sw	zero,52(sp)
   21de8:	02012823          	sw	zero,48(sp)
   21dec:	cd5ff06f          	j	21ac0 <__multf3+0xffc>
   21df0:	000087b7          	lui	a5,0x8
   21df4:	02012e23          	sw	zero,60(sp)
   21df8:	02012c23          	sw	zero,56(sp)
   21dfc:	02012a23          	sw	zero,52(sp)
   21e00:	02012823          	sw	zero,48(sp)
   21e04:	fff78793          	addi	a5,a5,-1 # 7fff <main-0x8075>
   21e08:	cb9ff06f          	j	21ac0 <__multf3+0xffc>
   21e0c:	000087b7          	lui	a5,0x8
   21e10:	02f12e23          	sw	a5,60(sp)
   21e14:	02012c23          	sw	zero,56(sp)
   21e18:	02012a23          	sw	zero,52(sp)
   21e1c:	02012823          	sw	zero,48(sp)
   21e20:	fff78793          	addi	a5,a5,-1 # 7fff <main-0x8075>
   21e24:	00000493          	li	s1,0
   21e28:	c99ff06f          	j	21ac0 <__multf3+0xffc>

00021e2c <__subtf3>:
   21e2c:	fa010113          	addi	sp,sp,-96
   21e30:	0085a783          	lw	a5,8(a1)
   21e34:	05212823          	sw	s2,80(sp)
   21e38:	00c5a903          	lw	s2,12(a1)
   21e3c:	0005a803          	lw	a6,0(a1)
   21e40:	0045a703          	lw	a4,4(a1)
   21e44:	04912a23          	sw	s1,84(sp)
   21e48:	02f12c23          	sw	a5,56(sp)
   21e4c:	00050493          	mv	s1,a0
   21e50:	00f12c23          	sw	a5,24(sp)
   21e54:	00062303          	lw	t1,0(a2)
   21e58:	01091793          	slli	a5,s2,0x10
   21e5c:	00462583          	lw	a1,4(a2)
   21e60:	00862683          	lw	a3,8(a2)
   21e64:	00c62503          	lw	a0,12(a2)
   21e68:	04812c23          	sw	s0,88(sp)
   21e6c:	0107d793          	srli	a5,a5,0x10
   21e70:	00191413          	slli	s0,s2,0x1
   21e74:	03012823          	sw	a6,48(sp)
   21e78:	03212e23          	sw	s2,60(sp)
   21e7c:	01012823          	sw	a6,16(sp)
   21e80:	04112e23          	sw	ra,92(sp)
   21e84:	05312623          	sw	s3,76(sp)
   21e88:	05412423          	sw	s4,72(sp)
   21e8c:	05512223          	sw	s5,68(sp)
   21e90:	02e12a23          	sw	a4,52(sp)
   21e94:	00e12a23          	sw	a4,20(sp)
   21e98:	00f12e23          	sw	a5,28(sp)
   21e9c:	01145413          	srli	s0,s0,0x11
   21ea0:	01f95913          	srli	s2,s2,0x1f
   21ea4:	01010893          	addi	a7,sp,16
   21ea8:	01c10813          	addi	a6,sp,28
   21eac:	00082783          	lw	a5,0(a6)
   21eb0:	ffc82703          	lw	a4,-4(a6)
   21eb4:	ffc80813          	addi	a6,a6,-4
   21eb8:	00379793          	slli	a5,a5,0x3
   21ebc:	01d75713          	srli	a4,a4,0x1d
   21ec0:	00e7e7b3          	or	a5,a5,a4
   21ec4:	00f82223          	sw	a5,4(a6)
   21ec8:	ff0892e3          	bne	a7,a6,21eac <__subtf3+0x80>
   21ecc:	01012703          	lw	a4,16(sp)
   21ed0:	01051793          	slli	a5,a0,0x10
   21ed4:	00151613          	slli	a2,a0,0x1
   21ed8:	00371713          	slli	a4,a4,0x3
   21edc:	0107d793          	srli	a5,a5,0x10
   21ee0:	02612823          	sw	t1,48(sp)
   21ee4:	02a12e23          	sw	a0,60(sp)
   21ee8:	02612023          	sw	t1,32(sp)
   21eec:	00e12823          	sw	a4,16(sp)
   21ef0:	02b12a23          	sw	a1,52(sp)
   21ef4:	02d12c23          	sw	a3,56(sp)
   21ef8:	02b12223          	sw	a1,36(sp)
   21efc:	02d12423          	sw	a3,40(sp)
   21f00:	02f12623          	sw	a5,44(sp)
   21f04:	01165613          	srli	a2,a2,0x11
   21f08:	01f55513          	srli	a0,a0,0x1f
   21f0c:	02010313          	addi	t1,sp,32
   21f10:	02c10e13          	addi	t3,sp,44
   21f14:	000e2783          	lw	a5,0(t3)
   21f18:	ffce2683          	lw	a3,-4(t3)
   21f1c:	ffce0e13          	addi	t3,t3,-4
   21f20:	00379793          	slli	a5,a5,0x3
   21f24:	01d6d693          	srli	a3,a3,0x1d
   21f28:	00d7e7b3          	or	a5,a5,a3
   21f2c:	00fe2223          	sw	a5,4(t3)
   21f30:	ffc312e3          	bne	t1,t3,21f14 <__subtf3+0xe8>
   21f34:	02012783          	lw	a5,32(sp)
   21f38:	000086b7          	lui	a3,0x8
   21f3c:	fff68693          	addi	a3,a3,-1 # 7fff <main-0x8075>
   21f40:	00379793          	slli	a5,a5,0x3
   21f44:	02f12023          	sw	a5,32(sp)
   21f48:	02d61063          	bne	a2,a3,21f68 <__subtf3+0x13c>
   21f4c:	02812583          	lw	a1,40(sp)
   21f50:	02412683          	lw	a3,36(sp)
   21f54:	00b6e6b3          	or	a3,a3,a1
   21f58:	02c12583          	lw	a1,44(sp)
   21f5c:	00b6e6b3          	or	a3,a3,a1
   21f60:	00f6e6b3          	or	a3,a3,a5
   21f64:	00069463          	bnez	a3,21f6c <__subtf3+0x140>
   21f68:	00154513          	xori	a0,a0,1
   21f6c:	40c405b3          	sub	a1,s0,a2
   21f70:	15251ce3          	bne	a0,s2,228c8 <__subtf3+0xa9c>
   21f74:	30b05463          	blez	a1,2227c <__subtf3+0x450>
   21f78:	0c061663          	bnez	a2,22044 <__subtf3+0x218>
   21f7c:	02412503          	lw	a0,36(sp)
   21f80:	02812603          	lw	a2,40(sp)
   21f84:	02c12803          	lw	a6,44(sp)
   21f88:	00c566b3          	or	a3,a0,a2
   21f8c:	0106e6b3          	or	a3,a3,a6
   21f90:	00f6e6b3          	or	a3,a3,a5
   21f94:	02069063          	bnez	a3,21fb4 <__subtf3+0x188>
   21f98:	01412783          	lw	a5,20(sp)
   21f9c:	02e12823          	sw	a4,48(sp)
   21fa0:	02f12a23          	sw	a5,52(sp)
   21fa4:	01812783          	lw	a5,24(sp)
   21fa8:	02f12c23          	sw	a5,56(sp)
   21fac:	01c12783          	lw	a5,28(sp)
   21fb0:	30c0006f          	j	222bc <__subtf3+0x490>
   21fb4:	fff58693          	addi	a3,a1,-1
   21fb8:	06069063          	bnez	a3,22018 <__subtf3+0x1ec>
   21fbc:	01412683          	lw	a3,20(sp)
   21fc0:	00f707b3          	add	a5,a4,a5
   21fc4:	00e7b733          	sltu	a4,a5,a4
   21fc8:	00d505b3          	add	a1,a0,a3
   21fcc:	02f12823          	sw	a5,48(sp)
   21fd0:	00e587b3          	add	a5,a1,a4
   21fd4:	00e7b733          	sltu	a4,a5,a4
   21fd8:	02f12a23          	sw	a5,52(sp)
   21fdc:	01812783          	lw	a5,24(sp)
   21fe0:	00d5b6b3          	sltu	a3,a1,a3
   21fe4:	00e6e733          	or	a4,a3,a4
   21fe8:	00f606b3          	add	a3,a2,a5
   21fec:	00e68633          	add	a2,a3,a4
   21ff0:	00e63733          	sltu	a4,a2,a4
   21ff4:	00f6b7b3          	sltu	a5,a3,a5
   21ff8:	00e7e7b3          	or	a5,a5,a4
   21ffc:	01c12703          	lw	a4,28(sp)
   22000:	02c12c23          	sw	a2,56(sp)
   22004:	00e80833          	add	a6,a6,a4
   22008:	010787b3          	add	a5,a5,a6
   2200c:	02f12e23          	sw	a5,60(sp)
   22010:	00100413          	li	s0,1
   22014:	1dc0006f          	j	221f0 <__subtf3+0x3c4>
   22018:	000087b7          	lui	a5,0x8
   2201c:	fff78793          	addi	a5,a5,-1 # 7fff <main-0x8075>
   22020:	f6f58ce3          	beq	a1,a5,21f98 <__subtf3+0x16c>
   22024:	07400793          	li	a5,116
   22028:	06d7d263          	ble	a3,a5,2208c <__subtf3+0x260>
   2202c:	00100793          	li	a5,1
   22030:	02012623          	sw	zero,44(sp)
   22034:	02012423          	sw	zero,40(sp)
   22038:	02012223          	sw	zero,36(sp)
   2203c:	02f12023          	sw	a5,32(sp)
   22040:	1480006f          	j	22188 <__subtf3+0x35c>
   22044:	000087b7          	lui	a5,0x8
   22048:	fff78793          	addi	a5,a5,-1 # 7fff <main-0x8075>
   2204c:	02f41263          	bne	s0,a5,22070 <__subtf3+0x244>
   22050:	01412783          	lw	a5,20(sp)
   22054:	02e12823          	sw	a4,48(sp)
   22058:	02f12a23          	sw	a5,52(sp)
   2205c:	01812783          	lw	a5,24(sp)
   22060:	02f12c23          	sw	a5,56(sp)
   22064:	01c12783          	lw	a5,28(sp)
   22068:	02f12e23          	sw	a5,60(sp)
   2206c:	2580006f          	j	222c4 <__subtf3+0x498>
   22070:	02c12783          	lw	a5,44(sp)
   22074:	00080737          	lui	a4,0x80
   22078:	00e7e7b3          	or	a5,a5,a4
   2207c:	02f12623          	sw	a5,44(sp)
   22080:	07400793          	li	a5,116
   22084:	fab7c4e3          	blt	a5,a1,2202c <__subtf3+0x200>
   22088:	00058693          	mv	a3,a1
   2208c:	4056d893          	srai	a7,a3,0x5
   22090:	01f6f793          	andi	a5,a3,31
   22094:	00000613          	li	a2,0
   22098:	00000713          	li	a4,0
   2209c:	00271693          	slli	a3,a4,0x2
   220a0:	03171863          	bne	a4,a7,220d0 <__subtf3+0x2a4>
   220a4:	04079063          	bnez	a5,220e4 <__subtf3+0x2b8>
   220a8:	00300593          	li	a1,3
   220ac:	40e58733          	sub	a4,a1,a4
   220b0:	00de05b3          	add	a1,t3,a3
   220b4:	0005a583          	lw	a1,0(a1)
   220b8:	00178793          	addi	a5,a5,1
   220bc:	004e0e13          	addi	t3,t3,4
   220c0:	febe2e23          	sw	a1,-4(t3)
   220c4:	fef756e3          	ble	a5,a4,220b0 <__subtf3+0x284>
   220c8:	00400693          	li	a3,4
   220cc:	0a80006f          	j	22174 <__subtf3+0x348>
   220d0:	00d306b3          	add	a3,t1,a3
   220d4:	0006a683          	lw	a3,0(a3)
   220d8:	00170713          	addi	a4,a4,1 # 80001 <__global_pointer$+0x59d91>
   220dc:	00d66633          	or	a2,a2,a3
   220e0:	fbdff06f          	j	2209c <__subtf3+0x270>
   220e4:	04010713          	addi	a4,sp,64
   220e8:	00d70733          	add	a4,a4,a3
   220ec:	fe072703          	lw	a4,-32(a4)
   220f0:	02000813          	li	a6,32
   220f4:	40f80833          	sub	a6,a6,a5
   220f8:	01071733          	sll	a4,a4,a6
   220fc:	00e66633          	or	a2,a2,a4
   22100:	00300713          	li	a4,3
   22104:	00d306b3          	add	a3,t1,a3
   22108:	00000513          	li	a0,0
   2210c:	41170733          	sub	a4,a4,a7
   22110:	00468693          	addi	a3,a3,4
   22114:	02e54463          	blt	a0,a4,2213c <__subtf3+0x310>
   22118:	04010693          	addi	a3,sp,64
   2211c:	00271713          	slli	a4,a4,0x2
   22120:	00e68733          	add	a4,a3,a4
   22124:	02c12683          	lw	a3,44(sp)
   22128:	00f6d7b3          	srl	a5,a3,a5
   2212c:	fef72023          	sw	a5,-32(a4)
   22130:	00400793          	li	a5,4
   22134:	411787b3          	sub	a5,a5,a7
   22138:	f91ff06f          	j	220c8 <__subtf3+0x29c>
   2213c:	ffc6a583          	lw	a1,-4(a3)
   22140:	0006ae83          	lw	t4,0(a3)
   22144:	00251e13          	slli	t3,a0,0x2
   22148:	00f5d5b3          	srl	a1,a1,a5
   2214c:	010e9eb3          	sll	t4,t4,a6
   22150:	01c30e33          	add	t3,t1,t3
   22154:	01d5e5b3          	or	a1,a1,t4
   22158:	00be2023          	sw	a1,0(t3)
   2215c:	00150513          	addi	a0,a0,1
   22160:	fb1ff06f          	j	22110 <__subtf3+0x2e4>
   22164:	00279713          	slli	a4,a5,0x2
   22168:	00e30733          	add	a4,t1,a4
   2216c:	00072023          	sw	zero,0(a4)
   22170:	00178793          	addi	a5,a5,1
   22174:	fed798e3          	bne	a5,a3,22164 <__subtf3+0x338>
   22178:	02012783          	lw	a5,32(sp)
   2217c:	00c03633          	snez	a2,a2
   22180:	00c7e633          	or	a2,a5,a2
   22184:	02c12023          	sw	a2,32(sp)
   22188:	01012683          	lw	a3,16(sp)
   2218c:	02012783          	lw	a5,32(sp)
   22190:	01412703          	lw	a4,20(sp)
   22194:	02812583          	lw	a1,40(sp)
   22198:	00f687b3          	add	a5,a3,a5
   2219c:	00d7b6b3          	sltu	a3,a5,a3
   221a0:	02f12823          	sw	a5,48(sp)
   221a4:	02412783          	lw	a5,36(sp)
   221a8:	02c12503          	lw	a0,44(sp)
   221ac:	00f707b3          	add	a5,a4,a5
   221b0:	00d78633          	add	a2,a5,a3
   221b4:	00e7b733          	sltu	a4,a5,a4
   221b8:	00d637b3          	sltu	a5,a2,a3
   221bc:	00f767b3          	or	a5,a4,a5
   221c0:	01812703          	lw	a4,24(sp)
   221c4:	01c12683          	lw	a3,28(sp)
   221c8:	02c12a23          	sw	a2,52(sp)
   221cc:	00b705b3          	add	a1,a4,a1
   221d0:	00f58633          	add	a2,a1,a5
   221d4:	00e5b733          	sltu	a4,a1,a4
   221d8:	00f637b3          	sltu	a5,a2,a5
   221dc:	00a686b3          	add	a3,a3,a0
   221e0:	00f76733          	or	a4,a4,a5
   221e4:	00e68733          	add	a4,a3,a4
   221e8:	02c12c23          	sw	a2,56(sp)
   221ec:	02e12e23          	sw	a4,60(sp)
   221f0:	03c12783          	lw	a5,60(sp)
   221f4:	00c79713          	slli	a4,a5,0xc
   221f8:	0c075663          	bgez	a4,222c4 <__subtf3+0x498>
   221fc:	fff80737          	lui	a4,0xfff80
   22200:	fff70713          	addi	a4,a4,-1 # fff7ffff <__global_pointer$+0xfff59d8f>
   22204:	00e7f7b3          	and	a5,a5,a4
   22208:	02f12e23          	sw	a5,60(sp)
   2220c:	03012783          	lw	a5,48(sp)
   22210:	00140413          	addi	s0,s0,1
   22214:	03c10593          	addi	a1,sp,60
   22218:	01f79713          	slli	a4,a5,0x1f
   2221c:	03010793          	addi	a5,sp,48
   22220:	0007a683          	lw	a3,0(a5)
   22224:	0047a603          	lw	a2,4(a5)
   22228:	00478793          	addi	a5,a5,4
   2222c:	0016d693          	srli	a3,a3,0x1
   22230:	01f61613          	slli	a2,a2,0x1f
   22234:	00c6e6b3          	or	a3,a3,a2
   22238:	fed7ae23          	sw	a3,-4(a5)
   2223c:	fef592e3          	bne	a1,a5,22220 <__subtf3+0x3f4>
   22240:	03c12783          	lw	a5,60(sp)
   22244:	0017d793          	srli	a5,a5,0x1
   22248:	02f12e23          	sw	a5,60(sp)
   2224c:	00e037b3          	snez	a5,a4
   22250:	03012703          	lw	a4,48(sp)
   22254:	00f767b3          	or	a5,a4,a5
   22258:	02f12823          	sw	a5,48(sp)
   2225c:	000087b7          	lui	a5,0x8
   22260:	fff78793          	addi	a5,a5,-1 # 7fff <main-0x8075>
   22264:	06f41063          	bne	s0,a5,222c4 <__subtf3+0x498>
   22268:	02012e23          	sw	zero,60(sp)
   2226c:	02012c23          	sw	zero,56(sp)
   22270:	02012a23          	sw	zero,52(sp)
   22274:	02012823          	sw	zero,48(sp)
   22278:	04c0006f          	j	222c4 <__subtf3+0x498>
   2227c:	42058863          	beqz	a1,226ac <__subtf3+0x880>
   22280:	408605b3          	sub	a1,a2,s0
   22284:	22041a63          	bnez	s0,224b8 <__subtf3+0x68c>
   22288:	01412303          	lw	t1,20(sp)
   2228c:	01812503          	lw	a0,24(sp)
   22290:	01c12e03          	lw	t3,28(sp)
   22294:	00a366b3          	or	a3,t1,a0
   22298:	01c6e6b3          	or	a3,a3,t3
   2229c:	00e6e6b3          	or	a3,a3,a4
   222a0:	18069863          	bnez	a3,22430 <__subtf3+0x604>
   222a4:	02f12823          	sw	a5,48(sp)
   222a8:	02412783          	lw	a5,36(sp)
   222ac:	02f12a23          	sw	a5,52(sp)
   222b0:	02812783          	lw	a5,40(sp)
   222b4:	02f12c23          	sw	a5,56(sp)
   222b8:	02c12783          	lw	a5,44(sp)
   222bc:	02f12e23          	sw	a5,60(sp)
   222c0:	00058413          	mv	s0,a1
   222c4:	03012783          	lw	a5,48(sp)
   222c8:	0077f713          	andi	a4,a5,7
   222cc:	04070463          	beqz	a4,22314 <__subtf3+0x4e8>
   222d0:	00f7f713          	andi	a4,a5,15
   222d4:	00400693          	li	a3,4
   222d8:	02d70e63          	beq	a4,a3,22314 <__subtf3+0x4e8>
   222dc:	03412703          	lw	a4,52(sp)
   222e0:	00478793          	addi	a5,a5,4
   222e4:	02f12823          	sw	a5,48(sp)
   222e8:	0047b793          	sltiu	a5,a5,4
   222ec:	00e78733          	add	a4,a5,a4
   222f0:	00f737b3          	sltu	a5,a4,a5
   222f4:	02e12a23          	sw	a4,52(sp)
   222f8:	03812703          	lw	a4,56(sp)
   222fc:	00e78733          	add	a4,a5,a4
   22300:	02e12c23          	sw	a4,56(sp)
   22304:	00f73733          	sltu	a4,a4,a5
   22308:	03c12783          	lw	a5,60(sp)
   2230c:	00f70733          	add	a4,a4,a5
   22310:	02e12e23          	sw	a4,60(sp)
   22314:	03c12783          	lw	a5,60(sp)
   22318:	00c79713          	slli	a4,a5,0xc
   2231c:	02075463          	bgez	a4,22344 <__subtf3+0x518>
   22320:	00008737          	lui	a4,0x8
   22324:	00140413          	addi	s0,s0,1
   22328:	fff70713          	addi	a4,a4,-1 # 7fff <main-0x8075>
   2232c:	00e41463          	bne	s0,a4,22334 <__subtf3+0x508>
   22330:	0800106f          	j	233b0 <__subtf3+0x1584>
   22334:	fff80737          	lui	a4,0xfff80
   22338:	fff70713          	addi	a4,a4,-1 # fff7ffff <__global_pointer$+0xfff59d8f>
   2233c:	00e7f7b3          	and	a5,a5,a4
   22340:	02f12e23          	sw	a5,60(sp)
   22344:	03010793          	addi	a5,sp,48
   22348:	03c10613          	addi	a2,sp,60
   2234c:	0007a703          	lw	a4,0(a5)
   22350:	0047a683          	lw	a3,4(a5)
   22354:	00478793          	addi	a5,a5,4
   22358:	00375713          	srli	a4,a4,0x3
   2235c:	01d69693          	slli	a3,a3,0x1d
   22360:	00d76733          	or	a4,a4,a3
   22364:	fee7ae23          	sw	a4,-4(a5)
   22368:	fef612e3          	bne	a2,a5,2234c <__subtf3+0x520>
   2236c:	03c12783          	lw	a5,60(sp)
   22370:	000086b7          	lui	a3,0x8
   22374:	0037d713          	srli	a4,a5,0x3
   22378:	02e12e23          	sw	a4,60(sp)
   2237c:	fff68793          	addi	a5,a3,-1 # 7fff <main-0x8075>
   22380:	02f41a63          	bne	s0,a5,223b4 <__subtf3+0x588>
   22384:	03412603          	lw	a2,52(sp)
   22388:	03012783          	lw	a5,48(sp)
   2238c:	00c7e7b3          	or	a5,a5,a2
   22390:	03812603          	lw	a2,56(sp)
   22394:	00c7e7b3          	or	a5,a5,a2
   22398:	00e7e7b3          	or	a5,a5,a4
   2239c:	00078c63          	beqz	a5,223b4 <__subtf3+0x588>
   223a0:	02d12e23          	sw	a3,60(sp)
   223a4:	02012c23          	sw	zero,56(sp)
   223a8:	02012a23          	sw	zero,52(sp)
   223ac:	02012823          	sw	zero,48(sp)
   223b0:	00000913          	li	s2,0
   223b4:	03c12783          	lw	a5,60(sp)
   223b8:	01141413          	slli	s0,s0,0x11
   223bc:	01145413          	srli	s0,s0,0x11
   223c0:	00f11623          	sh	a5,12(sp)
   223c4:	01041793          	slli	a5,s0,0x10
   223c8:	00c12403          	lw	s0,12(sp)
   223cc:	80010737          	lui	a4,0x80010
   223d0:	fff70713          	addi	a4,a4,-1 # 8000ffff <__global_pointer$+0x7ffe9d8f>
   223d4:	00e47433          	and	s0,s0,a4
   223d8:	00f46433          	or	s0,s0,a5
   223dc:	03012783          	lw	a5,48(sp)
   223e0:	00141413          	slli	s0,s0,0x1
   223e4:	01f91913          	slli	s2,s2,0x1f
   223e8:	00f4a023          	sw	a5,0(s1)
   223ec:	03412783          	lw	a5,52(sp)
   223f0:	00145413          	srli	s0,s0,0x1
   223f4:	01246433          	or	s0,s0,s2
   223f8:	00f4a223          	sw	a5,4(s1)
   223fc:	03812783          	lw	a5,56(sp)
   22400:	0084a623          	sw	s0,12(s1)
   22404:	05c12083          	lw	ra,92(sp)
   22408:	05812403          	lw	s0,88(sp)
   2240c:	00f4a423          	sw	a5,8(s1)
   22410:	00048513          	mv	a0,s1
   22414:	05012903          	lw	s2,80(sp)
   22418:	05412483          	lw	s1,84(sp)
   2241c:	04c12983          	lw	s3,76(sp)
   22420:	04812a03          	lw	s4,72(sp)
   22424:	04412a83          	lw	s5,68(sp)
   22428:	06010113          	addi	sp,sp,96
   2242c:	00008067          	ret
   22430:	fff58693          	addi	a3,a1,-1
   22434:	04069e63          	bnez	a3,22490 <__subtf3+0x664>
   22438:	02412683          	lw	a3,36(sp)
   2243c:	00f70733          	add	a4,a4,a5
   22440:	00f737b3          	sltu	a5,a4,a5
   22444:	00d30633          	add	a2,t1,a3
   22448:	02e12823          	sw	a4,48(sp)
   2244c:	00f60733          	add	a4,a2,a5
   22450:	00f737b3          	sltu	a5,a4,a5
   22454:	02e12a23          	sw	a4,52(sp)
   22458:	02812703          	lw	a4,40(sp)
   2245c:	00d636b3          	sltu	a3,a2,a3
   22460:	00f6e7b3          	or	a5,a3,a5
   22464:	00e506b3          	add	a3,a0,a4
   22468:	00f68633          	add	a2,a3,a5
   2246c:	00f637b3          	sltu	a5,a2,a5
   22470:	00e6b733          	sltu	a4,a3,a4
   22474:	00f76733          	or	a4,a4,a5
   22478:	02c12783          	lw	a5,44(sp)
   2247c:	02c12c23          	sw	a2,56(sp)
   22480:	00fe0e33          	add	t3,t3,a5
   22484:	01c70733          	add	a4,a4,t3
   22488:	02e12e23          	sw	a4,60(sp)
   2248c:	b85ff06f          	j	22010 <__subtf3+0x1e4>
   22490:	00008737          	lui	a4,0x8
   22494:	fff70713          	addi	a4,a4,-1 # 7fff <main-0x8075>
   22498:	e0e586e3          	beq	a1,a4,222a4 <__subtf3+0x478>
   2249c:	07400793          	li	a5,116
   224a0:	06d7d263          	ble	a3,a5,22504 <__subtf3+0x6d8>
   224a4:	00012e23          	sw	zero,28(sp)
   224a8:	00012c23          	sw	zero,24(sp)
   224ac:	00012a23          	sw	zero,20(sp)
   224b0:	00100793          	li	a5,1
   224b4:	1840006f          	j	22638 <__subtf3+0x80c>
   224b8:	00008737          	lui	a4,0x8
   224bc:	fff70713          	addi	a4,a4,-1 # 7fff <main-0x8075>
   224c0:	02e61463          	bne	a2,a4,224e8 <__subtf3+0x6bc>
   224c4:	02f12823          	sw	a5,48(sp)
   224c8:	02412783          	lw	a5,36(sp)
   224cc:	00060413          	mv	s0,a2
   224d0:	02f12a23          	sw	a5,52(sp)
   224d4:	02812783          	lw	a5,40(sp)
   224d8:	02f12c23          	sw	a5,56(sp)
   224dc:	02c12783          	lw	a5,44(sp)
   224e0:	02f12e23          	sw	a5,60(sp)
   224e4:	de1ff06f          	j	222c4 <__subtf3+0x498>
   224e8:	01c12783          	lw	a5,28(sp)
   224ec:	00080737          	lui	a4,0x80
   224f0:	00e7e7b3          	or	a5,a5,a4
   224f4:	00f12e23          	sw	a5,28(sp)
   224f8:	07400793          	li	a5,116
   224fc:	fab7c4e3          	blt	a5,a1,224a4 <__subtf3+0x678>
   22500:	00058693          	mv	a3,a1
   22504:	41f6d793          	srai	a5,a3,0x1f
   22508:	80000737          	lui	a4,0x80000
   2250c:	01f7f793          	andi	a5,a5,31
   22510:	01f70713          	addi	a4,a4,31 # 8000001f <__global_pointer$+0x7ffd9daf>
   22514:	00d787b3          	add	a5,a5,a3
   22518:	00e6f6b3          	and	a3,a3,a4
   2251c:	4057d793          	srai	a5,a5,0x5
   22520:	0006d863          	bgez	a3,22530 <__subtf3+0x704>
   22524:	fff68693          	addi	a3,a3,-1
   22528:	fe06e693          	ori	a3,a3,-32
   2252c:	00168693          	addi	a3,a3,1
   22530:	00068713          	mv	a4,a3
   22534:	00000313          	li	t1,0
   22538:	00000593          	li	a1,0
   2253c:	04f5c063          	blt	a1,a5,2257c <__subtf3+0x750>
   22540:	00078513          	mv	a0,a5
   22544:	0007d463          	bgez	a5,2254c <__subtf3+0x720>
   22548:	00000513          	li	a0,0
   2254c:	00279593          	slli	a1,a5,0x2
   22550:	04069263          	bnez	a3,22594 <__subtf3+0x768>
   22554:	00300693          	li	a3,3
   22558:	40f687b3          	sub	a5,a3,a5
   2255c:	00b806b3          	add	a3,a6,a1
   22560:	0006a683          	lw	a3,0(a3)
   22564:	00170713          	addi	a4,a4,1
   22568:	00480813          	addi	a6,a6,4
   2256c:	fed82e23          	sw	a3,-4(a6)
   22570:	fee7d6e3          	ble	a4,a5,2255c <__subtf3+0x730>
   22574:	00300693          	li	a3,3
   22578:	0b00006f          	j	22628 <__subtf3+0x7fc>
   2257c:	00259513          	slli	a0,a1,0x2
   22580:	00a88533          	add	a0,a7,a0
   22584:	00052503          	lw	a0,0(a0)
   22588:	00158593          	addi	a1,a1,1
   2258c:	00a36333          	or	t1,t1,a0
   22590:	fadff06f          	j	2253c <__subtf3+0x710>
   22594:	04010713          	addi	a4,sp,64
   22598:	00251513          	slli	a0,a0,0x2
   2259c:	00a70533          	add	a0,a4,a0
   225a0:	fd052703          	lw	a4,-48(a0)
   225a4:	02000e13          	li	t3,32
   225a8:	40de0e33          	sub	t3,t3,a3
   225ac:	01c71733          	sll	a4,a4,t3
   225b0:	00e36333          	or	t1,t1,a4
   225b4:	00300713          	li	a4,3
   225b8:	00b885b3          	add	a1,a7,a1
   225bc:	00000813          	li	a6,0
   225c0:	40f70733          	sub	a4,a4,a5
   225c4:	00458593          	addi	a1,a1,4
   225c8:	02e84463          	blt	a6,a4,225f0 <__subtf3+0x7c4>
   225cc:	04010593          	addi	a1,sp,64
   225d0:	00271713          	slli	a4,a4,0x2
   225d4:	00e58733          	add	a4,a1,a4
   225d8:	01c12583          	lw	a1,28(sp)
   225dc:	00d5d6b3          	srl	a3,a1,a3
   225e0:	fcd72823          	sw	a3,-48(a4)
   225e4:	00400713          	li	a4,4
   225e8:	40f70733          	sub	a4,a4,a5
   225ec:	f89ff06f          	j	22574 <__subtf3+0x748>
   225f0:	ffc5a503          	lw	a0,-4(a1)
   225f4:	0005af03          	lw	t5,0(a1)
   225f8:	00281e93          	slli	t4,a6,0x2
   225fc:	00d55533          	srl	a0,a0,a3
   22600:	01cf1f33          	sll	t5,t5,t3
   22604:	01d88eb3          	add	t4,a7,t4
   22608:	01e56533          	or	a0,a0,t5
   2260c:	00aea023          	sw	a0,0(t4)
   22610:	00180813          	addi	a6,a6,1
   22614:	fb1ff06f          	j	225c4 <__subtf3+0x798>
   22618:	00271793          	slli	a5,a4,0x2
   2261c:	00f887b3          	add	a5,a7,a5
   22620:	0007a023          	sw	zero,0(a5)
   22624:	00170713          	addi	a4,a4,1
   22628:	fee6d8e3          	ble	a4,a3,22618 <__subtf3+0x7ec>
   2262c:	01012703          	lw	a4,16(sp)
   22630:	006037b3          	snez	a5,t1
   22634:	00f767b3          	or	a5,a4,a5
   22638:	00f12823          	sw	a5,16(sp)
   2263c:	02012683          	lw	a3,32(sp)
   22640:	01012783          	lw	a5,16(sp)
   22644:	02412703          	lw	a4,36(sp)
   22648:	01812503          	lw	a0,24(sp)
   2264c:	00f687b3          	add	a5,a3,a5
   22650:	00d7b6b3          	sltu	a3,a5,a3
   22654:	02f12823          	sw	a5,48(sp)
   22658:	01412783          	lw	a5,20(sp)
   2265c:	01c12803          	lw	a6,28(sp)
   22660:	00060413          	mv	s0,a2
   22664:	00f707b3          	add	a5,a4,a5
   22668:	00d785b3          	add	a1,a5,a3
   2266c:	00e7b733          	sltu	a4,a5,a4
   22670:	00d5b7b3          	sltu	a5,a1,a3
   22674:	00f767b3          	or	a5,a4,a5
   22678:	02812703          	lw	a4,40(sp)
   2267c:	02c12683          	lw	a3,44(sp)
   22680:	02b12a23          	sw	a1,52(sp)
   22684:	00a70533          	add	a0,a4,a0
   22688:	00f505b3          	add	a1,a0,a5
   2268c:	00e53733          	sltu	a4,a0,a4
   22690:	00f5b7b3          	sltu	a5,a1,a5
   22694:	010686b3          	add	a3,a3,a6
   22698:	00f76733          	or	a4,a4,a5
   2269c:	00e68733          	add	a4,a3,a4
   226a0:	02b12c23          	sw	a1,56(sp)
   226a4:	02e12e23          	sw	a4,60(sp)
   226a8:	b49ff06f          	j	221f0 <__subtf3+0x3c4>
   226ac:	00008fb7          	lui	t6,0x8
   226b0:	00140513          	addi	a0,s0,1
   226b4:	ffef8613          	addi	a2,t6,-2 # 7ffe <main-0x8076>
   226b8:	00c57633          	and	a2,a0,a2
   226bc:	02412683          	lw	a3,36(sp)
   226c0:	02812583          	lw	a1,40(sp)
   226c4:	02c12803          	lw	a6,44(sp)
   226c8:	01412f03          	lw	t5,20(sp)
   226cc:	01812e83          	lw	t4,24(sp)
   226d0:	01c12883          	lw	a7,28(sp)
   226d4:	03010313          	addi	t1,sp,48
   226d8:	03c10e13          	addi	t3,sp,60
   226dc:	14061663          	bnez	a2,22828 <__subtf3+0x9fc>
   226e0:	01df6533          	or	a0,t5,t4
   226e4:	01156533          	or	a0,a0,a7
   226e8:	00e56533          	or	a0,a0,a4
   226ec:	0a041663          	bnez	s0,22798 <__subtf3+0x96c>
   226f0:	00051c63          	bnez	a0,22708 <__subtf3+0x8dc>
   226f4:	02f12823          	sw	a5,48(sp)
   226f8:	02d12a23          	sw	a3,52(sp)
   226fc:	02b12c23          	sw	a1,56(sp)
   22700:	03012e23          	sw	a6,60(sp)
   22704:	bc1ff06f          	j	222c4 <__subtf3+0x498>
   22708:	00b6e633          	or	a2,a3,a1
   2270c:	01066633          	or	a2,a2,a6
   22710:	00f66633          	or	a2,a2,a5
   22714:	00061c63          	bnez	a2,2272c <__subtf3+0x900>
   22718:	02e12823          	sw	a4,48(sp)
   2271c:	03e12a23          	sw	t5,52(sp)
   22720:	03d12c23          	sw	t4,56(sp)
   22724:	03112e23          	sw	a7,60(sp)
   22728:	b9dff06f          	j	222c4 <__subtf3+0x498>
   2272c:	00f707b3          	add	a5,a4,a5
   22730:	00e7b733          	sltu	a4,a5,a4
   22734:	01e686b3          	add	a3,a3,t5
   22738:	02f12823          	sw	a5,48(sp)
   2273c:	00e687b3          	add	a5,a3,a4
   22740:	00e7b733          	sltu	a4,a5,a4
   22744:	01e6b6b3          	sltu	a3,a3,t5
   22748:	00e6e733          	or	a4,a3,a4
   2274c:	01d585b3          	add	a1,a1,t4
   22750:	02f12a23          	sw	a5,52(sp)
   22754:	00e587b3          	add	a5,a1,a4
   22758:	01d5b633          	sltu	a2,a1,t4
   2275c:	00e7b733          	sltu	a4,a5,a4
   22760:	00e66733          	or	a4,a2,a4
   22764:	01180633          	add	a2,a6,a7
   22768:	00c70633          	add	a2,a4,a2
   2276c:	02f12c23          	sw	a5,56(sp)
   22770:	00c61793          	slli	a5,a2,0xc
   22774:	0007c663          	bltz	a5,22780 <__subtf3+0x954>
   22778:	02c12e23          	sw	a2,60(sp)
   2277c:	b49ff06f          	j	222c4 <__subtf3+0x498>
   22780:	fff80737          	lui	a4,0xfff80
   22784:	fff70713          	addi	a4,a4,-1 # fff7ffff <__global_pointer$+0xfff59d8f>
   22788:	00e67633          	and	a2,a2,a4
   2278c:	02c12e23          	sw	a2,60(sp)
   22790:	00100413          	li	s0,1
   22794:	b31ff06f          	j	222c4 <__subtf3+0x498>
   22798:	00051e63          	bnez	a0,227b4 <__subtf3+0x988>
   2279c:	02f12823          	sw	a5,48(sp)
   227a0:	02d12a23          	sw	a3,52(sp)
   227a4:	02b12c23          	sw	a1,56(sp)
   227a8:	03012e23          	sw	a6,60(sp)
   227ac:	ffff8413          	addi	s0,t6,-1
   227b0:	b15ff06f          	j	222c4 <__subtf3+0x498>
   227b4:	00b6e633          	or	a2,a3,a1
   227b8:	01066633          	or	a2,a2,a6
   227bc:	00f667b3          	or	a5,a2,a5
   227c0:	00079c63          	bnez	a5,227d8 <__subtf3+0x9ac>
   227c4:	02e12823          	sw	a4,48(sp)
   227c8:	03e12a23          	sw	t5,52(sp)
   227cc:	03d12c23          	sw	t4,56(sp)
   227d0:	03112e23          	sw	a7,60(sp)
   227d4:	fd9ff06f          	j	227ac <__subtf3+0x980>
   227d8:	03f12e23          	sw	t6,60(sp)
   227dc:	02012c23          	sw	zero,56(sp)
   227e0:	02012a23          	sw	zero,52(sp)
   227e4:	02012823          	sw	zero,48(sp)
   227e8:	000e0713          	mv	a4,t3
   227ec:	00072783          	lw	a5,0(a4)
   227f0:	ffc72683          	lw	a3,-4(a4)
   227f4:	ffc70713          	addi	a4,a4,-4
   227f8:	00379793          	slli	a5,a5,0x3
   227fc:	01d6d693          	srli	a3,a3,0x1d
   22800:	00d7e7b3          	or	a5,a5,a3
   22804:	00f72223          	sw	a5,4(a4)
   22808:	fee312e3          	bne	t1,a4,227ec <__subtf3+0x9c0>
   2280c:	03012783          	lw	a5,48(sp)
   22810:	00008437          	lui	s0,0x8
   22814:	00000913          	li	s2,0
   22818:	00379793          	slli	a5,a5,0x3
   2281c:	02f12823          	sw	a5,48(sp)
   22820:	fff40413          	addi	s0,s0,-1 # 7fff <main-0x8075>
   22824:	aa1ff06f          	j	222c4 <__subtf3+0x498>
   22828:	00f707b3          	add	a5,a4,a5
   2282c:	00e7b733          	sltu	a4,a5,a4
   22830:	01e686b3          	add	a3,a3,t5
   22834:	02f12823          	sw	a5,48(sp)
   22838:	00e687b3          	add	a5,a3,a4
   2283c:	00e7b733          	sltu	a4,a5,a4
   22840:	01e6b6b3          	sltu	a3,a3,t5
   22844:	00e6e733          	or	a4,a3,a4
   22848:	01d58633          	add	a2,a1,t4
   2284c:	00e606b3          	add	a3,a2,a4
   22850:	00e6b733          	sltu	a4,a3,a4
   22854:	01d63633          	sltu	a2,a2,t4
   22858:	00e66633          	or	a2,a2,a4
   2285c:	01180733          	add	a4,a6,a7
   22860:	00e60633          	add	a2,a2,a4
   22864:	02f12a23          	sw	a5,52(sp)
   22868:	02d12c23          	sw	a3,56(sp)
   2286c:	02c12e23          	sw	a2,60(sp)
   22870:	00030793          	mv	a5,t1
   22874:	0007a703          	lw	a4,0(a5)
   22878:	0047a683          	lw	a3,4(a5)
   2287c:	00478793          	addi	a5,a5,4
   22880:	00175713          	srli	a4,a4,0x1
   22884:	01f69693          	slli	a3,a3,0x1f
   22888:	00d76733          	or	a4,a4,a3
   2288c:	fee7ae23          	sw	a4,-4(a5)
   22890:	fefe12e3          	bne	t3,a5,22874 <__subtf3+0xa48>
   22894:	000087b7          	lui	a5,0x8
   22898:	fff78793          	addi	a5,a5,-1 # 7fff <main-0x8075>
   2289c:	00f50c63          	beq	a0,a5,228b4 <__subtf3+0xa88>
   228a0:	03c12783          	lw	a5,60(sp)
   228a4:	0017d793          	srli	a5,a5,0x1
   228a8:	02f12e23          	sw	a5,60(sp)
   228ac:	00050413          	mv	s0,a0
   228b0:	a15ff06f          	j	222c4 <__subtf3+0x498>
   228b4:	02012e23          	sw	zero,60(sp)
   228b8:	02012c23          	sw	zero,56(sp)
   228bc:	02012a23          	sw	zero,52(sp)
   228c0:	02012823          	sw	zero,48(sp)
   228c4:	fe9ff06f          	j	228ac <__subtf3+0xa80>
   228c8:	28b05063          	blez	a1,22b48 <__subtf3+0xd1c>
   228cc:	0c061063          	bnez	a2,2298c <__subtf3+0xb60>
   228d0:	02412503          	lw	a0,36(sp)
   228d4:	02812683          	lw	a3,40(sp)
   228d8:	02c12e83          	lw	t4,44(sp)
   228dc:	00d56633          	or	a2,a0,a3
   228e0:	01d66633          	or	a2,a2,t4
   228e4:	00f66633          	or	a2,a2,a5
   228e8:	ea060863          	beqz	a2,21f98 <__subtf3+0x16c>
   228ec:	fff58813          	addi	a6,a1,-1
   228f0:	06081a63          	bnez	a6,22964 <__subtf3+0xb38>
   228f4:	01412883          	lw	a7,20(sp)
   228f8:	40f707b3          	sub	a5,a4,a5
   228fc:	00f73633          	sltu	a2,a4,a5
   22900:	40a885b3          	sub	a1,a7,a0
   22904:	00b8b333          	sltu	t1,a7,a1
   22908:	40c585b3          	sub	a1,a1,a2
   2290c:	02f12823          	sw	a5,48(sp)
   22910:	02b12a23          	sw	a1,52(sp)
   22914:	00000613          	li	a2,0
   22918:	00f77663          	bleu	a5,a4,22924 <__subtf3+0xaf8>
   2291c:	41150633          	sub	a2,a0,a7
   22920:	00163613          	seqz	a2,a2
   22924:	01812503          	lw	a0,24(sp)
   22928:	00666633          	or	a2,a2,t1
   2292c:	40d505b3          	sub	a1,a0,a3
   22930:	00b537b3          	sltu	a5,a0,a1
   22934:	40c585b3          	sub	a1,a1,a2
   22938:	02b12c23          	sw	a1,56(sp)
   2293c:	00060663          	beqz	a2,22948 <__subtf3+0xb1c>
   22940:	40a686b3          	sub	a3,a3,a0
   22944:	0016b813          	seqz	a6,a3
   22948:	01c12703          	lw	a4,28(sp)
   2294c:	00f867b3          	or	a5,a6,a5
   22950:	41d70733          	sub	a4,a4,t4
   22954:	40f707b3          	sub	a5,a4,a5
   22958:	02f12e23          	sw	a5,60(sp)
   2295c:	00100413          	li	s0,1
   22960:	1c80006f          	j	22b28 <__subtf3+0xcfc>
   22964:	000087b7          	lui	a5,0x8
   22968:	fff78793          	addi	a5,a5,-1 # 7fff <main-0x8075>
   2296c:	e2f58663          	beq	a1,a5,21f98 <__subtf3+0x16c>
   22970:	07400793          	li	a5,116
   22974:	0507d063          	ble	a6,a5,229b4 <__subtf3+0xb88>
   22978:	02012623          	sw	zero,44(sp)
   2297c:	02012423          	sw	zero,40(sp)
   22980:	02012223          	sw	zero,36(sp)
   22984:	00100793          	li	a5,1
   22988:	1240006f          	j	22aac <__subtf3+0xc80>
   2298c:	000087b7          	lui	a5,0x8
   22990:	fff78793          	addi	a5,a5,-1 # 7fff <main-0x8075>
   22994:	eaf40e63          	beq	s0,a5,22050 <__subtf3+0x224>
   22998:	02c12783          	lw	a5,44(sp)
   2299c:	00080737          	lui	a4,0x80
   229a0:	00e7e7b3          	or	a5,a5,a4
   229a4:	02f12623          	sw	a5,44(sp)
   229a8:	07400793          	li	a5,116
   229ac:	fcb7c6e3          	blt	a5,a1,22978 <__subtf3+0xb4c>
   229b0:	00058813          	mv	a6,a1
   229b4:	40585893          	srai	a7,a6,0x5
   229b8:	01f87793          	andi	a5,a6,31
   229bc:	00000593          	li	a1,0
   229c0:	00000713          	li	a4,0
   229c4:	00271693          	slli	a3,a4,0x2
   229c8:	03171863          	bne	a4,a7,229f8 <__subtf3+0xbcc>
   229cc:	04079063          	bnez	a5,22a0c <__subtf3+0xbe0>
   229d0:	00300613          	li	a2,3
   229d4:	40e60733          	sub	a4,a2,a4
   229d8:	00de0633          	add	a2,t3,a3
   229dc:	00062603          	lw	a2,0(a2)
   229e0:	00178793          	addi	a5,a5,1
   229e4:	004e0e13          	addi	t3,t3,4
   229e8:	fece2e23          	sw	a2,-4(t3)
   229ec:	fef756e3          	ble	a5,a4,229d8 <__subtf3+0xbac>
   229f0:	00400693          	li	a3,4
   229f4:	0a80006f          	j	22a9c <__subtf3+0xc70>
   229f8:	00d306b3          	add	a3,t1,a3
   229fc:	0006a683          	lw	a3,0(a3)
   22a00:	00170713          	addi	a4,a4,1 # 80001 <__global_pointer$+0x59d91>
   22a04:	00d5e5b3          	or	a1,a1,a3
   22a08:	fbdff06f          	j	229c4 <__subtf3+0xb98>
   22a0c:	04010713          	addi	a4,sp,64
   22a10:	00d70733          	add	a4,a4,a3
   22a14:	fe072703          	lw	a4,-32(a4)
   22a18:	02000813          	li	a6,32
   22a1c:	40f80833          	sub	a6,a6,a5
   22a20:	01071733          	sll	a4,a4,a6
   22a24:	00e5e5b3          	or	a1,a1,a4
   22a28:	00300713          	li	a4,3
   22a2c:	00d306b3          	add	a3,t1,a3
   22a30:	00000513          	li	a0,0
   22a34:	41170733          	sub	a4,a4,a7
   22a38:	00468693          	addi	a3,a3,4
   22a3c:	02e54463          	blt	a0,a4,22a64 <__subtf3+0xc38>
   22a40:	04010693          	addi	a3,sp,64
   22a44:	00271713          	slli	a4,a4,0x2
   22a48:	00e68733          	add	a4,a3,a4
   22a4c:	02c12683          	lw	a3,44(sp)
   22a50:	00f6d7b3          	srl	a5,a3,a5
   22a54:	fef72023          	sw	a5,-32(a4)
   22a58:	00400793          	li	a5,4
   22a5c:	411787b3          	sub	a5,a5,a7
   22a60:	f91ff06f          	j	229f0 <__subtf3+0xbc4>
   22a64:	ffc6a603          	lw	a2,-4(a3)
   22a68:	0006ae83          	lw	t4,0(a3)
   22a6c:	00251e13          	slli	t3,a0,0x2
   22a70:	00f65633          	srl	a2,a2,a5
   22a74:	010e9eb3          	sll	t4,t4,a6
   22a78:	01c30e33          	add	t3,t1,t3
   22a7c:	01d66633          	or	a2,a2,t4
   22a80:	00ce2023          	sw	a2,0(t3)
   22a84:	00150513          	addi	a0,a0,1
   22a88:	fb1ff06f          	j	22a38 <__subtf3+0xc0c>
   22a8c:	00279713          	slli	a4,a5,0x2
   22a90:	00e30733          	add	a4,t1,a4
   22a94:	00072023          	sw	zero,0(a4)
   22a98:	00178793          	addi	a5,a5,1
   22a9c:	fed798e3          	bne	a5,a3,22a8c <__subtf3+0xc60>
   22aa0:	02012703          	lw	a4,32(sp)
   22aa4:	00b037b3          	snez	a5,a1
   22aa8:	00f767b3          	or	a5,a4,a5
   22aac:	02f12023          	sw	a5,32(sp)
   22ab0:	01412683          	lw	a3,20(sp)
   22ab4:	01012583          	lw	a1,16(sp)
   22ab8:	02012703          	lw	a4,32(sp)
   22abc:	02412783          	lw	a5,36(sp)
   22ac0:	40e58733          	sub	a4,a1,a4
   22ac4:	40f687b3          	sub	a5,a3,a5
   22ac8:	00f6b633          	sltu	a2,a3,a5
   22acc:	00e5b6b3          	sltu	a3,a1,a4
   22ad0:	40d786b3          	sub	a3,a5,a3
   22ad4:	02d12a23          	sw	a3,52(sp)
   22ad8:	02e12823          	sw	a4,48(sp)
   22adc:	00000693          	li	a3,0
   22ae0:	00e5f463          	bleu	a4,a1,22ae8 <__subtf3+0xcbc>
   22ae4:	0017b693          	seqz	a3,a5
   22ae8:	00c6e6b3          	or	a3,a3,a2
   22aec:	02812703          	lw	a4,40(sp)
   22af0:	01812603          	lw	a2,24(sp)
   22af4:	40e60733          	sub	a4,a2,a4
   22af8:	40d707b3          	sub	a5,a4,a3
   22afc:	02f12c23          	sw	a5,56(sp)
   22b00:	00e635b3          	sltu	a1,a2,a4
   22b04:	00000613          	li	a2,0
   22b08:	00068463          	beqz	a3,22b10 <__subtf3+0xce4>
   22b0c:	00173613          	seqz	a2,a4
   22b10:	01c12783          	lw	a5,28(sp)
   22b14:	02c12703          	lw	a4,44(sp)
   22b18:	00b66633          	or	a2,a2,a1
   22b1c:	40e787b3          	sub	a5,a5,a4
   22b20:	40c787b3          	sub	a5,a5,a2
   22b24:	02f12e23          	sw	a5,60(sp)
   22b28:	03c12783          	lw	a5,60(sp)
   22b2c:	00c79713          	slli	a4,a5,0xc
   22b30:	f8075a63          	bgez	a4,222c4 <__subtf3+0x498>
   22b34:	00080737          	lui	a4,0x80
   22b38:	fff70713          	addi	a4,a4,-1 # 7ffff <__global_pointer$+0x59d8f>
   22b3c:	00e7f7b3          	and	a5,a5,a4
   22b40:	02f12e23          	sw	a5,60(sp)
   22b44:	5bc0006f          	j	23100 <__subtf3+0x12d4>
   22b48:	2e058e63          	beqz	a1,22e44 <__subtf3+0x1018>
   22b4c:	40860eb3          	sub	t4,a2,s0
   22b50:	0e041463          	bnez	s0,22c38 <__subtf3+0xe0c>
   22b54:	01412303          	lw	t1,20(sp)
   22b58:	01812583          	lw	a1,24(sp)
   22b5c:	01c12f03          	lw	t5,28(sp)
   22b60:	00b36e33          	or	t3,t1,a1
   22b64:	01ee6e33          	or	t3,t3,t5
   22b68:	00ee6e33          	or	t3,t3,a4
   22b6c:	020e1663          	bnez	t3,22b98 <__subtf3+0xd6c>
   22b70:	02f12823          	sw	a5,48(sp)
   22b74:	02412783          	lw	a5,36(sp)
   22b78:	000e8413          	mv	s0,t4
   22b7c:	02f12a23          	sw	a5,52(sp)
   22b80:	02812783          	lw	a5,40(sp)
   22b84:	02f12c23          	sw	a5,56(sp)
   22b88:	02c12783          	lw	a5,44(sp)
   22b8c:	02f12e23          	sw	a5,60(sp)
   22b90:	00050913          	mv	s2,a0
   22b94:	f30ff06f          	j	222c4 <__subtf3+0x498>
   22b98:	fffe8693          	addi	a3,t4,-1
   22b9c:	06069a63          	bnez	a3,22c10 <__subtf3+0xde4>
   22ba0:	02412883          	lw	a7,36(sp)
   22ba4:	40e78733          	sub	a4,a5,a4
   22ba8:	00e7b633          	sltu	a2,a5,a4
   22bac:	40688833          	sub	a6,a7,t1
   22bb0:	0108be33          	sltu	t3,a7,a6
   22bb4:	40c80833          	sub	a6,a6,a2
   22bb8:	02e12823          	sw	a4,48(sp)
   22bbc:	03012a23          	sw	a6,52(sp)
   22bc0:	00000613          	li	a2,0
   22bc4:	00e7f663          	bleu	a4,a5,22bd0 <__subtf3+0xda4>
   22bc8:	41130633          	sub	a2,t1,a7
   22bcc:	00163613          	seqz	a2,a2
   22bd0:	02812883          	lw	a7,40(sp)
   22bd4:	01c66733          	or	a4,a2,t3
   22bd8:	40b88633          	sub	a2,a7,a1
   22bdc:	00c8b833          	sltu	a6,a7,a2
   22be0:	40e60633          	sub	a2,a2,a4
   22be4:	02c12c23          	sw	a2,56(sp)
   22be8:	00070663          	beqz	a4,22bf4 <__subtf3+0xdc8>
   22bec:	411585b3          	sub	a1,a1,a7
   22bf0:	0015b693          	seqz	a3,a1
   22bf4:	02c12783          	lw	a5,44(sp)
   22bf8:	0106e6b3          	or	a3,a3,a6
   22bfc:	00050913          	mv	s2,a0
   22c00:	41e787b3          	sub	a5,a5,t5
   22c04:	40d786b3          	sub	a3,a5,a3
   22c08:	02d12e23          	sw	a3,60(sp)
   22c0c:	d51ff06f          	j	2295c <__subtf3+0xb30>
   22c10:	00008737          	lui	a4,0x8
   22c14:	fff70713          	addi	a4,a4,-1 # 7fff <main-0x8075>
   22c18:	f4ee8ce3          	beq	t4,a4,22b70 <__subtf3+0xd44>
   22c1c:	07400793          	li	a5,116
   22c20:	0cd7dc63          	ble	a3,a5,22cf8 <__subtf3+0xecc>
   22c24:	00012e23          	sw	zero,28(sp)
   22c28:	00012c23          	sw	zero,24(sp)
   22c2c:	00012a23          	sw	zero,20(sp)
   22c30:	00100793          	li	a5,1
   22c34:	1880006f          	j	22dbc <__subtf3+0xf90>
   22c38:	00008737          	lui	a4,0x8
   22c3c:	fff70713          	addi	a4,a4,-1 # 7fff <main-0x8075>
   22c40:	02e61463          	bne	a2,a4,22c68 <__subtf3+0xe3c>
   22c44:	02f12823          	sw	a5,48(sp)
   22c48:	02412783          	lw	a5,36(sp)
   22c4c:	00060413          	mv	s0,a2
   22c50:	02f12a23          	sw	a5,52(sp)
   22c54:	02812783          	lw	a5,40(sp)
   22c58:	02f12c23          	sw	a5,56(sp)
   22c5c:	02c12783          	lw	a5,44(sp)
   22c60:	02f12e23          	sw	a5,60(sp)
   22c64:	f2dff06f          	j	22b90 <__subtf3+0xd64>
   22c68:	01c12783          	lw	a5,28(sp)
   22c6c:	00080737          	lui	a4,0x80
   22c70:	00e7e7b3          	or	a5,a5,a4
   22c74:	00f12e23          	sw	a5,28(sp)
   22c78:	07400793          	li	a5,116
   22c7c:	fbd7c4e3          	blt	a5,t4,22c24 <__subtf3+0xdf8>
   22c80:	41fed793          	srai	a5,t4,0x1f
   22c84:	800005b7          	lui	a1,0x80000
   22c88:	01f7f793          	andi	a5,a5,31
   22c8c:	01f58593          	addi	a1,a1,31 # 8000001f <__global_pointer$+0x7ffd9daf>
   22c90:	01d787b3          	add	a5,a5,t4
   22c94:	00bef5b3          	and	a1,t4,a1
   22c98:	4057d313          	srai	t1,a5,0x5
   22c9c:	0005d863          	bgez	a1,22cac <__subtf3+0xe80>
   22ca0:	fff58593          	addi	a1,a1,-1
   22ca4:	fe05e593          	ori	a1,a1,-32
   22ca8:	00158593          	addi	a1,a1,1
   22cac:	00058793          	mv	a5,a1
   22cb0:	00000e13          	li	t3,0
   22cb4:	00000713          	li	a4,0
   22cb8:	04674463          	blt	a4,t1,22d00 <__subtf3+0xed4>
   22cbc:	00030693          	mv	a3,t1
   22cc0:	00035463          	bgez	t1,22cc8 <__subtf3+0xe9c>
   22cc4:	00000693          	li	a3,0
   22cc8:	00231713          	slli	a4,t1,0x2
   22ccc:	04059663          	bnez	a1,22d18 <__subtf3+0xeec>
   22cd0:	00300693          	li	a3,3
   22cd4:	40668333          	sub	t1,a3,t1
   22cd8:	00e806b3          	add	a3,a6,a4
   22cdc:	0006a683          	lw	a3,0(a3)
   22ce0:	00178793          	addi	a5,a5,1
   22ce4:	00480813          	addi	a6,a6,4
   22ce8:	fed82e23          	sw	a3,-4(a6)
   22cec:	fef356e3          	ble	a5,t1,22cd8 <__subtf3+0xeac>
   22cf0:	00300693          	li	a3,3
   22cf4:	0b80006f          	j	22dac <__subtf3+0xf80>
   22cf8:	00068e93          	mv	t4,a3
   22cfc:	f85ff06f          	j	22c80 <__subtf3+0xe54>
   22d00:	00271693          	slli	a3,a4,0x2
   22d04:	00d886b3          	add	a3,a7,a3
   22d08:	0006a683          	lw	a3,0(a3)
   22d0c:	00170713          	addi	a4,a4,1 # 80001 <__global_pointer$+0x59d91>
   22d10:	00de6e33          	or	t3,t3,a3
   22d14:	fa5ff06f          	j	22cb8 <__subtf3+0xe8c>
   22d18:	04010793          	addi	a5,sp,64
   22d1c:	00269693          	slli	a3,a3,0x2
   22d20:	00d786b3          	add	a3,a5,a3
   22d24:	fd06a783          	lw	a5,-48(a3)
   22d28:	02000e93          	li	t4,32
   22d2c:	40be8eb3          	sub	t4,t4,a1
   22d30:	01d797b3          	sll	a5,a5,t4
   22d34:	00fe6e33          	or	t3,t3,a5
   22d38:	00300793          	li	a5,3
   22d3c:	00e88733          	add	a4,a7,a4
   22d40:	00000813          	li	a6,0
   22d44:	406787b3          	sub	a5,a5,t1
   22d48:	00470713          	addi	a4,a4,4
   22d4c:	02f84463          	blt	a6,a5,22d74 <__subtf3+0xf48>
   22d50:	04010713          	addi	a4,sp,64
   22d54:	00279793          	slli	a5,a5,0x2
   22d58:	00f707b3          	add	a5,a4,a5
   22d5c:	01c12703          	lw	a4,28(sp)
   22d60:	00b755b3          	srl	a1,a4,a1
   22d64:	fcb7a823          	sw	a1,-48(a5)
   22d68:	00400793          	li	a5,4
   22d6c:	406787b3          	sub	a5,a5,t1
   22d70:	f81ff06f          	j	22cf0 <__subtf3+0xec4>
   22d74:	ffc72683          	lw	a3,-4(a4)
   22d78:	00072f83          	lw	t6,0(a4)
   22d7c:	00281f13          	slli	t5,a6,0x2
   22d80:	00b6d6b3          	srl	a3,a3,a1
   22d84:	01df9fb3          	sll	t6,t6,t4
   22d88:	01e88f33          	add	t5,a7,t5
   22d8c:	01f6e6b3          	or	a3,a3,t6
   22d90:	00df2023          	sw	a3,0(t5)
   22d94:	00180813          	addi	a6,a6,1
   22d98:	fb1ff06f          	j	22d48 <__subtf3+0xf1c>
   22d9c:	00279713          	slli	a4,a5,0x2
   22da0:	00e88733          	add	a4,a7,a4
   22da4:	00072023          	sw	zero,0(a4)
   22da8:	00178793          	addi	a5,a5,1
   22dac:	fef6d8e3          	ble	a5,a3,22d9c <__subtf3+0xf70>
   22db0:	01012703          	lw	a4,16(sp)
   22db4:	01c037b3          	snez	a5,t3
   22db8:	00f767b3          	or	a5,a4,a5
   22dbc:	00f12823          	sw	a5,16(sp)
   22dc0:	02412683          	lw	a3,36(sp)
   22dc4:	02012803          	lw	a6,32(sp)
   22dc8:	01012703          	lw	a4,16(sp)
   22dcc:	01412783          	lw	a5,20(sp)
   22dd0:	40e80733          	sub	a4,a6,a4
   22dd4:	40f687b3          	sub	a5,a3,a5
   22dd8:	00f6b5b3          	sltu	a1,a3,a5
   22ddc:	00e836b3          	sltu	a3,a6,a4
   22de0:	40d786b3          	sub	a3,a5,a3
   22de4:	02d12a23          	sw	a3,52(sp)
   22de8:	02e12823          	sw	a4,48(sp)
   22dec:	00000693          	li	a3,0
   22df0:	00e87463          	bleu	a4,a6,22df8 <__subtf3+0xfcc>
   22df4:	0017b693          	seqz	a3,a5
   22df8:	00b6e6b3          	or	a3,a3,a1
   22dfc:	01812703          	lw	a4,24(sp)
   22e00:	02812583          	lw	a1,40(sp)
   22e04:	40e58733          	sub	a4,a1,a4
   22e08:	40d707b3          	sub	a5,a4,a3
   22e0c:	02f12c23          	sw	a5,56(sp)
   22e10:	00e5b833          	sltu	a6,a1,a4
   22e14:	00000593          	li	a1,0
   22e18:	00068463          	beqz	a3,22e20 <__subtf3+0xff4>
   22e1c:	00173593          	seqz	a1,a4
   22e20:	02c12783          	lw	a5,44(sp)
   22e24:	01c12703          	lw	a4,28(sp)
   22e28:	0105e5b3          	or	a1,a1,a6
   22e2c:	00060413          	mv	s0,a2
   22e30:	40e787b3          	sub	a5,a5,a4
   22e34:	40b787b3          	sub	a5,a5,a1
   22e38:	02f12e23          	sw	a5,60(sp)
   22e3c:	00050913          	mv	s2,a0
   22e40:	ce9ff06f          	j	22b28 <__subtf3+0xcfc>
   22e44:	00008fb7          	lui	t6,0x8
   22e48:	ffef8693          	addi	a3,t6,-2 # 7ffe <main-0x8076>
   22e4c:	00140e93          	addi	t4,s0,1
   22e50:	00defeb3          	and	t4,t4,a3
   22e54:	02412603          	lw	a2,36(sp)
   22e58:	01412683          	lw	a3,20(sp)
   22e5c:	01812803          	lw	a6,24(sp)
   22e60:	01c12e03          	lw	t3,28(sp)
   22e64:	02812883          	lw	a7,40(sp)
   22e68:	02c12303          	lw	t1,44(sp)
   22e6c:	1c0e9c63          	bnez	t4,23044 <__subtf3+0x1218>
   22e70:	01166eb3          	or	t4,a2,a7
   22e74:	0106ef33          	or	t5,a3,a6
   22e78:	006eeeb3          	or	t4,t4,t1
   22e7c:	01cf6f33          	or	t5,t5,t3
   22e80:	00feeeb3          	or	t4,t4,a5
   22e84:	00ef6f33          	or	t5,t5,a4
   22e88:	10041863          	bnez	s0,22f98 <__subtf3+0x116c>
   22e8c:	020f1463          	bnez	t5,22eb4 <__subtf3+0x1088>
   22e90:	02f12823          	sw	a5,48(sp)
   22e94:	02c12a23          	sw	a2,52(sp)
   22e98:	03112c23          	sw	a7,56(sp)
   22e9c:	02612e23          	sw	t1,60(sp)
   22ea0:	00050913          	mv	s2,a0
   22ea4:	c20e9063          	bnez	t4,222c4 <__subtf3+0x498>
   22ea8:	00000413          	li	s0,0
   22eac:	00000913          	li	s2,0
   22eb0:	c14ff06f          	j	222c4 <__subtf3+0x498>
   22eb4:	000e9c63          	bnez	t4,22ecc <__subtf3+0x10a0>
   22eb8:	02e12823          	sw	a4,48(sp)
   22ebc:	02d12a23          	sw	a3,52(sp)
   22ec0:	03012c23          	sw	a6,56(sp)
   22ec4:	03c12e23          	sw	t3,60(sp)
   22ec8:	bfcff06f          	j	222c4 <__subtf3+0x498>
   22ecc:	40f70eb3          	sub	t4,a4,a5
   22ed0:	40c682b3          	sub	t0,a3,a2
   22ed4:	01d73fb3          	sltu	t6,a4,t4
   22ed8:	0056bf33          	sltu	t5,a3,t0
   22edc:	41f282b3          	sub	t0,t0,t6
   22ee0:	03d12823          	sw	t4,48(sp)
   22ee4:	02512a23          	sw	t0,52(sp)
   22ee8:	00000f93          	li	t6,0
   22eec:	01d77663          	bleu	t4,a4,22ef8 <__subtf3+0x10cc>
   22ef0:	40d60fb3          	sub	t6,a2,a3
   22ef4:	001fbf93          	seqz	t6,t6
   22ef8:	411803b3          	sub	t2,a6,a7
   22efc:	01efefb3          	or	t6,t6,t5
   22f00:	41f38a33          	sub	s4,t2,t6
   22f04:	03412c23          	sw	s4,56(sp)
   22f08:	00783ab3          	sltu	s5,a6,t2
   22f0c:	00000993          	li	s3,0
   22f10:	000f8463          	beqz	t6,22f18 <__subtf3+0x10ec>
   22f14:	0013b993          	seqz	s3,t2
   22f18:	406e0f33          	sub	t5,t3,t1
   22f1c:	0159e9b3          	or	s3,s3,s5
   22f20:	413f0f33          	sub	t5,t5,s3
   22f24:	03e12e23          	sw	t5,60(sp)
   22f28:	00cf1f93          	slli	t6,t5,0xc
   22f2c:	040fde63          	bgez	t6,22f88 <__subtf3+0x115c>
   22f30:	40e78733          	sub	a4,a5,a4
   22f34:	40d606b3          	sub	a3,a2,a3
   22f38:	00e7beb3          	sltu	t4,a5,a4
   22f3c:	41d68eb3          	sub	t4,a3,t4
   22f40:	03d12a23          	sw	t4,52(sp)
   22f44:	02e12823          	sw	a4,48(sp)
   22f48:	00d63633          	sltu	a2,a2,a3
   22f4c:	00000e93          	li	t4,0
   22f50:	00e7f463          	bleu	a4,a5,22f58 <__subtf3+0x112c>
   22f54:	0016be93          	seqz	t4,a3
   22f58:	41088733          	sub	a4,a7,a6
   22f5c:	00cee633          	or	a2,t4,a2
   22f60:	00e8b7b3          	sltu	a5,a7,a4
   22f64:	40c70733          	sub	a4,a4,a2
   22f68:	02e12c23          	sw	a4,56(sp)
   22f6c:	00060463          	beqz	a2,22f74 <__subtf3+0x1148>
   22f70:	0013b593          	seqz	a1,t2
   22f74:	41c30733          	sub	a4,t1,t3
   22f78:	00f5e7b3          	or	a5,a1,a5
   22f7c:	40f707b3          	sub	a5,a4,a5
   22f80:	02f12e23          	sw	a5,60(sp)
   22f84:	c0dff06f          	j	22b90 <__subtf3+0xd64>
   22f88:	005eeeb3          	or	t4,t4,t0
   22f8c:	014eeeb3          	or	t4,t4,s4
   22f90:	01eeeeb3          	or	t4,t4,t5
   22f94:	f11ff06f          	j	22ea4 <__subtf3+0x1078>
   22f98:	03010593          	addi	a1,sp,48
   22f9c:	040f1c63          	bnez	t5,22ff4 <__subtf3+0x11c8>
   22fa0:	020e9e63          	bnez	t4,22fdc <__subtf3+0x11b0>
   22fa4:	03f12e23          	sw	t6,60(sp)
   22fa8:	02012c23          	sw	zero,56(sp)
   22fac:	02012a23          	sw	zero,52(sp)
   22fb0:	02012823          	sw	zero,48(sp)
   22fb4:	03c10793          	addi	a5,sp,60
   22fb8:	0007a703          	lw	a4,0(a5)
   22fbc:	ffc7a683          	lw	a3,-4(a5)
   22fc0:	ffc78793          	addi	a5,a5,-4
   22fc4:	00371713          	slli	a4,a4,0x3
   22fc8:	01d6d693          	srli	a3,a3,0x1d
   22fcc:	00d76733          	or	a4,a4,a3
   22fd0:	00e7a223          	sw	a4,4(a5)
   22fd4:	fef592e3          	bne	a1,a5,22fb8 <__subtf3+0x118c>
   22fd8:	835ff06f          	j	2280c <__subtf3+0x9e0>
   22fdc:	02f12823          	sw	a5,48(sp)
   22fe0:	02c12a23          	sw	a2,52(sp)
   22fe4:	03112c23          	sw	a7,56(sp)
   22fe8:	02612e23          	sw	t1,60(sp)
   22fec:	00050913          	mv	s2,a0
   22ff0:	fbcff06f          	j	227ac <__subtf3+0x980>
   22ff4:	000e9c63          	bnez	t4,2300c <__subtf3+0x11e0>
   22ff8:	02e12823          	sw	a4,48(sp)
   22ffc:	02d12a23          	sw	a3,52(sp)
   23000:	03012c23          	sw	a6,56(sp)
   23004:	03c12e23          	sw	t3,60(sp)
   23008:	fa4ff06f          	j	227ac <__subtf3+0x980>
   2300c:	03f12e23          	sw	t6,60(sp)
   23010:	02012c23          	sw	zero,56(sp)
   23014:	02012a23          	sw	zero,52(sp)
   23018:	02012823          	sw	zero,48(sp)
   2301c:	03c10793          	addi	a5,sp,60
   23020:	0007a703          	lw	a4,0(a5)
   23024:	ffc7a683          	lw	a3,-4(a5)
   23028:	ffc78793          	addi	a5,a5,-4
   2302c:	00371713          	slli	a4,a4,0x3
   23030:	01d6d693          	srli	a3,a3,0x1d
   23034:	00d76733          	or	a4,a4,a3
   23038:	00e7a223          	sw	a4,4(a5)
   2303c:	fef592e3          	bne	a1,a5,23020 <__subtf3+0x11f4>
   23040:	fccff06f          	j	2280c <__subtf3+0x9e0>
   23044:	40f70eb3          	sub	t4,a4,a5
   23048:	40c682b3          	sub	t0,a3,a2
   2304c:	01d73fb3          	sltu	t6,a4,t4
   23050:	0056bf33          	sltu	t5,a3,t0
   23054:	41f282b3          	sub	t0,t0,t6
   23058:	03d12823          	sw	t4,48(sp)
   2305c:	02512a23          	sw	t0,52(sp)
   23060:	00000f93          	li	t6,0
   23064:	01d77663          	bleu	t4,a4,23070 <__subtf3+0x1244>
   23068:	40d60fb3          	sub	t6,a2,a3
   2306c:	001fbf93          	seqz	t6,t6
   23070:	411803b3          	sub	t2,a6,a7
   23074:	01efefb3          	or	t6,t6,t5
   23078:	41f38a33          	sub	s4,t2,t6
   2307c:	03412c23          	sw	s4,56(sp)
   23080:	00783ab3          	sltu	s5,a6,t2
   23084:	00000993          	li	s3,0
   23088:	000f8463          	beqz	t6,23090 <__subtf3+0x1264>
   2308c:	0013b993          	seqz	s3,t2
   23090:	406e0f33          	sub	t5,t3,t1
   23094:	0159e9b3          	or	s3,s3,s5
   23098:	413f0f33          	sub	t5,t5,s3
   2309c:	03e12e23          	sw	t5,60(sp)
   230a0:	00cf1f93          	slli	t6,t5,0xc
   230a4:	0e0fd063          	bgez	t6,23184 <__subtf3+0x1358>
   230a8:	40e78733          	sub	a4,a5,a4
   230ac:	40d606b3          	sub	a3,a2,a3
   230b0:	00e7beb3          	sltu	t4,a5,a4
   230b4:	41d68eb3          	sub	t4,a3,t4
   230b8:	03d12a23          	sw	t4,52(sp)
   230bc:	02e12823          	sw	a4,48(sp)
   230c0:	00d63633          	sltu	a2,a2,a3
   230c4:	00000e93          	li	t4,0
   230c8:	00e7f463          	bleu	a4,a5,230d0 <__subtf3+0x12a4>
   230cc:	0016be93          	seqz	t4,a3
   230d0:	41088733          	sub	a4,a7,a6
   230d4:	00cee633          	or	a2,t4,a2
   230d8:	00e8b8b3          	sltu	a7,a7,a4
   230dc:	40c70733          	sub	a4,a4,a2
   230e0:	02e12c23          	sw	a4,56(sp)
   230e4:	00060463          	beqz	a2,230ec <__subtf3+0x12c0>
   230e8:	0013b593          	seqz	a1,t2
   230ec:	41c30733          	sub	a4,t1,t3
   230f0:	0115e7b3          	or	a5,a1,a7
   230f4:	40f707b3          	sub	a5,a4,a5
   230f8:	02f12e23          	sw	a5,60(sp)
   230fc:	00050913          	mv	s2,a0
   23100:	03c12503          	lw	a0,60(sp)
   23104:	08050a63          	beqz	a0,23198 <__subtf3+0x136c>
   23108:	a58f00ef          	jal	ra,13360 <__clzsi2>
   2310c:	ff450513          	addi	a0,a0,-12
   23110:	41f55793          	srai	a5,a0,0x1f
   23114:	80000737          	lui	a4,0x80000
   23118:	01f7f793          	andi	a5,a5,31
   2311c:	01f70713          	addi	a4,a4,31 # 8000001f <__global_pointer$+0x7ffd9daf>
   23120:	00a787b3          	add	a5,a5,a0
   23124:	00e57733          	and	a4,a0,a4
   23128:	4057d793          	srai	a5,a5,0x5
   2312c:	00075863          	bgez	a4,2313c <__subtf3+0x1310>
   23130:	fff70713          	addi	a4,a4,-1
   23134:	fe076713          	ori	a4,a4,-32
   23138:	00170713          	addi	a4,a4,1
   2313c:	40f006b3          	neg	a3,a5
   23140:	08070863          	beqz	a4,231d0 <__subtf3+0x13a4>
   23144:	00269693          	slli	a3,a3,0x2
   23148:	03010313          	addi	t1,sp,48
   2314c:	00c68693          	addi	a3,a3,12
   23150:	02000813          	li	a6,32
   23154:	00d306b3          	add	a3,t1,a3
   23158:	00279593          	slli	a1,a5,0x2
   2315c:	40e80833          	sub	a6,a6,a4
   23160:	08d31e63          	bne	t1,a3,231fc <__subtf3+0x13d0>
   23164:	04010693          	addi	a3,sp,64
   23168:	00b685b3          	add	a1,a3,a1
   2316c:	03012683          	lw	a3,48(sp)
   23170:	fff78793          	addi	a5,a5,-1
   23174:	00e69733          	sll	a4,a3,a4
   23178:	fee5a823          	sw	a4,-16(a1)
   2317c:	fff00693          	li	a3,-1
   23180:	0b40006f          	j	23234 <__subtf3+0x1408>
   23184:	005eeeb3          	or	t4,t4,t0
   23188:	014eeeb3          	or	t4,t4,s4
   2318c:	01eeeeb3          	or	t4,t4,t5
   23190:	d00e8ce3          	beqz	t4,22ea8 <__subtf3+0x107c>
   23194:	f6dff06f          	j	23100 <__subtf3+0x12d4>
   23198:	03812503          	lw	a0,56(sp)
   2319c:	00050863          	beqz	a0,231ac <__subtf3+0x1380>
   231a0:	9c0f00ef          	jal	ra,13360 <__clzsi2>
   231a4:	02050513          	addi	a0,a0,32
   231a8:	f65ff06f          	j	2310c <__subtf3+0x12e0>
   231ac:	03412503          	lw	a0,52(sp)
   231b0:	00050863          	beqz	a0,231c0 <__subtf3+0x1394>
   231b4:	9acf00ef          	jal	ra,13360 <__clzsi2>
   231b8:	04050513          	addi	a0,a0,64
   231bc:	f51ff06f          	j	2310c <__subtf3+0x12e0>
   231c0:	03012503          	lw	a0,48(sp)
   231c4:	99cf00ef          	jal	ra,13360 <__clzsi2>
   231c8:	06050513          	addi	a0,a0,96
   231cc:	f41ff06f          	j	2310c <__subtf3+0x12e0>
   231d0:	03c10713          	addi	a4,sp,60
   231d4:	00269693          	slli	a3,a3,0x2
   231d8:	00300613          	li	a2,3
   231dc:	00d705b3          	add	a1,a4,a3
   231e0:	0005a583          	lw	a1,0(a1)
   231e4:	fff60613          	addi	a2,a2,-1
   231e8:	ffc70713          	addi	a4,a4,-4
   231ec:	00b72223          	sw	a1,4(a4)
   231f0:	fef656e3          	ble	a5,a2,231dc <__subtf3+0x13b0>
   231f4:	fff78793          	addi	a5,a5,-1
   231f8:	f85ff06f          	j	2317c <__subtf3+0x1350>
   231fc:	ffc6a603          	lw	a2,-4(a3)
   23200:	0006a883          	lw	a7,0(a3)
   23204:	00b68e33          	add	t3,a3,a1
   23208:	01065633          	srl	a2,a2,a6
   2320c:	00e898b3          	sll	a7,a7,a4
   23210:	01166633          	or	a2,a2,a7
   23214:	00ce2023          	sw	a2,0(t3)
   23218:	ffc68693          	addi	a3,a3,-4
   2321c:	f45ff06f          	j	23160 <__subtf3+0x1334>
   23220:	00279713          	slli	a4,a5,0x2
   23224:	03010613          	addi	a2,sp,48
   23228:	00e60733          	add	a4,a2,a4
   2322c:	00072023          	sw	zero,0(a4)
   23230:	fff78793          	addi	a5,a5,-1
   23234:	fed796e3          	bne	a5,a3,23220 <__subtf3+0x13f4>
   23238:	16854063          	blt	a0,s0,23398 <__subtf3+0x156c>
   2323c:	40850433          	sub	s0,a0,s0
   23240:	00140413          	addi	s0,s0,1
   23244:	41f45793          	srai	a5,s0,0x1f
   23248:	01f7f793          	andi	a5,a5,31
   2324c:	008787b3          	add	a5,a5,s0
   23250:	4057d513          	srai	a0,a5,0x5
   23254:	800007b7          	lui	a5,0x80000
   23258:	01f78793          	addi	a5,a5,31 # 8000001f <__global_pointer$+0x7ffd9daf>
   2325c:	00f47433          	and	s0,s0,a5
   23260:	00045863          	bgez	s0,23270 <__subtf3+0x1444>
   23264:	fff40413          	addi	s0,s0,-1
   23268:	fe046413          	ori	s0,s0,-32
   2326c:	00140413          	addi	s0,s0,1
   23270:	00040793          	mv	a5,s0
   23274:	00000813          	li	a6,0
   23278:	00000713          	li	a4,0
   2327c:	04a74263          	blt	a4,a0,232c0 <__subtf3+0x1494>
   23280:	00050693          	mv	a3,a0
   23284:	00055463          	bgez	a0,2328c <__subtf3+0x1460>
   23288:	00000693          	li	a3,0
   2328c:	00251713          	slli	a4,a0,0x2
   23290:	04041663          	bnez	s0,232dc <__subtf3+0x14b0>
   23294:	00300613          	li	a2,3
   23298:	03010693          	addi	a3,sp,48
   2329c:	40a60533          	sub	a0,a2,a0
   232a0:	00e68633          	add	a2,a3,a4
   232a4:	00062603          	lw	a2,0(a2)
   232a8:	00178793          	addi	a5,a5,1
   232ac:	00468693          	addi	a3,a3,4
   232b0:	fec6ae23          	sw	a2,-4(a3)
   232b4:	fef556e3          	ble	a5,a0,232a0 <__subtf3+0x1474>
   232b8:	00300693          	li	a3,3
   232bc:	0c00006f          	j	2337c <__subtf3+0x1550>
   232c0:	00271693          	slli	a3,a4,0x2
   232c4:	03010613          	addi	a2,sp,48
   232c8:	00d606b3          	add	a3,a2,a3
   232cc:	0006a683          	lw	a3,0(a3)
   232d0:	00170713          	addi	a4,a4,1
   232d4:	00d86833          	or	a6,a6,a3
   232d8:	fa5ff06f          	j	2327c <__subtf3+0x1450>
   232dc:	04010793          	addi	a5,sp,64
   232e0:	00269693          	slli	a3,a3,0x2
   232e4:	00d786b3          	add	a3,a5,a3
   232e8:	ff06a783          	lw	a5,-16(a3)
   232ec:	02000593          	li	a1,32
   232f0:	408585b3          	sub	a1,a1,s0
   232f4:	00b797b3          	sll	a5,a5,a1
   232f8:	00f86833          	or	a6,a6,a5
   232fc:	03010793          	addi	a5,sp,48
   23300:	00e78733          	add	a4,a5,a4
   23304:	00300793          	li	a5,3
   23308:	00000613          	li	a2,0
   2330c:	40a787b3          	sub	a5,a5,a0
   23310:	00470713          	addi	a4,a4,4
   23314:	02f64463          	blt	a2,a5,2333c <__subtf3+0x1510>
   23318:	04010713          	addi	a4,sp,64
   2331c:	00279793          	slli	a5,a5,0x2
   23320:	00f707b3          	add	a5,a4,a5
   23324:	03c12703          	lw	a4,60(sp)
   23328:	00875433          	srl	s0,a4,s0
   2332c:	fe87a823          	sw	s0,-16(a5)
   23330:	00400793          	li	a5,4
   23334:	40a787b3          	sub	a5,a5,a0
   23338:	f81ff06f          	j	232b8 <__subtf3+0x148c>
   2333c:	00261893          	slli	a7,a2,0x2
   23340:	03010693          	addi	a3,sp,48
   23344:	011688b3          	add	a7,a3,a7
   23348:	00072303          	lw	t1,0(a4)
   2334c:	ffc72683          	lw	a3,-4(a4)
   23350:	00160613          	addi	a2,a2,1
   23354:	00b31333          	sll	t1,t1,a1
   23358:	0086d6b3          	srl	a3,a3,s0
   2335c:	0066e6b3          	or	a3,a3,t1
   23360:	00d8a023          	sw	a3,0(a7)
   23364:	fadff06f          	j	23310 <__subtf3+0x14e4>
   23368:	00279713          	slli	a4,a5,0x2
   2336c:	03010613          	addi	a2,sp,48
   23370:	00e60733          	add	a4,a2,a4
   23374:	00072023          	sw	zero,0(a4)
   23378:	00178793          	addi	a5,a5,1
   2337c:	fef6d6e3          	ble	a5,a3,23368 <__subtf3+0x153c>
   23380:	03012703          	lw	a4,48(sp)
   23384:	010037b3          	snez	a5,a6
   23388:	00000413          	li	s0,0
   2338c:	00f767b3          	or	a5,a4,a5
   23390:	02f12823          	sw	a5,48(sp)
   23394:	f31fe06f          	j	222c4 <__subtf3+0x498>
   23398:	03c12783          	lw	a5,60(sp)
   2339c:	fff80737          	lui	a4,0xfff80
   233a0:	fff70713          	addi	a4,a4,-1 # fff7ffff <__global_pointer$+0xfff59d8f>
   233a4:	40a40433          	sub	s0,s0,a0
   233a8:	00e7f7b3          	and	a5,a5,a4
   233ac:	cbdfe06f          	j	22068 <__subtf3+0x23c>
   233b0:	02012e23          	sw	zero,60(sp)
   233b4:	02012c23          	sw	zero,56(sp)
   233b8:	02012a23          	sw	zero,52(sp)
   233bc:	02012823          	sw	zero,48(sp)
   233c0:	f85fe06f          	j	22344 <__subtf3+0x518>

000233c4 <__fixtfsi>:
   233c4:	00c52703          	lw	a4,12(a0)
   233c8:	00852783          	lw	a5,8(a0)
   233cc:	00452683          	lw	a3,4(a0)
   233d0:	00052603          	lw	a2,0(a0)
   233d4:	fe010113          	addi	sp,sp,-32
   233d8:	00f12423          	sw	a5,8(sp)
   233dc:	00e12623          	sw	a4,12(sp)
   233e0:	00f12c23          	sw	a5,24(sp)
   233e4:	01071593          	slli	a1,a4,0x10
   233e8:	00171793          	slli	a5,a4,0x1
   233ec:	01f75813          	srli	a6,a4,0x1f
   233f0:	00004737          	lui	a4,0x4
   233f4:	00d12223          	sw	a3,4(sp)
   233f8:	00d12a23          	sw	a3,20(sp)
   233fc:	00c12023          	sw	a2,0(sp)
   23400:	0117d693          	srli	a3,a5,0x11
   23404:	00c12823          	sw	a2,16(sp)
   23408:	ffe70793          	addi	a5,a4,-2 # 3ffe <main-0xc076>
   2340c:	00000513          	li	a0,0
   23410:	00d7dc63          	ble	a3,a5,23428 <__fixtfsi+0x64>
   23414:	01d70793          	addi	a5,a4,29
   23418:	00d7dc63          	ble	a3,a5,23430 <__fixtfsi+0x6c>
   2341c:	80000537          	lui	a0,0x80000
   23420:	fff54513          	not	a0,a0
   23424:	00a80533          	add	a0,a6,a0
   23428:	02010113          	addi	sp,sp,32
   2342c:	00008067          	ret
   23430:	000107b7          	lui	a5,0x10
   23434:	0105d593          	srli	a1,a1,0x10
   23438:	00f5e5b3          	or	a1,a1,a5
   2343c:	06f70793          	addi	a5,a4,111
   23440:	40d787b3          	sub	a5,a5,a3
   23444:	4057d713          	srai	a4,a5,0x5
   23448:	00b12e23          	sw	a1,28(sp)
   2344c:	01f7f793          	andi	a5,a5,31
   23450:	08079863          	bnez	a5,234e0 <__fixtfsi+0x11c>
   23454:	00271793          	slli	a5,a4,0x2
   23458:	02010693          	addi	a3,sp,32
   2345c:	00f687b3          	add	a5,a3,a5
   23460:	ff07a783          	lw	a5,-16(a5) # fff0 <main-0x84>
   23464:	00200613          	li	a2,2
   23468:	00f12823          	sw	a5,16(sp)
   2346c:	00200793          	li	a5,2
   23470:	00e78463          	beq	a5,a4,23478 <__fixtfsi+0xb4>
   23474:	00100613          	li	a2,1
   23478:	00400713          	li	a4,4
   2347c:	00261793          	slli	a5,a2,0x2
   23480:	01010693          	addi	a3,sp,16
   23484:	00f687b3          	add	a5,a3,a5
   23488:	0007a023          	sw	zero,0(a5)
   2348c:	00160613          	addi	a2,a2,1
   23490:	fee616e3          	bne	a2,a4,2347c <__fixtfsi+0xb8>
   23494:	01012503          	lw	a0,16(sp)
   23498:	f80808e3          	beqz	a6,23428 <__fixtfsi+0x64>
   2349c:	40a00533          	neg	a0,a0
   234a0:	f89ff06f          	j	23428 <__fixtfsi+0x64>
   234a4:	ff062683          	lw	a3,-16(a2)
   234a8:	ff072303          	lw	t1,-16(a4)
   234ac:	011696b3          	sll	a3,a3,a7
   234b0:	00f35333          	srl	t1,t1,a5
   234b4:	0066e6b3          	or	a3,a3,t1
   234b8:	00d12823          	sw	a3,16(sp)
   234bc:	00100693          	li	a3,1
   234c0:	fea6c2e3          	blt	a3,a0,234a4 <__fixtfsi+0xe0>
   234c4:	00168613          	addi	a2,a3,1
   234c8:	02010713          	addi	a4,sp,32
   234cc:	00269693          	slli	a3,a3,0x2
   234d0:	00d706b3          	add	a3,a4,a3
   234d4:	00f5d7b3          	srl	a5,a1,a5
   234d8:	fef6a823          	sw	a5,-16(a3)
   234dc:	f9dff06f          	j	23478 <__fixtfsi+0xb4>
   234e0:	00170613          	addi	a2,a4,1
   234e4:	02010893          	addi	a7,sp,32
   234e8:	00300513          	li	a0,3
   234ec:	00261613          	slli	a2,a2,0x2
   234f0:	40e50533          	sub	a0,a0,a4
   234f4:	00c88633          	add	a2,a7,a2
   234f8:	00271713          	slli	a4,a4,0x2
   234fc:	02000893          	li	a7,32
   23500:	02010313          	addi	t1,sp,32
   23504:	00000693          	li	a3,0
   23508:	40f888b3          	sub	a7,a7,a5
   2350c:	00e30733          	add	a4,t1,a4
   23510:	fb1ff06f          	j	234c0 <__fixtfsi+0xfc>

00023514 <__floatsitf>:
   23514:	fd010113          	addi	sp,sp,-48
   23518:	02912223          	sw	s1,36(sp)
   2351c:	02112623          	sw	ra,44(sp)
   23520:	02812423          	sw	s0,40(sp)
   23524:	03212023          	sw	s2,32(sp)
   23528:	00050493          	mv	s1,a0
   2352c:	14058c63          	beqz	a1,23684 <__floatsitf+0x170>
   23530:	00058413          	mv	s0,a1
   23534:	01f5d913          	srli	s2,a1,0x1f
   23538:	0005d463          	bgez	a1,23540 <__floatsitf+0x2c>
   2353c:	40b00433          	neg	s0,a1
   23540:	00040513          	mv	a0,s0
   23544:	e1def0ef          	jal	ra,13360 <__clzsi2>
   23548:	00004737          	lui	a4,0x4
   2354c:	01e70713          	addi	a4,a4,30 # 401e <main-0xc056>
   23550:	40a70733          	sub	a4,a4,a0
   23554:	05150513          	addi	a0,a0,81 # 80000051 <__global_pointer$+0x7ffd9de1>
   23558:	00812823          	sw	s0,16(sp)
   2355c:	00012a23          	sw	zero,20(sp)
   23560:	00012c23          	sw	zero,24(sp)
   23564:	00012e23          	sw	zero,28(sp)
   23568:	01f57593          	andi	a1,a0,31
   2356c:	04058063          	beqz	a1,235ac <__floatsitf+0x98>
   23570:	05f00793          	li	a5,95
   23574:	00300693          	li	a3,3
   23578:	00a7cc63          	blt	a5,a0,23590 <__floatsitf+0x7c>
   2357c:	02000693          	li	a3,32
   23580:	40b686b3          	sub	a3,a3,a1
   23584:	00d456b3          	srl	a3,s0,a3
   23588:	00d12e23          	sw	a3,28(sp)
   2358c:	00200693          	li	a3,2
   23590:	fff68613          	addi	a2,a3,-1
   23594:	02010793          	addi	a5,sp,32
   23598:	00269693          	slli	a3,a3,0x2
   2359c:	00d786b3          	add	a3,a5,a3
   235a0:	00b41433          	sll	s0,s0,a1
   235a4:	fe86a823          	sw	s0,-16(a3)
   235a8:	0500006f          	j	235f8 <__floatsitf+0xe4>
   235ac:	40555793          	srai	a5,a0,0x5
   235b0:	00300613          	li	a2,3
   235b4:	40f60633          	sub	a2,a2,a5
   235b8:	02010693          	addi	a3,sp,32
   235bc:	00261613          	slli	a2,a2,0x2
   235c0:	00c68633          	add	a2,a3,a2
   235c4:	ff062683          	lw	a3,-16(a2)
   235c8:	00200613          	li	a2,2
   235cc:	00d12e23          	sw	a3,28(sp)
   235d0:	05f00693          	li	a3,95
   235d4:	02a6c263          	blt	a3,a0,235f8 <__floatsitf+0xe4>
   235d8:	00200693          	li	a3,2
   235dc:	40f686b3          	sub	a3,a3,a5
   235e0:	00269693          	slli	a3,a3,0x2
   235e4:	02010793          	addi	a5,sp,32
   235e8:	00d786b3          	add	a3,a5,a3
   235ec:	ff06a783          	lw	a5,-16(a3)
   235f0:	00100613          	li	a2,1
   235f4:	00f12c23          	sw	a5,24(sp)
   235f8:	fff00693          	li	a3,-1
   235fc:	00261793          	slli	a5,a2,0x2
   23600:	01010593          	addi	a1,sp,16
   23604:	00f587b3          	add	a5,a1,a5
   23608:	0007a023          	sw	zero,0(a5)
   2360c:	fff60613          	addi	a2,a2,-1
   23610:	fed616e3          	bne	a2,a3,235fc <__floatsitf+0xe8>
   23614:	01c12783          	lw	a5,28(sp)
   23618:	01171713          	slli	a4,a4,0x11
   2361c:	01175713          	srli	a4,a4,0x11
   23620:	00f11623          	sh	a5,12(sp)
   23624:	01071793          	slli	a5,a4,0x10
   23628:	00c12703          	lw	a4,12(sp)
   2362c:	800106b7          	lui	a3,0x80010
   23630:	fff68693          	addi	a3,a3,-1 # 8000ffff <__global_pointer$+0x7ffe9d8f>
   23634:	00d77733          	and	a4,a4,a3
   23638:	00f76733          	or	a4,a4,a5
   2363c:	00171793          	slli	a5,a4,0x1
   23640:	01012703          	lw	a4,16(sp)
   23644:	01f91913          	slli	s2,s2,0x1f
   23648:	02c12083          	lw	ra,44(sp)
   2364c:	00e4a023          	sw	a4,0(s1)
   23650:	01412703          	lw	a4,20(sp)
   23654:	02812403          	lw	s0,40(sp)
   23658:	0017d793          	srli	a5,a5,0x1
   2365c:	00e4a223          	sw	a4,4(s1)
   23660:	01812703          	lw	a4,24(sp)
   23664:	0127e7b3          	or	a5,a5,s2
   23668:	00f4a623          	sw	a5,12(s1)
   2366c:	00e4a423          	sw	a4,8(s1)
   23670:	00048513          	mv	a0,s1
   23674:	02012903          	lw	s2,32(sp)
   23678:	02412483          	lw	s1,36(sp)
   2367c:	03010113          	addi	sp,sp,48
   23680:	00008067          	ret
   23684:	00012e23          	sw	zero,28(sp)
   23688:	00012c23          	sw	zero,24(sp)
   2368c:	00012a23          	sw	zero,20(sp)
   23690:	00012823          	sw	zero,16(sp)
   23694:	00000713          	li	a4,0
   23698:	00000913          	li	s2,0
   2369c:	f79ff06f          	j	23614 <__floatsitf+0x100>

000236a0 <__extenddftf2>:
   236a0:	01465793          	srli	a5,a2,0x14
   236a4:	00c61713          	slli	a4,a2,0xc
   236a8:	7ff7f793          	andi	a5,a5,2047
   236ac:	fd010113          	addi	sp,sp,-48
   236b0:	00c75713          	srli	a4,a4,0xc
   236b4:	00178693          	addi	a3,a5,1
   236b8:	02812423          	sw	s0,40(sp)
   236bc:	02912223          	sw	s1,36(sp)
   236c0:	02112623          	sw	ra,44(sp)
   236c4:	00b12823          	sw	a1,16(sp)
   236c8:	00e12a23          	sw	a4,20(sp)
   236cc:	00012e23          	sw	zero,28(sp)
   236d0:	00012c23          	sw	zero,24(sp)
   236d4:	7fe6f693          	andi	a3,a3,2046
   236d8:	00050493          	mv	s1,a0
   236dc:	01f65413          	srli	s0,a2,0x1f
   236e0:	0a068063          	beqz	a3,23780 <__extenddftf2+0xe0>
   236e4:	000046b7          	lui	a3,0x4
   236e8:	c0068693          	addi	a3,a3,-1024 # 3c00 <main-0xc474>
   236ec:	0045d513          	srli	a0,a1,0x4
   236f0:	00d787b3          	add	a5,a5,a3
   236f4:	00475693          	srli	a3,a4,0x4
   236f8:	01c71713          	slli	a4,a4,0x1c
   236fc:	00a76733          	or	a4,a4,a0
   23700:	01c59593          	slli	a1,a1,0x1c
   23704:	00d12e23          	sw	a3,28(sp)
   23708:	00e12c23          	sw	a4,24(sp)
   2370c:	00b12a23          	sw	a1,20(sp)
   23710:	00012823          	sw	zero,16(sp)
   23714:	01c12703          	lw	a4,28(sp)
   23718:	01179793          	slli	a5,a5,0x11
   2371c:	800106b7          	lui	a3,0x80010
   23720:	00e11623          	sh	a4,12(sp)
   23724:	00c12703          	lw	a4,12(sp)
   23728:	0117d793          	srli	a5,a5,0x11
   2372c:	fff68693          	addi	a3,a3,-1 # 8000ffff <__global_pointer$+0x7ffe9d8f>
   23730:	00d77733          	and	a4,a4,a3
   23734:	01079793          	slli	a5,a5,0x10
   23738:	00f767b3          	or	a5,a4,a5
   2373c:	01012703          	lw	a4,16(sp)
   23740:	00179793          	slli	a5,a5,0x1
   23744:	01f41413          	slli	s0,s0,0x1f
   23748:	00e4a023          	sw	a4,0(s1)
   2374c:	01412703          	lw	a4,20(sp)
   23750:	0017d793          	srli	a5,a5,0x1
   23754:	0087e7b3          	or	a5,a5,s0
   23758:	00e4a223          	sw	a4,4(s1)
   2375c:	01812703          	lw	a4,24(sp)
   23760:	02c12083          	lw	ra,44(sp)
   23764:	02812403          	lw	s0,40(sp)
   23768:	00e4a423          	sw	a4,8(s1)
   2376c:	00f4a623          	sw	a5,12(s1)
   23770:	00048513          	mv	a0,s1
   23774:	02412483          	lw	s1,36(sp)
   23778:	03010113          	addi	sp,sp,48
   2377c:	00008067          	ret
   23780:	00b76533          	or	a0,a4,a1
   23784:	0e079463          	bnez	a5,2386c <__extenddftf2+0x1cc>
   23788:	f80506e3          	beqz	a0,23714 <__extenddftf2+0x74>
   2378c:	04070e63          	beqz	a4,237e8 <__extenddftf2+0x148>
   23790:	00070513          	mv	a0,a4
   23794:	bcdef0ef          	jal	ra,13360 <__clzsi2>
   23798:	03150613          	addi	a2,a0,49
   2379c:	40565693          	srai	a3,a2,0x5
   237a0:	01f67613          	andi	a2,a2,31
   237a4:	40d00733          	neg	a4,a3
   237a8:	04060663          	beqz	a2,237f4 <__extenddftf2+0x154>
   237ac:	00271713          	slli	a4,a4,0x2
   237b0:	01010313          	addi	t1,sp,16
   237b4:	00c70713          	addi	a4,a4,12
   237b8:	02000793          	li	a5,32
   237bc:	00e30733          	add	a4,t1,a4
   237c0:	00269813          	slli	a6,a3,0x2
   237c4:	40c787b3          	sub	a5,a5,a2
   237c8:	08e31063          	bne	t1,a4,23848 <__extenddftf2+0x1a8>
   237cc:	02010793          	addi	a5,sp,32
   237d0:	01078833          	add	a6,a5,a6
   237d4:	01012783          	lw	a5,16(sp)
   237d8:	fff68713          	addi	a4,a3,-1
   237dc:	00c79633          	sll	a2,a5,a2
   237e0:	fec82823          	sw	a2,-16(a6)
   237e4:	0380006f          	j	2381c <__extenddftf2+0x17c>
   237e8:	b79ef0ef          	jal	ra,13360 <__clzsi2>
   237ec:	02050513          	addi	a0,a0,32
   237f0:	fa9ff06f          	j	23798 <__extenddftf2+0xf8>
   237f4:	01c10613          	addi	a2,sp,28
   237f8:	00271713          	slli	a4,a4,0x2
   237fc:	00300793          	li	a5,3
   23800:	00e605b3          	add	a1,a2,a4
   23804:	0005a583          	lw	a1,0(a1)
   23808:	fff78793          	addi	a5,a5,-1
   2380c:	ffc60613          	addi	a2,a2,-4
   23810:	00b62223          	sw	a1,4(a2)
   23814:	fed7d6e3          	ble	a3,a5,23800 <__extenddftf2+0x160>
   23818:	fff68713          	addi	a4,a3,-1
   2381c:	fff00693          	li	a3,-1
   23820:	00271793          	slli	a5,a4,0x2
   23824:	01010613          	addi	a2,sp,16
   23828:	00f607b3          	add	a5,a2,a5
   2382c:	0007a023          	sw	zero,0(a5)
   23830:	fff70713          	addi	a4,a4,-1
   23834:	fed716e3          	bne	a4,a3,23820 <__extenddftf2+0x180>
   23838:	000047b7          	lui	a5,0x4
   2383c:	c0c78793          	addi	a5,a5,-1012 # 3c0c <main-0xc468>
   23840:	40a787b3          	sub	a5,a5,a0
   23844:	ed1ff06f          	j	23714 <__extenddftf2+0x74>
   23848:	ffc72583          	lw	a1,-4(a4)
   2384c:	00072883          	lw	a7,0(a4)
   23850:	01070e33          	add	t3,a4,a6
   23854:	00f5d5b3          	srl	a1,a1,a5
   23858:	00c898b3          	sll	a7,a7,a2
   2385c:	0115e5b3          	or	a1,a1,a7
   23860:	00be2023          	sw	a1,0(t3)
   23864:	ffc70713          	addi	a4,a4,-4
   23868:	f61ff06f          	j	237c8 <__extenddftf2+0x128>
   2386c:	000087b7          	lui	a5,0x8
   23870:	02050863          	beqz	a0,238a0 <__extenddftf2+0x200>
   23874:	01c71793          	slli	a5,a4,0x1c
   23878:	0045d693          	srli	a3,a1,0x4
   2387c:	00d7e7b3          	or	a5,a5,a3
   23880:	00f12c23          	sw	a5,24(sp)
   23884:	00475713          	srli	a4,a4,0x4
   23888:	000087b7          	lui	a5,0x8
   2388c:	01c59593          	slli	a1,a1,0x1c
   23890:	00f76733          	or	a4,a4,a5
   23894:	00b12a23          	sw	a1,20(sp)
   23898:	00012823          	sw	zero,16(sp)
   2389c:	00e12e23          	sw	a4,28(sp)
   238a0:	fff78793          	addi	a5,a5,-1 # 7fff <main-0x8075>
   238a4:	e71ff06f          	j	23714 <__extenddftf2+0x74>

000238a8 <__trunctfdf2>:
   238a8:	00c52583          	lw	a1,12(a0)
   238ac:	00852783          	lw	a5,8(a0)
   238b0:	00452703          	lw	a4,4(a0)
   238b4:	fe010113          	addi	sp,sp,-32
   238b8:	00052683          	lw	a3,0(a0)
   238bc:	00f12423          	sw	a5,8(sp)
   238c0:	00f12c23          	sw	a5,24(sp)
   238c4:	01059793          	slli	a5,a1,0x10
   238c8:	00e12223          	sw	a4,4(sp)
   238cc:	00e12a23          	sw	a4,20(sp)
   238d0:	0107d793          	srli	a5,a5,0x10
   238d4:	00159713          	slli	a4,a1,0x1
   238d8:	00b12623          	sw	a1,12(sp)
   238dc:	00d12023          	sw	a3,0(sp)
   238e0:	00d12823          	sw	a3,16(sp)
   238e4:	00f12e23          	sw	a5,28(sp)
   238e8:	01175713          	srli	a4,a4,0x11
   238ec:	01f5d593          	srli	a1,a1,0x1f
   238f0:	01010313          	addi	t1,sp,16
   238f4:	01c10613          	addi	a2,sp,28
   238f8:	00062783          	lw	a5,0(a2)
   238fc:	ffc62683          	lw	a3,-4(a2)
   23900:	ffc60613          	addi	a2,a2,-4
   23904:	00379793          	slli	a5,a5,0x3
   23908:	01d6d693          	srli	a3,a3,0x1d
   2390c:	00d7e7b3          	or	a5,a5,a3
   23910:	00f62223          	sw	a5,4(a2)
   23914:	fec312e3          	bne	t1,a2,238f8 <__trunctfdf2+0x50>
   23918:	01012683          	lw	a3,16(sp)
   2391c:	00170793          	addi	a5,a4,1
   23920:	00369513          	slli	a0,a3,0x3
   23924:	000086b7          	lui	a3,0x8
   23928:	ffe68693          	addi	a3,a3,-2 # 7ffe <main-0x8076>
   2392c:	00a12823          	sw	a0,16(sp)
   23930:	00d7f7b3          	and	a5,a5,a3
   23934:	1a078a63          	beqz	a5,23ae8 <__trunctfdf2+0x240>
   23938:	ffffc7b7          	lui	a5,0xffffc
   2393c:	40078793          	addi	a5,a5,1024 # ffffc400 <__global_pointer$+0xfffd6190>
   23940:	00f70733          	add	a4,a4,a5
   23944:	7fe00793          	li	a5,2046
   23948:	1ee7cc63          	blt	a5,a4,23b40 <__trunctfdf2+0x298>
   2394c:	06e05863          	blez	a4,239bc <__trunctfdf2+0x114>
   23950:	01812803          	lw	a6,24(sp)
   23954:	01c12603          	lw	a2,28(sp)
   23958:	01412783          	lw	a5,20(sp)
   2395c:	01c85693          	srli	a3,a6,0x1c
   23960:	00461613          	slli	a2,a2,0x4
   23964:	00d66633          	or	a2,a2,a3
   23968:	00479693          	slli	a3,a5,0x4
   2396c:	00a6e6b3          	or	a3,a3,a0
   23970:	01c7d793          	srli	a5,a5,0x1c
   23974:	00481813          	slli	a6,a6,0x4
   23978:	00d036b3          	snez	a3,a3
   2397c:	0107e7b3          	or	a5,a5,a6
   23980:	00f6e6b3          	or	a3,a3,a5
   23984:	00c12a23          	sw	a2,20(sp)
   23988:	00d12823          	sw	a3,16(sp)
   2398c:	01012683          	lw	a3,16(sp)
   23990:	01412783          	lw	a5,20(sp)
   23994:	0076f613          	andi	a2,a3,7
   23998:	1a060a63          	beqz	a2,23b4c <__trunctfdf2+0x2a4>
   2399c:	00f6f613          	andi	a2,a3,15
   239a0:	00400513          	li	a0,4
   239a4:	1aa60463          	beq	a2,a0,23b4c <__trunctfdf2+0x2a4>
   239a8:	00468613          	addi	a2,a3,4
   239ac:	00d636b3          	sltu	a3,a2,a3
   239b0:	00d787b3          	add	a5,a5,a3
   239b4:	00060693          	mv	a3,a2
   239b8:	1940006f          	j	23b4c <__trunctfdf2+0x2a4>
   239bc:	fcc00793          	li	a5,-52
   239c0:	00f75c63          	ble	a5,a4,239d8 <__trunctfdf2+0x130>
   239c4:	00012a23          	sw	zero,20(sp)
   239c8:	00100793          	li	a5,1
   239cc:	00f12823          	sw	a5,16(sp)
   239d0:	00000713          	li	a4,0
   239d4:	fb9ff06f          	j	2398c <__trunctfdf2+0xe4>
   239d8:	01c12783          	lw	a5,28(sp)
   239dc:	000806b7          	lui	a3,0x80
   239e0:	00000e13          	li	t3,0
   239e4:	00d7e7b3          	or	a5,a5,a3
   239e8:	00f12e23          	sw	a5,28(sp)
   239ec:	03d00793          	li	a5,61
   239f0:	40e78733          	sub	a4,a5,a4
   239f4:	40575513          	srai	a0,a4,0x5
   239f8:	00030693          	mv	a3,t1
   239fc:	01f77713          	andi	a4,a4,31
   23a00:	00000793          	li	a5,0
   23a04:	0006a803          	lw	a6,0(a3) # 80000 <__global_pointer$+0x59d90>
   23a08:	00178793          	addi	a5,a5,1
   23a0c:	00468693          	addi	a3,a3,4
   23a10:	010e6e33          	or	t3,t3,a6
   23a14:	fef518e3          	bne	a0,a5,23a04 <__trunctfdf2+0x15c>
   23a18:	00251693          	slli	a3,a0,0x2
   23a1c:	04071663          	bnez	a4,23a68 <__trunctfdf2+0x1c0>
   23a20:	00300793          	li	a5,3
   23a24:	40a78533          	sub	a0,a5,a0
   23a28:	00d607b3          	add	a5,a2,a3
   23a2c:	0007a783          	lw	a5,0(a5)
   23a30:	00170713          	addi	a4,a4,1
   23a34:	00460613          	addi	a2,a2,4
   23a38:	fef62e23          	sw	a5,-4(a2)
   23a3c:	fee556e3          	ble	a4,a0,23a28 <__trunctfdf2+0x180>
   23a40:	00400693          	li	a3,4
   23a44:	00271793          	slli	a5,a4,0x2
   23a48:	00f307b3          	add	a5,t1,a5
   23a4c:	0007a023          	sw	zero,0(a5)
   23a50:	00170713          	addi	a4,a4,1
   23a54:	fed718e3          	bne	a4,a3,23a44 <__trunctfdf2+0x19c>
   23a58:	01012703          	lw	a4,16(sp)
   23a5c:	01c037b3          	snez	a5,t3
   23a60:	00f767b3          	or	a5,a4,a5
   23a64:	f69ff06f          	j	239cc <__trunctfdf2+0x124>
   23a68:	02010793          	addi	a5,sp,32
   23a6c:	00d787b3          	add	a5,a5,a3
   23a70:	ff07a783          	lw	a5,-16(a5)
   23a74:	02000893          	li	a7,32
   23a78:	40e888b3          	sub	a7,a7,a4
   23a7c:	011797b3          	sll	a5,a5,a7
   23a80:	00fe6e33          	or	t3,t3,a5
   23a84:	00300793          	li	a5,3
   23a88:	00d306b3          	add	a3,t1,a3
   23a8c:	00000813          	li	a6,0
   23a90:	40a787b3          	sub	a5,a5,a0
   23a94:	00468693          	addi	a3,a3,4
   23a98:	02f84463          	blt	a6,a5,23ac0 <__trunctfdf2+0x218>
   23a9c:	02010693          	addi	a3,sp,32
   23aa0:	00279793          	slli	a5,a5,0x2
   23aa4:	00f687b3          	add	a5,a3,a5
   23aa8:	01c12683          	lw	a3,28(sp)
   23aac:	00e6d733          	srl	a4,a3,a4
   23ab0:	fee7a823          	sw	a4,-16(a5)
   23ab4:	00400713          	li	a4,4
   23ab8:	40a70733          	sub	a4,a4,a0
   23abc:	f85ff06f          	j	23a40 <__trunctfdf2+0x198>
   23ac0:	ffc6a603          	lw	a2,-4(a3)
   23ac4:	0006af03          	lw	t5,0(a3)
   23ac8:	00281e93          	slli	t4,a6,0x2
   23acc:	00e65633          	srl	a2,a2,a4
   23ad0:	011f1f33          	sll	t5,t5,a7
   23ad4:	01d30eb3          	add	t4,t1,t4
   23ad8:	01e66633          	or	a2,a2,t5
   23adc:	00cea023          	sw	a2,0(t4)
   23ae0:	00180813          	addi	a6,a6,1
   23ae4:	fb1ff06f          	j	23a94 <__trunctfdf2+0x1ec>
   23ae8:	01412603          	lw	a2,20(sp)
   23aec:	01812783          	lw	a5,24(sp)
   23af0:	01c12803          	lw	a6,28(sp)
   23af4:	00f666b3          	or	a3,a2,a5
   23af8:	0106e6b3          	or	a3,a3,a6
   23afc:	00a6e6b3          	or	a3,a3,a0
   23b00:	00071863          	bnez	a4,23b10 <__trunctfdf2+0x268>
   23b04:	00d036b3          	snez	a3,a3
   23b08:	00000793          	li	a5,0
   23b0c:	e89ff06f          	j	23994 <__trunctfdf2+0xec>
   23b10:	0a068c63          	beqz	a3,23bc8 <__trunctfdf2+0x320>
   23b14:	01c65693          	srli	a3,a2,0x1c
   23b18:	00481813          	slli	a6,a6,0x4
   23b1c:	00479613          	slli	a2,a5,0x4
   23b20:	01c7d793          	srli	a5,a5,0x1c
   23b24:	00400737          	lui	a4,0x400
   23b28:	00c6e6b3          	or	a3,a3,a2
   23b2c:	0107e7b3          	or	a5,a5,a6
   23b30:	00e7e7b3          	or	a5,a5,a4
   23b34:	ff86f693          	andi	a3,a3,-8
   23b38:	7ff00713          	li	a4,2047
   23b3c:	e59ff06f          	j	23994 <__trunctfdf2+0xec>
   23b40:	00000793          	li	a5,0
   23b44:	00000693          	li	a3,0
   23b48:	7ff00713          	li	a4,2047
   23b4c:	00879613          	slli	a2,a5,0x8
   23b50:	00065e63          	bgez	a2,23b6c <__trunctfdf2+0x2c4>
   23b54:	00170713          	addi	a4,a4,1 # 400001 <__global_pointer$+0x3d9d91>
   23b58:	7ff00613          	li	a2,2047
   23b5c:	06c70a63          	beq	a4,a2,23bd0 <__trunctfdf2+0x328>
   23b60:	ff800637          	lui	a2,0xff800
   23b64:	fff60613          	addi	a2,a2,-1 # ff7fffff <__global_pointer$+0xff7d9d8f>
   23b68:	00c7f7b3          	and	a5,a5,a2
   23b6c:	01d79613          	slli	a2,a5,0x1d
   23b70:	0036d693          	srli	a3,a3,0x3
   23b74:	00d666b3          	or	a3,a2,a3
   23b78:	7ff00613          	li	a2,2047
   23b7c:	0037d793          	srli	a5,a5,0x3
   23b80:	00c71e63          	bne	a4,a2,23b9c <__trunctfdf2+0x2f4>
   23b84:	00f6e6b3          	or	a3,a3,a5
   23b88:	00000793          	li	a5,0
   23b8c:	00068863          	beqz	a3,23b9c <__trunctfdf2+0x2f4>
   23b90:	000807b7          	lui	a5,0x80
   23b94:	00000693          	li	a3,0
   23b98:	00000593          	li	a1,0
   23b9c:	00c79793          	slli	a5,a5,0xc
   23ba0:	7ff77713          	andi	a4,a4,2047
   23ba4:	01471713          	slli	a4,a4,0x14
   23ba8:	00c7d793          	srli	a5,a5,0xc
   23bac:	01f59593          	slli	a1,a1,0x1f
   23bb0:	00e7e7b3          	or	a5,a5,a4
   23bb4:	00b7e733          	or	a4,a5,a1
   23bb8:	00068513          	mv	a0,a3
   23bbc:	00070593          	mv	a1,a4
   23bc0:	02010113          	addi	sp,sp,32
   23bc4:	00008067          	ret
   23bc8:	00000793          	li	a5,0
   23bcc:	f7dff06f          	j	23b48 <__trunctfdf2+0x2a0>
   23bd0:	00000793          	li	a5,0
   23bd4:	00000693          	li	a3,0
   23bd8:	f95ff06f          	j	23b6c <__trunctfdf2+0x2c4>

00023bdc <__muldi3>:
   23bdc:	ff010113          	addi	sp,sp,-16
   23be0:	00068313          	mv	t1,a3
   23be4:	00112623          	sw	ra,12(sp)
   23be8:	00050e13          	mv	t3,a0
   23bec:	00050893          	mv	a7,a0
   23bf0:	00060693          	mv	a3,a2
   23bf4:	00000713          	li	a4,0
   23bf8:	00000793          	li	a5,0
   23bfc:	00000813          	li	a6,0
   23c00:	0016f513          	andi	a0,a3,1
   23c04:	00171e93          	slli	t4,a4,0x1
   23c08:	00050c63          	beqz	a0,23c20 <__muldi3+0x44>
   23c0c:	01088533          	add	a0,a7,a6
   23c10:	01053833          	sltu	a6,a0,a6
   23c14:	00e787b3          	add	a5,a5,a4
   23c18:	00f807b3          	add	a5,a6,a5
   23c1c:	00050813          	mv	a6,a0
   23c20:	01f8d713          	srli	a4,a7,0x1f
   23c24:	0016d693          	srli	a3,a3,0x1
   23c28:	00eee733          	or	a4,t4,a4
   23c2c:	00189893          	slli	a7,a7,0x1
   23c30:	fc0698e3          	bnez	a3,23c00 <__muldi3+0x24>
   23c34:	00058863          	beqz	a1,23c44 <__muldi3+0x68>
   23c38:	00060513          	mv	a0,a2
   23c3c:	e4cef0ef          	jal	ra,13288 <__mulsi3>
   23c40:	00a787b3          	add	a5,a5,a0
   23c44:	00030a63          	beqz	t1,23c58 <__muldi3+0x7c>
   23c48:	000e0513          	mv	a0,t3
   23c4c:	00030593          	mv	a1,t1
   23c50:	e38ef0ef          	jal	ra,13288 <__mulsi3>
   23c54:	00f507b3          	add	a5,a0,a5
   23c58:	00c12083          	lw	ra,12(sp)
   23c5c:	00080513          	mv	a0,a6
   23c60:	00078593          	mv	a1,a5
   23c64:	01010113          	addi	sp,sp,16
   23c68:	00008067          	ret
