
coremark.rvexe:     file format elf32-littleriscv


Disassembly of section .text:

00010074 <main>:
   10074:	81010113          	addi	sp,sp,-2032
   10078:	00001737          	lui	a4,0x1
   1007c:	7e112623          	sw	ra,2028(sp)
   10080:	7e812423          	sw	s0,2024(sp)
   10084:	7e912223          	sw	s1,2020(sp)
   10088:	7f212023          	sw	s2,2016(sp)
   1008c:	7d312e23          	sw	s3,2012(sp)
   10090:	7d412c23          	sw	s4,2008(sp)
   10094:	7d512a23          	sw	s5,2004(sp)
   10098:	7d612823          	sw	s6,2000(sp)
   1009c:	7d712623          	sw	s7,1996(sp)
   100a0:	7d812423          	sw	s8,1992(sp)
   100a4:	7d912223          	sw	s9,1988(sp)
   100a8:	7da12023          	sw	s10,1984(sp)
   100ac:	7bb12e23          	sw	s11,1980(sp)
   100b0:	fffff7b7          	lui	a5,0xfffff
   100b4:	f8010113          	addi	sp,sp,-128
   100b8:	83070713          	addi	a4,a4,-2000 # 830 <main-0xf844>
   100bc:	7dc78793          	addi	a5,a5,2012 # fffff7dc <__global_pointer$+0xfffd956c>
   100c0:	00270733          	add	a4,a4,sp
   100c4:	00058613          	mv	a2,a1
   100c8:	00a12623          	sw	a0,12(sp)
   100cc:	00f705b3          	add	a1,a4,a5
   100d0:	05e10513          	addi	a0,sp,94
   100d4:	6fc020ef          	jal	ra,127d0 <portable_init>
   100d8:	00100513          	li	a0,1
   100dc:	52c020ef          	jal	ra,12608 <get_seed_32>
   100e0:	00a11e23          	sh	a0,28(sp)
   100e4:	00200513          	li	a0,2
   100e8:	520020ef          	jal	ra,12608 <get_seed_32>
   100ec:	00a11f23          	sh	a0,30(sp)
   100f0:	00300513          	li	a0,3
   100f4:	514020ef          	jal	ra,12608 <get_seed_32>
   100f8:	02a11023          	sh	a0,32(sp)
   100fc:	00400513          	li	a0,4
   10100:	508020ef          	jal	ra,12608 <get_seed_32>
   10104:	02a12c23          	sw	a0,56(sp)
   10108:	00500513          	li	a0,5
   1010c:	4fc020ef          	jal	ra,12608 <get_seed_32>
   10110:	7a050263          	beqz	a0,108b4 <main+0x840>
   10114:	02a12e23          	sw	a0,60(sp)
   10118:	00001737          	lui	a4,0x1
   1011c:	83070713          	addi	a4,a4,-2000 # 830 <main-0xf844>
   10120:	fffff7b7          	lui	a5,0xfffff
   10124:	00270733          	add	a4,a4,sp
   10128:	00f707b3          	add	a5,a4,a5
   1012c:	00f12423          	sw	a5,8(sp)
   10130:	7ec7a783          	lw	a5,2028(a5) # fffff7ec <__global_pointer$+0xfffd957c>
   10134:	00079ce3          	bnez	a5,1094c <main+0x8d8>
   10138:	00812783          	lw	a5,8(sp)
   1013c:	7f079783          	lh	a5,2032(a5)
   10140:	7e078e63          	beqz	a5,1093c <main+0x8c8>
   10144:	000016b7          	lui	a3,0x1
   10148:	83068693          	addi	a3,a3,-2000 # 830 <main-0xf844>
   1014c:	002686b3          	add	a3,a3,sp
   10150:	fffff7b7          	lui	a5,0xfffff
   10154:	00f687b3          	add	a5,a3,a5
   10158:	03c12403          	lw	s0,60(sp)
   1015c:	00f12423          	sw	a5,8(sp)
   10160:	00812683          	lw	a3,8(sp)
   10164:	06010793          	addi	a5,sp,96
   10168:	00247493          	andi	s1,s0,2
   1016c:	00147913          	andi	s2,s0,1
   10170:	00903733          	snez	a4,s1
   10174:	7ef6aa23          	sw	a5,2036(a3)
   10178:	04011e23          	sh	zero,92(sp)
   1017c:	00447793          	andi	a5,s0,4
   10180:	00e905b3          	add	a1,s2,a4
   10184:	00078863          	beqz	a5,10194 <main+0x120>
   10188:	00158593          	addi	a1,a1,1
   1018c:	01059593          	slli	a1,a1,0x10
   10190:	0105d593          	srli	a1,a1,0x10
   10194:	7d000513          	li	a0,2000
   10198:	11c030ef          	jal	ra,132b4 <__udivsi3>
   1019c:	00001637          	lui	a2,0x1
   101a0:	fffff7b7          	lui	a5,0xfffff
   101a4:	83060693          	addi	a3,a2,-2000 # 830 <main-0xf844>
   101a8:	002686b3          	add	a3,a3,sp
   101ac:	7ec78713          	addi	a4,a5,2028 # fffff7ec <__global_pointer$+0xfffd957c>
   101b0:	00050a93          	mv	s5,a0
   101b4:	02a12a23          	sw	a0,52(sp)
   101b8:	00000993          	li	s3,0
   101bc:	00000b93          	li	s7,0
   101c0:	00100c93          	li	s9,1
   101c4:	00e68b33          	add	s6,a3,a4
   101c8:	00f68a33          	add	s4,a3,a5
   101cc:	00300c13          	li	s8,3
   101d0:	013c97b3          	sll	a5,s9,s3
   101d4:	0087f7b3          	and	a5,a5,s0
   101d8:	6a079663          	bnez	a5,10884 <main+0x810>
   101dc:	00198993          	addi	s3,s3,1
   101e0:	ff8998e3          	bne	s3,s8,101d0 <main+0x15c>
   101e4:	2c091e63          	bnez	s2,104c0 <main+0x44c>
   101e8:	30049863          	bnez	s1,104f8 <main+0x484>
   101ec:	00447413          	andi	s0,s0,4
   101f0:	02040663          	beqz	s0,1021c <main+0x1a8>
   101f4:	00001737          	lui	a4,0x1
   101f8:	83070713          	addi	a4,a4,-2000 # 830 <main-0xf844>
   101fc:	fffff7b7          	lui	a5,0xfffff
   10200:	00270733          	add	a4,a4,sp
   10204:	00f707b3          	add	a5,a4,a5
   10208:	03012603          	lw	a2,48(sp)
   1020c:	7ec79583          	lh	a1,2028(a5) # fffff7ec <__global_pointer$+0xfffd957c>
   10210:	03412503          	lw	a0,52(sp)
   10214:	00f12423          	sw	a5,8(sp)
   10218:	5d5010ef          	jal	ra,11fec <core_init_state>
   1021c:	03812783          	lw	a5,56(sp)
   10220:	0a079263          	bnez	a5,102c4 <main+0x250>
   10224:	000267b7          	lui	a5,0x26
   10228:	a707a903          	lw	s2,-1424(a5) # 25a70 <__TMC_END__+0x4>
   1022c:	a747a983          	lw	s3,-1420(a5)
   10230:	00100793          	li	a5,1
   10234:	02f12c23          	sw	a5,56(sp)
   10238:	000017b7          	lui	a5,0x1
   1023c:	fffff437          	lui	s0,0xfffff
   10240:	83078793          	addi	a5,a5,-2000 # 830 <main-0xf844>
   10244:	7ec40413          	addi	s0,s0,2028 # fffff7ec <__global_pointer$+0xfffd957c>
   10248:	002787b3          	add	a5,a5,sp
   1024c:	00878433          	add	s0,a5,s0
   10250:	03812703          	lw	a4,56(sp)
   10254:	00271793          	slli	a5,a4,0x2
   10258:	00e787b3          	add	a5,a5,a4
   1025c:	00179793          	slli	a5,a5,0x1
   10260:	02f12c23          	sw	a5,56(sp)
   10264:	4fc020ef          	jal	ra,12760 <start_time>
   10268:	00040513          	mv	a0,s0
   1026c:	1dc010ef          	jal	ra,11448 <iterate>
   10270:	50c020ef          	jal	ra,1277c <stop_time>
   10274:	524020ef          	jal	ra,12798 <get_time>
   10278:	530020ef          	jal	ra,127a8 <time_in_secs>
   1027c:	00090613          	mv	a2,s2
   10280:	00098693          	mv	a3,s3
   10284:	00050a13          	mv	s4,a0
   10288:	00058a93          	mv	s5,a1
   1028c:	611020ef          	jal	ra,1309c <__ledf2>
   10290:	fc0540e3          	bltz	a0,10250 <main+0x1dc>
   10294:	000a8593          	mv	a1,s5
   10298:	000a0513          	mv	a0,s4
   1029c:	6e9020ef          	jal	ra,13184 <__fixunsdfsi>
   102a0:	00050593          	mv	a1,a0
   102a4:	00051463          	bnez	a0,102ac <main+0x238>
   102a8:	00100593          	li	a1,1
   102ac:	00a00513          	li	a0,10
   102b0:	004030ef          	jal	ra,132b4 <__udivsi3>
   102b4:	03812583          	lw	a1,56(sp)
   102b8:	00150513          	addi	a0,a0,1
   102bc:	7cd020ef          	jal	ra,13288 <__mulsi3>
   102c0:	02a12c23          	sw	a0,56(sp)
   102c4:	49c020ef          	jal	ra,12760 <start_time>
   102c8:	000014b7          	lui	s1,0x1
   102cc:	fffff437          	lui	s0,0xfffff
   102d0:	83048793          	addi	a5,s1,-2000 # 830 <main-0xf844>
   102d4:	002787b3          	add	a5,a5,sp
   102d8:	7ec40513          	addi	a0,s0,2028 # fffff7ec <__global_pointer$+0xfffd957c>
   102dc:	00a78533          	add	a0,a5,a0
   102e0:	168010ef          	jal	ra,11448 <iterate>
   102e4:	498020ef          	jal	ra,1277c <stop_time>
   102e8:	4b0020ef          	jal	ra,12798 <get_time>
   102ec:	83048793          	addi	a5,s1,-2000
   102f0:	002787b3          	add	a5,a5,sp
   102f4:	008787b3          	add	a5,a5,s0
   102f8:	00050a13          	mv	s4,a0
   102fc:	7ec79503          	lh	a0,2028(a5)
   10300:	00000593          	li	a1,0
   10304:	00f12423          	sw	a5,8(sp)
   10308:	444020ef          	jal	ra,1274c <crc16>
   1030c:	00812783          	lw	a5,8(sp)
   10310:	00050593          	mv	a1,a0
   10314:	7ee79503          	lh	a0,2030(a5)
   10318:	434020ef          	jal	ra,1274c <crc16>
   1031c:	00812783          	lw	a5,8(sp)
   10320:	00050593          	mv	a1,a0
   10324:	7f079503          	lh	a0,2032(a5)
   10328:	424020ef          	jal	ra,1274c <crc16>
   1032c:	00050593          	mv	a1,a0
   10330:	03411503          	lh	a0,52(sp)
   10334:	418020ef          	jal	ra,1274c <crc16>
   10338:	000087b7          	lui	a5,0x8
   1033c:	b0578793          	addi	a5,a5,-1275 # 7b05 <main-0x856f>
   10340:	00050493          	mv	s1,a0
   10344:	74f50063          	beq	a0,a5,10a84 <main+0xa10>
   10348:	1ea7fa63          	bleu	a0,a5,1053c <main+0x4c8>
   1034c:	000097b7          	lui	a5,0x9
   10350:	a0278793          	addi	a5,a5,-1534 # 8a02 <main-0x7672>
   10354:	74f50263          	beq	a0,a5,10a98 <main+0xa24>
   10358:	0000f7b7          	lui	a5,0xf
   1035c:	9f578793          	addi	a5,a5,-1547 # e9f5 <main-0x167f>
   10360:	22f51663          	bne	a0,a5,1058c <main+0x518>
   10364:	00024537          	lui	a0,0x24
   10368:	d1c50513          	addi	a0,a0,-740 # 23d1c <state_known_crc+0x94>
   1036c:	4b4030ef          	jal	ra,13820 <puts>
   10370:	00300a93          	li	s5,3
   10374:	8281a783          	lw	a5,-2008(gp) # 25a98 <default_num_contexts>
   10378:	00000c93          	li	s9,0
   1037c:	00000b93          	li	s7,0
   10380:	72078663          	beqz	a5,10aac <main+0xa38>
   10384:	000016b7          	lui	a3,0x1
   10388:	83068693          	addi	a3,a3,-2000 # 830 <main-0xf844>
   1038c:	000247b7          	lui	a5,0x24
   10390:	fffff737          	lui	a4,0xfffff
   10394:	002686b3          	add	a3,a3,sp
   10398:	001a9c13          	slli	s8,s5,0x1
   1039c:	00e68733          	add	a4,a3,a4
   103a0:	c7078793          	addi	a5,a5,-912 # 23c70 <list_known_crc>
   103a4:	00e12423          	sw	a4,8(sp)
   103a8:	01878c33          	add	s8,a5,s8
   103ac:	00024b37          	lui	s6,0x24
   103b0:	000249b7          	lui	s3,0x24
   103b4:	00024937          	lui	s2,0x24
   103b8:	0380006f          	j	103f0 <main+0x37c>
   103bc:	00001737          	lui	a4,0x1
   103c0:	00f707b3          	add	a5,a4,a5
   103c4:	82c7d403          	lhu	s0,-2004(a5)
   103c8:	01940433          	add	s0,s0,s9
   103cc:	001b8b93          	addi	s7,s7,1
   103d0:	01041413          	slli	s0,s0,0x10
   103d4:	8281a783          	lw	a5,-2008(gp) # 25a98 <default_num_contexts>
   103d8:	01045413          	srli	s0,s0,0x10
   103dc:	010b9b93          	slli	s7,s7,0x10
   103e0:	01041c93          	slli	s9,s0,0x10
   103e4:	010bdb93          	srli	s7,s7,0x10
   103e8:	410cdc93          	srai	s9,s9,0x10
   103ec:	1afbf663          	bleu	a5,s7,10598 <main+0x524>
   103f0:	00812783          	lw	a5,8(sp)
   103f4:	004b9d93          	slli	s11,s7,0x4
   103f8:	017d8733          	add	a4,s11,s7
   103fc:	00271713          	slli	a4,a4,0x2
   10400:	00e78733          	add	a4,a5,a4
   10404:	00001437          	lui	s0,0x1
   10408:	00e40433          	add	s0,s0,a4
   1040c:	80c42783          	lw	a5,-2036(s0) # 80c <main-0xf868>
   10410:	82041623          	sh	zero,-2004(s0)
   10414:	0017f793          	andi	a5,a5,1
   10418:	02078463          	beqz	a5,10440 <main+0x3cc>
   1041c:	82645603          	lhu	a2,-2010(s0)
   10420:	000c5683          	lhu	a3,0(s8)
   10424:	00d60e63          	beq	a2,a3,10440 <main+0x3cc>
   10428:	000b8593          	mv	a1,s7
   1042c:	d74b0513          	addi	a0,s6,-652 # 23d74 <state_known_crc+0xec>
   10430:	224030ef          	jal	ra,13654 <printf>
   10434:	82c45783          	lhu	a5,-2004(s0)
   10438:	00178793          	addi	a5,a5,1
   1043c:	82f41623          	sh	a5,-2004(s0)
   10440:	00812783          	lw	a5,8(sp)
   10444:	017d8733          	add	a4,s11,s7
   10448:	00271713          	slli	a4,a4,0x2
   1044c:	00e78733          	add	a4,a5,a4
   10450:	00001437          	lui	s0,0x1
   10454:	00e40433          	add	s0,s0,a4
   10458:	80c42583          	lw	a1,-2036(s0) # 80c <main-0xf868>
   1045c:	0025f793          	andi	a5,a1,2
   10460:	02078663          	beqz	a5,1048c <main+0x418>
   10464:	82845603          	lhu	a2,-2008(s0)
   10468:	00cc5683          	lhu	a3,12(s8)
   1046c:	02d60063          	beq	a2,a3,1048c <main+0x418>
   10470:	000b8593          	mv	a1,s7
   10474:	da498513          	addi	a0,s3,-604 # 23da4 <state_known_crc+0x11c>
   10478:	1dc030ef          	jal	ra,13654 <printf>
   1047c:	82c45783          	lhu	a5,-2004(s0)
   10480:	80c42583          	lw	a1,-2036(s0)
   10484:	00178793          	addi	a5,a5,1
   10488:	82f41623          	sh	a5,-2004(s0)
   1048c:	00812703          	lw	a4,8(sp)
   10490:	017d87b3          	add	a5,s11,s7
   10494:	00279793          	slli	a5,a5,0x2
   10498:	0045f593          	andi	a1,a1,4
   1049c:	00f707b3          	add	a5,a4,a5
   104a0:	f0058ee3          	beqz	a1,103bc <main+0x348>
   104a4:	00001db7          	lui	s11,0x1
   104a8:	00fd8db3          	add	s11,s11,a5
   104ac:	82add603          	lhu	a2,-2006(s11) # 82a <main-0xf84a>
   104b0:	018c5683          	lhu	a3,24(s8)
   104b4:	0ad61a63          	bne	a2,a3,10568 <main+0x4f4>
   104b8:	82cdd403          	lhu	s0,-2004(s11)
   104bc:	f0dff06f          	j	103c8 <main+0x354>
   104c0:	00001737          	lui	a4,0x1
   104c4:	83070713          	addi	a4,a4,-2000 # 830 <main-0xf844>
   104c8:	00270733          	add	a4,a4,sp
   104cc:	fffff7b7          	lui	a5,0xfffff
   104d0:	00f707b3          	add	a5,a4,a5
   104d4:	7ec79603          	lh	a2,2028(a5) # fffff7ec <__global_pointer$+0xfffd957c>
   104d8:	7f87a583          	lw	a1,2040(a5)
   104dc:	000a8513          	mv	a0,s5
   104e0:	00f12423          	sw	a5,8(sp)
   104e4:	5c5000ef          	jal	ra,112a8 <core_list_init>
   104e8:	03c12403          	lw	s0,60(sp)
   104ec:	04a12023          	sw	a0,64(sp)
   104f0:	00247493          	andi	s1,s0,2
   104f4:	ce048ce3          	beqz	s1,101ec <main+0x178>
   104f8:	00001737          	lui	a4,0x1
   104fc:	83070713          	addi	a4,a4,-2000 # 830 <main-0xf844>
   10500:	00270733          	add	a4,a4,sp
   10504:	fffff7b7          	lui	a5,0xfffff
   10508:	00f707b3          	add	a5,a4,a5
   1050c:	00f12423          	sw	a5,8(sp)
   10510:	00812703          	lw	a4,8(sp)
   10514:	7ee79783          	lh	a5,2030(a5) # fffff7ee <__global_pointer$+0xfffd957e>
   10518:	03412503          	lw	a0,52(sp)
   1051c:	7ec71603          	lh	a2,2028(a4)
   10520:	7fc72583          	lw	a1,2044(a4)
   10524:	01079793          	slli	a5,a5,0x10
   10528:	04410693          	addi	a3,sp,68
   1052c:	00c7e633          	or	a2,a5,a2
   10530:	7a1000ef          	jal	ra,114d0 <core_init_matrix>
   10534:	03c12403          	lw	s0,60(sp)
   10538:	cb5ff06f          	j	101ec <main+0x178>
   1053c:	000027b7          	lui	a5,0x2
   10540:	8f278793          	addi	a5,a5,-1806 # 18f2 <main-0xe782>
   10544:	52f50663          	beq	a0,a5,10a70 <main+0x9fc>
   10548:	000057b7          	lui	a5,0x5
   1054c:	eaf78793          	addi	a5,a5,-337 # 4eaf <main-0xb1c5>
   10550:	02f51e63          	bne	a0,a5,1058c <main+0x518>
   10554:	00024537          	lui	a0,0x24
   10558:	cec50513          	addi	a0,a0,-788 # 23cec <state_known_crc+0x64>
   1055c:	2c4030ef          	jal	ra,13820 <puts>
   10560:	00200a93          	li	s5,2
   10564:	e11ff06f          	j	10374 <main+0x300>
   10568:	000b8593          	mv	a1,s7
   1056c:	dd890513          	addi	a0,s2,-552 # 23dd8 <state_known_crc+0x150>
   10570:	0e4030ef          	jal	ra,13654 <printf>
   10574:	82cdd783          	lhu	a5,-2004(s11)
   10578:	00178793          	addi	a5,a5,1
   1057c:	01079413          	slli	s0,a5,0x10
   10580:	01045413          	srli	s0,s0,0x10
   10584:	828d9623          	sh	s0,-2004(s11)
   10588:	e41ff06f          	j	103c8 <main+0x354>
   1058c:	00010437          	lui	s0,0x10
   10590:	fff40413          	addi	s0,s0,-1 # ffff <main-0x75>
   10594:	fff00a93          	li	s5,-1
   10598:	1c0020ef          	jal	ra,12758 <check_data_types>
   1059c:	03412583          	lw	a1,52(sp)
   105a0:	00a40433          	add	s0,s0,a0
   105a4:	00024537          	lui	a0,0x24
   105a8:	e0850513          	addi	a0,a0,-504 # 23e08 <state_known_crc+0x180>
   105ac:	0a8030ef          	jal	ra,13654 <printf>
   105b0:	00024537          	lui	a0,0x24
   105b4:	000a0593          	mv	a1,s4
   105b8:	e2050513          	addi	a0,a0,-480 # 23e20 <state_known_crc+0x198>
   105bc:	098030ef          	jal	ra,13654 <printf>
   105c0:	000a0513          	mv	a0,s4
   105c4:	1e4020ef          	jal	ra,127a8 <time_in_secs>
   105c8:	00050613          	mv	a2,a0
   105cc:	00024537          	lui	a0,0x24
   105d0:	00058693          	mv	a3,a1
   105d4:	e3850513          	addi	a0,a0,-456 # 23e38 <state_known_crc+0x1b0>
   105d8:	07c030ef          	jal	ra,13654 <printf>
   105dc:	000a0513          	mv	a0,s4
   105e0:	1c8020ef          	jal	ra,127a8 <time_in_secs>
   105e4:	01041413          	slli	s0,s0,0x10
   105e8:	00000613          	li	a2,0
   105ec:	00000693          	li	a3,0
   105f0:	01045413          	srli	s0,s0,0x10
   105f4:	1c1020ef          	jal	ra,12fb4 <__gedf2>
   105f8:	04a05663          	blez	a0,10644 <main+0x5d0>
   105fc:	8281a583          	lw	a1,-2008(gp) # 25a98 <default_num_contexts>
   10600:	03812503          	lw	a0,56(sp)
   10604:	485020ef          	jal	ra,13288 <__mulsi3>
   10608:	3f9020ef          	jal	ra,13200 <__floatunsidf>
   1060c:	00050913          	mv	s2,a0
   10610:	000a0513          	mv	a0,s4
   10614:	00058993          	mv	s3,a1
   10618:	190020ef          	jal	ra,127a8 <time_in_secs>
   1061c:	00050613          	mv	a2,a0
   10620:	00058693          	mv	a3,a1
   10624:	00090513          	mv	a0,s2
   10628:	00098593          	mv	a1,s3
   1062c:	1b8020ef          	jal	ra,127e4 <__divdf3>
   10630:	00050613          	mv	a2,a0
   10634:	00024537          	lui	a0,0x24
   10638:	00058693          	mv	a3,a1
   1063c:	e5050513          	addi	a0,a0,-432 # 23e50 <state_known_crc+0x1c8>
   10640:	014030ef          	jal	ra,13654 <printf>
   10644:	000a0513          	mv	a0,s4
   10648:	160020ef          	jal	ra,127a8 <time_in_secs>
   1064c:	000267b7          	lui	a5,0x26
   10650:	a787a603          	lw	a2,-1416(a5) # 25a78 <__TMC_END__+0xc>
   10654:	a7c7a683          	lw	a3,-1412(a5)
   10658:	245020ef          	jal	ra,1309c <__ledf2>
   1065c:	3e054a63          	bltz	a0,10a50 <main+0x9dc>
   10660:	8281a583          	lw	a1,-2008(gp) # 25a98 <default_num_contexts>
   10664:	03812503          	lw	a0,56(sp)
   10668:	00024b37          	lui	s6,0x24
   1066c:	00024bb7          	lui	s7,0x24
   10670:	419020ef          	jal	ra,13288 <__mulsi3>
   10674:	00050593          	mv	a1,a0
   10678:	00024537          	lui	a0,0x24
   1067c:	ea850513          	addi	a0,a0,-344 # 23ea8 <state_known_crc+0x220>
   10680:	7d5020ef          	jal	ra,13654 <printf>
   10684:	00024537          	lui	a0,0x24
   10688:	ec0b0593          	addi	a1,s6,-320 # 23ec0 <state_known_crc+0x238>
   1068c:	ecc50513          	addi	a0,a0,-308 # 23ecc <state_known_crc+0x244>
   10690:	7c5020ef          	jal	ra,13654 <printf>
   10694:	00024537          	lui	a0,0x24
   10698:	ee4b8593          	addi	a1,s7,-284 # 23ee4 <state_known_crc+0x25c>
   1069c:	f0050513          	addi	a0,a0,-256 # 23f00 <state_known_crc+0x278>
   106a0:	7b5020ef          	jal	ra,13654 <printf>
   106a4:	00024c37          	lui	s8,0x24
   106a8:	00024537          	lui	a0,0x24
   106ac:	f18c0593          	addi	a1,s8,-232 # 23f18 <state_known_crc+0x290>
   106b0:	f2050513          	addi	a0,a0,-224 # 23f20 <state_known_crc+0x298>
   106b4:	7a1020ef          	jal	ra,13654 <printf>
   106b8:	00024537          	lui	a0,0x24
   106bc:	00048593          	mv	a1,s1
   106c0:	f3850513          	addi	a0,a0,-200 # 23f38 <state_known_crc+0x2b0>
   106c4:	791020ef          	jal	ra,13654 <printf>
   106c8:	03c12783          	lw	a5,60(sp)
   106cc:	01041413          	slli	s0,s0,0x10
   106d0:	41045413          	srai	s0,s0,0x10
   106d4:	0017f713          	andi	a4,a5,1
   106d8:	06070863          	beqz	a4,10748 <main+0x6d4>
   106dc:	8281a703          	lw	a4,-2008(gp) # 25a98 <default_num_contexts>
   106e0:	06070463          	beqz	a4,10748 <main+0x6d4>
   106e4:	00001737          	lui	a4,0x1
   106e8:	83070713          	addi	a4,a4,-2000 # 830 <main-0xf844>
   106ec:	fffff7b7          	lui	a5,0xfffff
   106f0:	00270733          	add	a4,a4,sp
   106f4:	00f707b3          	add	a5,a4,a5
   106f8:	00000993          	li	s3,0
   106fc:	00024937          	lui	s2,0x24
   10700:	00f12423          	sw	a5,8(sp)
   10704:	000014b7          	lui	s1,0x1
   10708:	00499793          	slli	a5,s3,0x4
   1070c:	00812703          	lw	a4,8(sp)
   10710:	013787b3          	add	a5,a5,s3
   10714:	00279793          	slli	a5,a5,0x2
   10718:	00f707b3          	add	a5,a4,a5
   1071c:	00f487b3          	add	a5,s1,a5
   10720:	8267d603          	lhu	a2,-2010(a5) # ffffe826 <__global_pointer$+0xfffd85b6>
   10724:	00098593          	mv	a1,s3
   10728:	f5490513          	addi	a0,s2,-172 # 23f54 <state_known_crc+0x2cc>
   1072c:	729020ef          	jal	ra,13654 <printf>
   10730:	00198993          	addi	s3,s3,1
   10734:	8281a783          	lw	a5,-2008(gp) # 25a98 <default_num_contexts>
   10738:	01099993          	slli	s3,s3,0x10
   1073c:	0109d993          	srli	s3,s3,0x10
   10740:	fcf9e4e3          	bltu	s3,a5,10708 <main+0x694>
   10744:	03c12783          	lw	a5,60(sp)
   10748:	0027f713          	andi	a4,a5,2
   1074c:	06070863          	beqz	a4,107bc <main+0x748>
   10750:	8281a703          	lw	a4,-2008(gp) # 25a98 <default_num_contexts>
   10754:	30070863          	beqz	a4,10a64 <main+0x9f0>
   10758:	00001737          	lui	a4,0x1
   1075c:	83070713          	addi	a4,a4,-2000 # 830 <main-0xf844>
   10760:	fffff7b7          	lui	a5,0xfffff
   10764:	00270733          	add	a4,a4,sp
   10768:	00f707b3          	add	a5,a4,a5
   1076c:	00000993          	li	s3,0
   10770:	00024937          	lui	s2,0x24
   10774:	00f12423          	sw	a5,8(sp)
   10778:	000014b7          	lui	s1,0x1
   1077c:	00499793          	slli	a5,s3,0x4
   10780:	00812703          	lw	a4,8(sp)
   10784:	013787b3          	add	a5,a5,s3
   10788:	00279793          	slli	a5,a5,0x2
   1078c:	00f707b3          	add	a5,a4,a5
   10790:	00f487b3          	add	a5,s1,a5
   10794:	8287d603          	lhu	a2,-2008(a5) # ffffe828 <__global_pointer$+0xfffd85b8>
   10798:	00098593          	mv	a1,s3
   1079c:	f7090513          	addi	a0,s2,-144 # 23f70 <state_known_crc+0x2e8>
   107a0:	6b5020ef          	jal	ra,13654 <printf>
   107a4:	00198993          	addi	s3,s3,1
   107a8:	8281a783          	lw	a5,-2008(gp) # 25a98 <default_num_contexts>
   107ac:	01099993          	slli	s3,s3,0x10
   107b0:	0109d993          	srli	s3,s3,0x10
   107b4:	fcf9e4e3          	bltu	s3,a5,1077c <main+0x708>
   107b8:	03c12783          	lw	a5,60(sp)
   107bc:	0047f793          	andi	a5,a5,4
   107c0:	10079063          	bnez	a5,108c0 <main+0x84c>
   107c4:	00001737          	lui	a4,0x1
   107c8:	8281a783          	lw	a5,-2008(gp) # 25a98 <default_num_contexts>
   107cc:	83070713          	addi	a4,a4,-2000 # 830 <main-0xf844>
   107d0:	fffff4b7          	lui	s1,0xfffff
   107d4:	00270733          	add	a4,a4,sp
   107d8:	00000c93          	li	s9,0
   107dc:	000249b7          	lui	s3,0x24
   107e0:	009704b3          	add	s1,a4,s1
   107e4:	00001937          	lui	s2,0x1
   107e8:	02078e63          	beqz	a5,10824 <main+0x7b0>
   107ec:	004c9793          	slli	a5,s9,0x4
   107f0:	019787b3          	add	a5,a5,s9
   107f4:	00279793          	slli	a5,a5,0x2
   107f8:	00f487b3          	add	a5,s1,a5
   107fc:	00f907b3          	add	a5,s2,a5
   10800:	8247d603          	lhu	a2,-2012(a5)
   10804:	000c8593          	mv	a1,s9
   10808:	fa898513          	addi	a0,s3,-88 # 23fa8 <state_known_crc+0x320>
   1080c:	649020ef          	jal	ra,13654 <printf>
   10810:	001c8c93          	addi	s9,s9,1
   10814:	8281a783          	lw	a5,-2008(gp) # 25a98 <default_num_contexts>
   10818:	010c9c93          	slli	s9,s9,0x10
   1081c:	010cdc93          	srli	s9,s9,0x10
   10820:	fcfce6e3          	bltu	s9,a5,107ec <main+0x778>
   10824:	14040c63          	beqz	s0,1097c <main+0x908>
   10828:	10805263          	blez	s0,1092c <main+0x8b8>
   1082c:	00024537          	lui	a0,0x24
   10830:	03850513          	addi	a0,a0,56 # 24038 <state_known_crc+0x3b0>
   10834:	7ed020ef          	jal	ra,13820 <puts>
   10838:	05e10513          	addi	a0,sp,94
   1083c:	7a1010ef          	jal	ra,127dc <portable_fini>
   10840:	08010113          	addi	sp,sp,128
   10844:	7ec12083          	lw	ra,2028(sp)
   10848:	00000513          	li	a0,0
   1084c:	7e812403          	lw	s0,2024(sp)
   10850:	7e412483          	lw	s1,2020(sp)
   10854:	7e012903          	lw	s2,2016(sp)
   10858:	7dc12983          	lw	s3,2012(sp)
   1085c:	7d812a03          	lw	s4,2008(sp)
   10860:	7d412a83          	lw	s5,2004(sp)
   10864:	7d012b03          	lw	s6,2000(sp)
   10868:	7cc12b83          	lw	s7,1996(sp)
   1086c:	7c812c03          	lw	s8,1992(sp)
   10870:	7c412c83          	lw	s9,1988(sp)
   10874:	7c012d03          	lw	s10,1984(sp)
   10878:	7bc12d83          	lw	s11,1980(sp)
   1087c:	7f010113          	addi	sp,sp,2032
   10880:	00008067          	ret
   10884:	000b8513          	mv	a0,s7
   10888:	000a8593          	mv	a1,s5
   1088c:	1fd020ef          	jal	ra,13288 <__mulsi3>
   10890:	7f4a2783          	lw	a5,2036(s4)
   10894:	00299d13          	slli	s10,s3,0x2
   10898:	001b8b93          	addi	s7,s7,1
   1089c:	01ab0d33          	add	s10,s6,s10
   108a0:	010b9b93          	slli	s7,s7,0x10
   108a4:	00a78533          	add	a0,a5,a0
   108a8:	010bdb93          	srli	s7,s7,0x10
   108ac:	00ad2623          	sw	a0,12(s10)
   108b0:	92dff06f          	j	101dc <main+0x168>
   108b4:	00700793          	li	a5,7
   108b8:	02f12e23          	sw	a5,60(sp)
   108bc:	85dff06f          	j	10118 <main+0xa4>
   108c0:	8281a783          	lw	a5,-2008(gp) # 25a98 <default_num_contexts>
   108c4:	f60780e3          	beqz	a5,10824 <main+0x7b0>
   108c8:	00001737          	lui	a4,0x1
   108cc:	83070713          	addi	a4,a4,-2000 # 830 <main-0xf844>
   108d0:	fffff7b7          	lui	a5,0xfffff
   108d4:	00270733          	add	a4,a4,sp
   108d8:	00f707b3          	add	a5,a4,a5
   108dc:	00000993          	li	s3,0
   108e0:	00024937          	lui	s2,0x24
   108e4:	00f12423          	sw	a5,8(sp)
   108e8:	000014b7          	lui	s1,0x1
   108ec:	00499793          	slli	a5,s3,0x4
   108f0:	00812703          	lw	a4,8(sp)
   108f4:	013787b3          	add	a5,a5,s3
   108f8:	00279793          	slli	a5,a5,0x2
   108fc:	00f707b3          	add	a5,a4,a5
   10900:	00f487b3          	add	a5,s1,a5
   10904:	82a7d603          	lhu	a2,-2006(a5) # ffffe82a <__global_pointer$+0xfffd85ba>
   10908:	00098593          	mv	a1,s3
   1090c:	f8c90513          	addi	a0,s2,-116 # 23f8c <state_known_crc+0x304>
   10910:	545020ef          	jal	ra,13654 <printf>
   10914:	00198993          	addi	s3,s3,1
   10918:	8281a783          	lw	a5,-2008(gp) # 25a98 <default_num_contexts>
   1091c:	01099993          	slli	s3,s3,0x10
   10920:	0109d993          	srli	s3,s3,0x10
   10924:	fcf9e4e3          	bltu	s3,a5,108ec <main+0x878>
   10928:	e9dff06f          	j	107c4 <main+0x750>
   1092c:	00024537          	lui	a0,0x24
   10930:	04850513          	addi	a0,a0,72 # 24048 <state_known_crc+0x3c0>
   10934:	6ed020ef          	jal	ra,13820 <puts>
   10938:	f01ff06f          	j	10838 <main+0x7c4>
   1093c:	00812703          	lw	a4,8(sp)
   10940:	06600793          	li	a5,102
   10944:	7ef71823          	sh	a5,2032(a4)
   10948:	ffcff06f          	j	10144 <main+0xd0>
   1094c:	00100713          	li	a4,1
   10950:	fee79a63          	bne	a5,a4,10144 <main+0xd0>
   10954:	00812783          	lw	a5,8(sp)
   10958:	7f079783          	lh	a5,2032(a5)
   1095c:	fe079463          	bnez	a5,10144 <main+0xd0>
   10960:	00812703          	lw	a4,8(sp)
   10964:	341537b7          	lui	a5,0x34153
   10968:	41578793          	addi	a5,a5,1045 # 34153415 <__global_pointer$+0x3412d1a5>
   1096c:	7ef72623          	sw	a5,2028(a4)
   10970:	06600793          	li	a5,102
   10974:	7ef71823          	sh	a5,2032(a4)
   10978:	fccff06f          	j	10144 <main+0xd0>
   1097c:	00024537          	lui	a0,0x24
   10980:	fc450513          	addi	a0,a0,-60 # 23fc4 <state_known_crc+0x33c>
   10984:	69d020ef          	jal	ra,13820 <puts>
   10988:	00300793          	li	a5,3
   1098c:	eafa96e3          	bne	s5,a5,10838 <main+0x7c4>
   10990:	00024437          	lui	s0,0x24
   10994:	00c40513          	addi	a0,s0,12 # 2400c <state_known_crc+0x384>
   10998:	4bd020ef          	jal	ra,13654 <printf>
   1099c:	00c40513          	addi	a0,s0,12
   109a0:	4b5020ef          	jal	ra,13654 <printf>
   109a4:	00c40513          	addi	a0,s0,12
   109a8:	4ad020ef          	jal	ra,13654 <printf>
   109ac:	00c40513          	addi	a0,s0,12
   109b0:	4a5020ef          	jal	ra,13654 <printf>
   109b4:	00c40513          	addi	a0,s0,12
   109b8:	49d020ef          	jal	ra,13654 <printf>
   109bc:	00c40513          	addi	a0,s0,12
   109c0:	495020ef          	jal	ra,13654 <printf>
   109c4:	00c40513          	addi	a0,s0,12
   109c8:	48d020ef          	jal	ra,13654 <printf>
   109cc:	00c40513          	addi	a0,s0,12
   109d0:	485020ef          	jal	ra,13654 <printf>
   109d4:	00c40513          	addi	a0,s0,12
   109d8:	47d020ef          	jal	ra,13654 <printf>
   109dc:	00c40513          	addi	a0,s0,12
   109e0:	475020ef          	jal	ra,13654 <printf>
   109e4:	8281a583          	lw	a1,-2008(gp) # 25a98 <default_num_contexts>
   109e8:	03812503          	lw	a0,56(sp)
   109ec:	09d020ef          	jal	ra,13288 <__mulsi3>
   109f0:	011020ef          	jal	ra,13200 <__floatunsidf>
   109f4:	00050413          	mv	s0,a0
   109f8:	000a0513          	mv	a0,s4
   109fc:	00058493          	mv	s1,a1
   10a00:	5a9010ef          	jal	ra,127a8 <time_in_secs>
   10a04:	00050613          	mv	a2,a0
   10a08:	00058693          	mv	a3,a1
   10a0c:	00040513          	mv	a0,s0
   10a10:	00048593          	mv	a1,s1
   10a14:	5d1010ef          	jal	ra,127e4 <__divdf3>
   10a18:	00050613          	mv	a2,a0
   10a1c:	00024537          	lui	a0,0x24
   10a20:	00058693          	mv	a3,a1
   10a24:	ee4b8793          	addi	a5,s7,-284
   10a28:	ec0b0713          	addi	a4,s6,-320
   10a2c:	01450513          	addi	a0,a0,20 # 24014 <state_known_crc+0x38c>
   10a30:	425020ef          	jal	ra,13654 <printf>
   10a34:	00024537          	lui	a0,0x24
   10a38:	f18c0593          	addi	a1,s8,-232
   10a3c:	03050513          	addi	a0,a0,48 # 24030 <state_known_crc+0x3a8>
   10a40:	415020ef          	jal	ra,13654 <printf>
   10a44:	00a00513          	li	a0,10
   10a48:	461020ef          	jal	ra,136a8 <putchar>
   10a4c:	dedff06f          	j	10838 <main+0x7c4>
   10a50:	00024537          	lui	a0,0x24
   10a54:	e6850513          	addi	a0,a0,-408 # 23e68 <state_known_crc+0x1e0>
   10a58:	5c9020ef          	jal	ra,13820 <puts>
   10a5c:	00140413          	addi	s0,s0,1
   10a60:	c01ff06f          	j	10660 <main+0x5ec>
   10a64:	0047f793          	andi	a5,a5,4
   10a68:	da079ee3          	bnez	a5,10824 <main+0x7b0>
   10a6c:	d59ff06f          	j	107c4 <main+0x750>
   10a70:	00024537          	lui	a0,0x24
   10a74:	d4850513          	addi	a0,a0,-696 # 23d48 <state_known_crc+0xc0>
   10a78:	5a9020ef          	jal	ra,13820 <puts>
   10a7c:	00400a93          	li	s5,4
   10a80:	8f5ff06f          	j	10374 <main+0x300>
   10a84:	00024537          	lui	a0,0x24
   10a88:	cc050513          	addi	a0,a0,-832 # 23cc0 <state_known_crc+0x38>
   10a8c:	595020ef          	jal	ra,13820 <puts>
   10a90:	00100a93          	li	s5,1
   10a94:	8e1ff06f          	j	10374 <main+0x300>
   10a98:	00024537          	lui	a0,0x24
   10a9c:	c9450513          	addi	a0,a0,-876 # 23c94 <state_known_crc+0xc>
   10aa0:	581020ef          	jal	ra,13820 <puts>
   10aa4:	00000a93          	li	s5,0
   10aa8:	8cdff06f          	j	10374 <main+0x300>
   10aac:	00000413          	li	s0,0
   10ab0:	ae9ff06f          	j	10598 <main+0x524>

00010ab4 <_start>:
   10ab4:	00015197          	auipc	gp,0x15
   10ab8:	7bc18193          	addi	gp,gp,1980 # 26270 <__global_pointer$>
   10abc:	83c18513          	addi	a0,gp,-1988 # 25aac <_edata>
   10ac0:	8c418613          	addi	a2,gp,-1852 # 25b34 <_end>
   10ac4:	40a60633          	sub	a2,a2,a0
   10ac8:	00000593          	li	a1,0
   10acc:	26d020ef          	jal	ra,13538 <memset>
   10ad0:	00003517          	auipc	a0,0x3
   10ad4:	96450513          	addi	a0,a0,-1692 # 13434 <__libc_fini_array>
   10ad8:	0d5020ef          	jal	ra,133ac <atexit>
   10adc:	1b5020ef          	jal	ra,13490 <__libc_init_array>
   10ae0:	00012503          	lw	a0,0(sp)
   10ae4:	00410593          	addi	a1,sp,4
   10ae8:	00000613          	li	a2,0
   10aec:	d88ff0ef          	jal	ra,10074 <main>
   10af0:	1150206f          	j	13404 <exit>

00010af4 <_fini>:
   10af4:	00008067          	ret

00010af8 <deregister_tm_clones>:
   10af8:	00026537          	lui	a0,0x26
   10afc:	000267b7          	lui	a5,0x26
   10b00:	a6c50713          	addi	a4,a0,-1428 # 25a6c <__TMC_END__>
   10b04:	a6c78793          	addi	a5,a5,-1428 # 25a6c <__TMC_END__>
   10b08:	00e78c63          	beq	a5,a4,10b20 <deregister_tm_clones+0x28>
   10b0c:	00000337          	lui	t1,0x0
   10b10:	00030313          	mv	t1,t1
   10b14:	00030663          	beqz	t1,10b20 <deregister_tm_clones+0x28>
   10b18:	a6c50513          	addi	a0,a0,-1428
   10b1c:	00030067          	jr	t1 # 0 <main-0x10074>
   10b20:	00008067          	ret

00010b24 <register_tm_clones>:
   10b24:	000267b7          	lui	a5,0x26
   10b28:	00026537          	lui	a0,0x26
   10b2c:	a6c78593          	addi	a1,a5,-1428 # 25a6c <__TMC_END__>
   10b30:	a6c50793          	addi	a5,a0,-1428 # 25a6c <__TMC_END__>
   10b34:	40f585b3          	sub	a1,a1,a5
   10b38:	4025d593          	srai	a1,a1,0x2
   10b3c:	01f5d793          	srli	a5,a1,0x1f
   10b40:	00b785b3          	add	a1,a5,a1
   10b44:	4015d593          	srai	a1,a1,0x1
   10b48:	00058c63          	beqz	a1,10b60 <register_tm_clones+0x3c>
   10b4c:	00000337          	lui	t1,0x0
   10b50:	00030313          	mv	t1,t1
   10b54:	00030663          	beqz	t1,10b60 <register_tm_clones+0x3c>
   10b58:	a6c50513          	addi	a0,a0,-1428
   10b5c:	00030067          	jr	t1 # 0 <main-0x10074>
   10b60:	00008067          	ret

00010b64 <__do_global_dtors_aux>:
   10b64:	8681c703          	lbu	a4,-1944(gp) # 25ad8 <completed.5430>
   10b68:	04071663          	bnez	a4,10bb4 <__do_global_dtors_aux+0x50>
   10b6c:	ff010113          	addi	sp,sp,-16
   10b70:	00812423          	sw	s0,8(sp)
   10b74:	00112623          	sw	ra,12(sp)
   10b78:	00078413          	mv	s0,a5
   10b7c:	f7dff0ef          	jal	ra,10af8 <deregister_tm_clones>
   10b80:	000007b7          	lui	a5,0x0
   10b84:	00078793          	mv	a5,a5
   10b88:	00078a63          	beqz	a5,10b9c <__do_global_dtors_aux+0x38>
   10b8c:	00025537          	lui	a0,0x25
   10b90:	00050513          	mv	a0,a0
   10b94:	00000097          	auipc	ra,0x0
   10b98:	000000e7          	jalr	zero # 0 <main-0x10074>
   10b9c:	00100793          	li	a5,1
   10ba0:	86f18423          	sb	a5,-1944(gp) # 25ad8 <completed.5430>
   10ba4:	00c12083          	lw	ra,12(sp)
   10ba8:	00812403          	lw	s0,8(sp)
   10bac:	01010113          	addi	sp,sp,16
   10bb0:	00008067          	ret
   10bb4:	00008067          	ret

00010bb8 <frame_dummy>:
   10bb8:	000007b7          	lui	a5,0x0
   10bbc:	00078793          	mv	a5,a5
   10bc0:	02078463          	beqz	a5,10be8 <frame_dummy+0x30>
   10bc4:	00025537          	lui	a0,0x25
   10bc8:	ff010113          	addi	sp,sp,-16
   10bcc:	86c18593          	addi	a1,gp,-1940 # 25adc <object.5435>
   10bd0:	00050513          	mv	a0,a0
   10bd4:	00112623          	sw	ra,12(sp)
   10bd8:	00000097          	auipc	ra,0x0
   10bdc:	000000e7          	jalr	zero # 0 <main-0x10074>
   10be0:	00c12083          	lw	ra,12(sp)
   10be4:	01010113          	addi	sp,sp,16
   10be8:	f3dff06f          	j	10b24 <register_tm_clones>

00010bec <cmp_idx>:
   10bec:	00060a63          	beqz	a2,10c00 <cmp_idx+0x14>
   10bf0:	00251503          	lh	a0,2(a0) # 25002 <__EH_FRAME_BEGIN__+0x2>
   10bf4:	00259783          	lh	a5,2(a1)
   10bf8:	40f50533          	sub	a0,a0,a5
   10bfc:	00008067          	ret
   10c00:	00051783          	lh	a5,0(a0)
   10c04:	01079713          	slli	a4,a5,0x10
   10c08:	01075713          	srli	a4,a4,0x10
   10c0c:	00875713          	srli	a4,a4,0x8
   10c10:	f007f793          	andi	a5,a5,-256
   10c14:	00e7e7b3          	or	a5,a5,a4
   10c18:	00f51023          	sh	a5,0(a0)
   10c1c:	00059783          	lh	a5,0(a1)
   10c20:	00251503          	lh	a0,2(a0)
   10c24:	01079713          	slli	a4,a5,0x10
   10c28:	01075713          	srli	a4,a4,0x10
   10c2c:	00875713          	srli	a4,a4,0x8
   10c30:	f007f793          	andi	a5,a5,-256
   10c34:	00e7e7b3          	or	a5,a5,a4
   10c38:	00f59023          	sh	a5,0(a1)
   10c3c:	00259783          	lh	a5,2(a1)
   10c40:	40f50533          	sub	a0,a0,a5
   10c44:	00008067          	ret

00010c48 <calc_func>:
   10c48:	fe010113          	addi	sp,sp,-32
   10c4c:	00812c23          	sw	s0,24(sp)
   10c50:	00051403          	lh	s0,0(a0)
   10c54:	01212823          	sw	s2,16(sp)
   10c58:	00112e23          	sw	ra,28(sp)
   10c5c:	40745793          	srai	a5,s0,0x7
   10c60:	00912a23          	sw	s1,20(sp)
   10c64:	01312623          	sw	s3,12(sp)
   10c68:	0017f793          	andi	a5,a5,1
   10c6c:	07f47913          	andi	s2,s0,127
   10c70:	04079e63          	bnez	a5,10ccc <calc_func+0x84>
   10c74:	00058493          	mv	s1,a1
   10c78:	40345593          	srai	a1,s0,0x3
   10c7c:	00f5f593          	andi	a1,a1,15
   10c80:	00459793          	slli	a5,a1,0x4
   10c84:	00747713          	andi	a4,s0,7
   10c88:	00b7e5b3          	or	a1,a5,a1
   10c8c:	00050993          	mv	s3,a0
   10c90:	0384d783          	lhu	a5,56(s1) # 1038 <main-0xf03c>
   10c94:	04070c63          	beqz	a4,10cec <calc_func+0xa4>
   10c98:	00100693          	li	a3,1
   10c9c:	08d70a63          	beq	a4,a3,10d30 <calc_func+0xe8>
   10ca0:	01041513          	slli	a0,s0,0x10
   10ca4:	01055513          	srli	a0,a0,0x10
   10ca8:	00040913          	mv	s2,s0
   10cac:	00078593          	mv	a1,a5
   10cb0:	07f97913          	andi	s2,s2,127
   10cb4:	f0047413          	andi	s0,s0,-256
   10cb8:	1e1010ef          	jal	ra,12698 <crcu16>
   10cbc:	00896433          	or	s0,s2,s0
   10cc0:	02a49c23          	sh	a0,56(s1)
   10cc4:	08046413          	ori	s0,s0,128
   10cc8:	00899023          	sh	s0,0(s3)
   10ccc:	01c12083          	lw	ra,28(sp)
   10cd0:	01812403          	lw	s0,24(sp)
   10cd4:	00090513          	mv	a0,s2
   10cd8:	01412483          	lw	s1,20(sp)
   10cdc:	01012903          	lw	s2,16(sp)
   10ce0:	00c12983          	lw	s3,12(sp)
   10ce4:	02010113          	addi	sp,sp,32
   10ce8:	00008067          	ret
   10cec:	02200693          	li	a3,34
   10cf0:	00058713          	mv	a4,a1
   10cf4:	00d5d463          	ble	a3,a1,10cfc <calc_func+0xb4>
   10cf8:	02200713          	li	a4,34
   10cfc:	00249683          	lh	a3,2(s1)
   10d00:	00049603          	lh	a2,0(s1)
   10d04:	0144a583          	lw	a1,20(s1)
   10d08:	0184a503          	lw	a0,24(s1)
   10d0c:	0ff77713          	andi	a4,a4,255
   10d10:	730010ef          	jal	ra,12440 <core_bench_state>
   10d14:	03e4d783          	lhu	a5,62(s1)
   10d18:	01051913          	slli	s2,a0,0x10
   10d1c:	41095913          	srai	s2,s2,0x10
   10d20:	00079463          	bnez	a5,10d28 <calc_func+0xe0>
   10d24:	02a49f23          	sh	a0,62(s1)
   10d28:	0384d783          	lhu	a5,56(s1)
   10d2c:	f81ff06f          	j	10cac <calc_func+0x64>
   10d30:	00078613          	mv	a2,a5
   10d34:	02848513          	addi	a0,s1,40
   10d38:	278010ef          	jal	ra,11fb0 <core_bench_matrix>
   10d3c:	03c4d783          	lhu	a5,60(s1)
   10d40:	01051913          	slli	s2,a0,0x10
   10d44:	41095913          	srai	s2,s2,0x10
   10d48:	fe0790e3          	bnez	a5,10d28 <calc_func+0xe0>
   10d4c:	0384d783          	lhu	a5,56(s1)
   10d50:	02a49e23          	sh	a0,60(s1)
   10d54:	f59ff06f          	j	10cac <calc_func+0x64>

00010d58 <cmp_complex>:
   10d58:	ff010113          	addi	sp,sp,-16
   10d5c:	01212023          	sw	s2,0(sp)
   10d60:	00058913          	mv	s2,a1
   10d64:	00060593          	mv	a1,a2
   10d68:	00112623          	sw	ra,12(sp)
   10d6c:	00812423          	sw	s0,8(sp)
   10d70:	00912223          	sw	s1,4(sp)
   10d74:	00060413          	mv	s0,a2
   10d78:	ed1ff0ef          	jal	ra,10c48 <calc_func>
   10d7c:	00050493          	mv	s1,a0
   10d80:	00040593          	mv	a1,s0
   10d84:	00090513          	mv	a0,s2
   10d88:	ec1ff0ef          	jal	ra,10c48 <calc_func>
   10d8c:	00c12083          	lw	ra,12(sp)
   10d90:	00812403          	lw	s0,8(sp)
   10d94:	40a48533          	sub	a0,s1,a0
   10d98:	00012903          	lw	s2,0(sp)
   10d9c:	00412483          	lw	s1,4(sp)
   10da0:	01010113          	addi	sp,sp,16
   10da4:	00008067          	ret

00010da8 <copy_info>:
   10da8:	00059703          	lh	a4,0(a1)
   10dac:	00259783          	lh	a5,2(a1)
   10db0:	00e51023          	sh	a4,0(a0)
   10db4:	00f51123          	sh	a5,2(a0)
   10db8:	00008067          	ret

00010dbc <core_list_insert_new>:
   10dbc:	00062803          	lw	a6,0(a2)
   10dc0:	00880893          	addi	a7,a6,8
   10dc4:	04e8f663          	bleu	a4,a7,10e10 <core_list_insert_new+0x54>
   10dc8:	0006a703          	lw	a4,0(a3)
   10dcc:	00470313          	addi	t1,a4,4
   10dd0:	04f37063          	bleu	a5,t1,10e10 <core_list_insert_new+0x54>
   10dd4:	01162023          	sw	a7,0(a2)
   10dd8:	00052783          	lw	a5,0(a0)
   10ddc:	00059883          	lh	a7,0(a1)
   10de0:	00259603          	lh	a2,2(a1)
   10de4:	00f82023          	sw	a5,0(a6)
   10de8:	01052023          	sw	a6,0(a0)
   10dec:	00e82223          	sw	a4,4(a6)
   10df0:	0006a783          	lw	a5,0(a3)
   10df4:	00080513          	mv	a0,a6
   10df8:	00478793          	addi	a5,a5,4 # 4 <main-0x10070>
   10dfc:	00f6a023          	sw	a5,0(a3)
   10e00:	00482783          	lw	a5,4(a6)
   10e04:	01179023          	sh	a7,0(a5)
   10e08:	00c79123          	sh	a2,2(a5)
   10e0c:	00008067          	ret
   10e10:	00000813          	li	a6,0
   10e14:	00080513          	mv	a0,a6
   10e18:	00008067          	ret

00010e1c <core_list_remove>:
   10e1c:	00052783          	lw	a5,0(a0)
   10e20:	00452603          	lw	a2,4(a0)
   10e24:	00050713          	mv	a4,a0
   10e28:	0047a583          	lw	a1,4(a5)
   10e2c:	0007a683          	lw	a3,0(a5)
   10e30:	00078513          	mv	a0,a5
   10e34:	00b72223          	sw	a1,4(a4)
   10e38:	00c7a223          	sw	a2,4(a5)
   10e3c:	00d72023          	sw	a3,0(a4)
   10e40:	0007a023          	sw	zero,0(a5)
   10e44:	00008067          	ret

00010e48 <core_list_undo_remove>:
   10e48:	0045a603          	lw	a2,4(a1)
   10e4c:	00452683          	lw	a3,4(a0)
   10e50:	0005a703          	lw	a4,0(a1)
   10e54:	00c52223          	sw	a2,4(a0)
   10e58:	00d5a223          	sw	a3,4(a1)
   10e5c:	00e52023          	sw	a4,0(a0)
   10e60:	00a5a023          	sw	a0,0(a1)
   10e64:	00008067          	ret

00010e68 <core_list_find>:
   10e68:	00259703          	lh	a4,2(a1)
   10e6c:	02074863          	bltz	a4,10e9c <core_list_find+0x34>
   10e70:	02050463          	beqz	a0,10e98 <core_list_find+0x30>
   10e74:	00452783          	lw	a5,4(a0)
   10e78:	00279783          	lh	a5,2(a5)
   10e7c:	00e79a63          	bne	a5,a4,10e90 <core_list_find+0x28>
   10e80:	0500006f          	j	10ed0 <core_list_find+0x68>
   10e84:	00452783          	lw	a5,4(a0)
   10e88:	00279783          	lh	a5,2(a5)
   10e8c:	00e78663          	beq	a5,a4,10e98 <core_list_find+0x30>
   10e90:	00052503          	lw	a0,0(a0)
   10e94:	fe0518e3          	bnez	a0,10e84 <core_list_find+0x1c>
   10e98:	00008067          	ret
   10e9c:	fe050ee3          	beqz	a0,10e98 <core_list_find+0x30>
   10ea0:	00452783          	lw	a5,4(a0)
   10ea4:	00059703          	lh	a4,0(a1)
   10ea8:	0007c783          	lbu	a5,0(a5)
   10eac:	00e79a63          	bne	a5,a4,10ec0 <core_list_find+0x58>
   10eb0:	0240006f          	j	10ed4 <core_list_find+0x6c>
   10eb4:	00452783          	lw	a5,4(a0)
   10eb8:	0007c783          	lbu	a5,0(a5)
   10ebc:	00e78863          	beq	a5,a4,10ecc <core_list_find+0x64>
   10ec0:	00052503          	lw	a0,0(a0)
   10ec4:	fe0518e3          	bnez	a0,10eb4 <core_list_find+0x4c>
   10ec8:	fd1ff06f          	j	10e98 <core_list_find+0x30>
   10ecc:	00008067          	ret
   10ed0:	00008067          	ret
   10ed4:	00008067          	ret

00010ed8 <core_list_reverse>:
   10ed8:	02050063          	beqz	a0,10ef8 <core_list_reverse+0x20>
   10edc:	00000713          	li	a4,0
   10ee0:	0080006f          	j	10ee8 <core_list_reverse+0x10>
   10ee4:	00078513          	mv	a0,a5
   10ee8:	00052783          	lw	a5,0(a0)
   10eec:	00e52023          	sw	a4,0(a0)
   10ef0:	00050713          	mv	a4,a0
   10ef4:	fe0798e3          	bnez	a5,10ee4 <core_list_reverse+0xc>
   10ef8:	00008067          	ret

00010efc <core_list_mergesort>:
   10efc:	fd010113          	addi	sp,sp,-48
   10f00:	01412c23          	sw	s4,24(sp)
   10f04:	01512a23          	sw	s5,20(sp)
   10f08:	01712623          	sw	s7,12(sp)
   10f0c:	01812423          	sw	s8,8(sp)
   10f10:	01a12023          	sw	s10,0(sp)
   10f14:	02112623          	sw	ra,44(sp)
   10f18:	02812423          	sw	s0,40(sp)
   10f1c:	02912223          	sw	s1,36(sp)
   10f20:	03212023          	sw	s2,32(sp)
   10f24:	01312e23          	sw	s3,28(sp)
   10f28:	01612823          	sw	s6,16(sp)
   10f2c:	01912223          	sw	s9,4(sp)
   10f30:	00050a13          	mv	s4,a0
   10f34:	00058c13          	mv	s8,a1
   10f38:	00060b93          	mv	s7,a2
   10f3c:	00100a93          	li	s5,1
   10f40:	00100d13          	li	s10,1
   10f44:	0a0a0e63          	beqz	s4,11000 <core_list_mergesort+0x104>
   10f48:	00000c93          	li	s9,0
   10f4c:	00000913          	li	s2,0
   10f50:	00000b13          	li	s6,0
   10f54:	001c8c93          	addi	s9,s9,1
   10f58:	000a0413          	mv	s0,s4
   10f5c:	00000493          	li	s1,0
   10f60:	00042403          	lw	s0,0(s0)
   10f64:	00148493          	addi	s1,s1,1
   10f68:	00040463          	beqz	s0,10f70 <core_list_mergesort+0x74>
   10f6c:	fe9a9ae3          	bne	s5,s1,10f60 <core_list_mergesort+0x64>
   10f70:	000a8993          	mv	s3,s5
   10f74:	02048e63          	beqz	s1,10fb0 <core_list_mergesort+0xb4>
   10f78:	04098e63          	beqz	s3,10fd4 <core_list_mergesort+0xd8>
   10f7c:	04040c63          	beqz	s0,10fd4 <core_list_mergesort+0xd8>
   10f80:	00442583          	lw	a1,4(s0)
   10f84:	004a2503          	lw	a0,4(s4)
   10f88:	000b8613          	mv	a2,s7
   10f8c:	000c00e7          	jalr	s8
   10f90:	04a05263          	blez	a0,10fd4 <core_list_mergesort+0xd8>
   10f94:	00040793          	mv	a5,s0
   10f98:	00042403          	lw	s0,0(s0)
   10f9c:	fff98993          	addi	s3,s3,-1
   10fa0:	02090463          	beqz	s2,10fc8 <core_list_mergesort+0xcc>
   10fa4:	00f92023          	sw	a5,0(s2)
   10fa8:	00078913          	mv	s2,a5
   10fac:	fc0496e3          	bnez	s1,10f78 <core_list_mergesort+0x7c>
   10fb0:	02098a63          	beqz	s3,10fe4 <core_list_mergesort+0xe8>
   10fb4:	02040c63          	beqz	s0,10fec <core_list_mergesort+0xf0>
   10fb8:	00040793          	mv	a5,s0
   10fbc:	fff98993          	addi	s3,s3,-1
   10fc0:	00042403          	lw	s0,0(s0)
   10fc4:	fe0910e3          	bnez	s2,10fa4 <core_list_mergesort+0xa8>
   10fc8:	00078b13          	mv	s6,a5
   10fcc:	00078913          	mv	s2,a5
   10fd0:	fddff06f          	j	10fac <core_list_mergesort+0xb0>
   10fd4:	000a0793          	mv	a5,s4
   10fd8:	fff48493          	addi	s1,s1,-1
   10fdc:	000a2a03          	lw	s4,0(s4)
   10fe0:	fc1ff06f          	j	10fa0 <core_list_mergesort+0xa4>
   10fe4:	00040a13          	mv	s4,s0
   10fe8:	f60416e3          	bnez	s0,10f54 <core_list_mergesort+0x58>
   10fec:	00092023          	sw	zero,0(s2)
   10ff0:	01ac8c63          	beq	s9,s10,11008 <core_list_mergesort+0x10c>
   10ff4:	001a9a93          	slli	s5,s5,0x1
   10ff8:	000b0a13          	mv	s4,s6
   10ffc:	f49ff06f          	j	10f44 <core_list_mergesort+0x48>
   11000:	00002023          	sw	zero,0(zero) # 0 <main-0x10074>
   11004:	00100073          	ebreak
   11008:	02c12083          	lw	ra,44(sp)
   1100c:	02812403          	lw	s0,40(sp)
   11010:	000b0513          	mv	a0,s6
   11014:	02412483          	lw	s1,36(sp)
   11018:	02012903          	lw	s2,32(sp)
   1101c:	01c12983          	lw	s3,28(sp)
   11020:	01812a03          	lw	s4,24(sp)
   11024:	01412a83          	lw	s5,20(sp)
   11028:	01012b03          	lw	s6,16(sp)
   1102c:	00c12b83          	lw	s7,12(sp)
   11030:	00812c03          	lw	s8,8(sp)
   11034:	00412c83          	lw	s9,4(sp)
   11038:	00012d03          	lw	s10,0(sp)
   1103c:	03010113          	addi	sp,sp,48
   11040:	00008067          	ret

00011044 <core_bench_list>:
   11044:	fc010113          	addi	sp,sp,-64
   11048:	01812c23          	sw	s8,24(sp)
   1104c:	00451c03          	lh	s8,4(a0)
   11050:	02812c23          	sw	s0,56(sp)
   11054:	03512223          	sw	s5,36(sp)
   11058:	03612023          	sw	s6,32(sp)
   1105c:	02112e23          	sw	ra,60(sp)
   11060:	02912a23          	sw	s1,52(sp)
   11064:	03212823          	sw	s2,48(sp)
   11068:	03312623          	sw	s3,44(sp)
   1106c:	03412423          	sw	s4,40(sp)
   11070:	01712e23          	sw	s7,28(sp)
   11074:	01912a23          	sw	s9,20(sp)
   11078:	00b11723          	sh	a1,14(sp)
   1107c:	00050b13          	mv	s6,a0
   11080:	00058a93          	mv	s5,a1
   11084:	02452403          	lw	s0,36(a0)
   11088:	21805a63          	blez	s8,1129c <core_bench_list+0x258>
   1108c:	00058c93          	mv	s9,a1
   11090:	00000493          	li	s1,0
   11094:	00000b93          	li	s7,0
   11098:	00000993          	li	s3,0
   1109c:	00000913          	li	s2,0
   110a0:	00c10a13          	addi	s4,sp,12
   110a4:	0ff4f793          	andi	a5,s1,255
   110a8:	000a0593          	mv	a1,s4
   110ac:	00040513          	mv	a0,s0
   110b0:	00f11623          	sh	a5,12(sp)
   110b4:	db5ff0ef          	jal	ra,10e68 <core_list_find>
   110b8:	02040063          	beqz	s0,110d8 <core_bench_list+0x94>
   110bc:	00000713          	li	a4,0
   110c0:	0080006f          	j	110c8 <core_bench_list+0x84>
   110c4:	00078413          	mv	s0,a5
   110c8:	00042783          	lw	a5,0(s0)
   110cc:	00e42023          	sw	a4,0(s0)
   110d0:	00040713          	mv	a4,s0
   110d4:	fe0798e3          	bnez	a5,110c4 <core_bench_list+0x80>
   110d8:	06050a63          	beqz	a0,1114c <core_bench_list+0x108>
   110dc:	00452783          	lw	a5,4(a0)
   110e0:	00198993          	addi	s3,s3,1
   110e4:	01099993          	slli	s3,s3,0x10
   110e8:	00079783          	lh	a5,0(a5)
   110ec:	0109d993          	srli	s3,s3,0x10
   110f0:	0017f713          	andi	a4,a5,1
   110f4:	00070c63          	beqz	a4,1110c <core_bench_list+0xc8>
   110f8:	4097d793          	srai	a5,a5,0x9
   110fc:	0017f793          	andi	a5,a5,1
   11100:	00f90933          	add	s2,s2,a5
   11104:	01091913          	slli	s2,s2,0x10
   11108:	01095913          	srli	s2,s2,0x10
   1110c:	00052783          	lw	a5,0(a0)
   11110:	00078c63          	beqz	a5,11128 <core_bench_list+0xe4>
   11114:	0007a703          	lw	a4,0(a5)
   11118:	00e52023          	sw	a4,0(a0)
   1111c:	00042703          	lw	a4,0(s0)
   11120:	00e7a023          	sw	a4,0(a5)
   11124:	00f42023          	sw	a5,0(s0)
   11128:	000cc663          	bltz	s9,11134 <core_bench_list+0xf0>
   1112c:	001c8c93          	addi	s9,s9,1
   11130:	01911723          	sh	s9,14(sp)
   11134:	00148493          	addi	s1,s1,1
   11138:	01049493          	slli	s1,s1,0x10
   1113c:	4104d493          	srai	s1,s1,0x10
   11140:	029c0c63          	beq	s8,s1,11178 <core_bench_list+0x134>
   11144:	00e11c83          	lh	s9,14(sp)
   11148:	f5dff06f          	j	110a4 <core_bench_list+0x60>
   1114c:	00042783          	lw	a5,0(s0)
   11150:	001b8b93          	addi	s7,s7,1
   11154:	010b9b93          	slli	s7,s7,0x10
   11158:	0047a783          	lw	a5,4(a5)
   1115c:	010bdb93          	srli	s7,s7,0x10
   11160:	00178783          	lb	a5,1(a5)
   11164:	0017f793          	andi	a5,a5,1
   11168:	00f90933          	add	s2,s2,a5
   1116c:	01091913          	slli	s2,s2,0x10
   11170:	01095913          	srli	s2,s2,0x10
   11174:	fb5ff06f          	j	11128 <core_bench_list+0xe4>
   11178:	00299493          	slli	s1,s3,0x2
   1117c:	417484b3          	sub	s1,s1,s7
   11180:	009904b3          	add	s1,s2,s1
   11184:	01049493          	slli	s1,s1,0x10
   11188:	0104d493          	srli	s1,s1,0x10
   1118c:	01505e63          	blez	s5,111a8 <core_bench_list+0x164>
   11190:	000115b7          	lui	a1,0x11
   11194:	00040513          	mv	a0,s0
   11198:	000b0613          	mv	a2,s6
   1119c:	d5858593          	addi	a1,a1,-680 # 10d58 <cmp_complex>
   111a0:	d5dff0ef          	jal	ra,10efc <core_list_mergesort>
   111a4:	00050413          	mv	s0,a0
   111a8:	00042783          	lw	a5,0(s0)
   111ac:	000a0593          	mv	a1,s4
   111b0:	00040513          	mv	a0,s0
   111b4:	0007a983          	lw	s3,0(a5)
   111b8:	0047aa03          	lw	s4,4(a5)
   111bc:	0049a683          	lw	a3,4(s3)
   111c0:	0009a703          	lw	a4,0(s3)
   111c4:	00d7a223          	sw	a3,4(a5)
   111c8:	0149a223          	sw	s4,4(s3)
   111cc:	00e7a023          	sw	a4,0(a5)
   111d0:	0009a023          	sw	zero,0(s3)
   111d4:	c95ff0ef          	jal	ra,10e68 <core_list_find>
   111d8:	00050913          	mv	s2,a0
   111dc:	0a050a63          	beqz	a0,11290 <core_bench_list+0x24c>
   111e0:	00442783          	lw	a5,4(s0)
   111e4:	00048593          	mv	a1,s1
   111e8:	00079503          	lh	a0,0(a5)
   111ec:	560010ef          	jal	ra,1274c <crc16>
   111f0:	00092903          	lw	s2,0(s2)
   111f4:	00050493          	mv	s1,a0
   111f8:	fe0914e3          	bnez	s2,111e0 <core_bench_list+0x19c>
   111fc:	00042903          	lw	s2,0(s0)
   11200:	0049aa03          	lw	s4,4(s3)
   11204:	00492703          	lw	a4,4(s2)
   11208:	00092783          	lw	a5,0(s2)
   1120c:	000115b7          	lui	a1,0x11
   11210:	00e9a223          	sw	a4,4(s3)
   11214:	01492223          	sw	s4,4(s2)
   11218:	00f9a023          	sw	a5,0(s3)
   1121c:	01392023          	sw	s3,0(s2)
   11220:	00040513          	mv	a0,s0
   11224:	00000613          	li	a2,0
   11228:	bec58593          	addi	a1,a1,-1044 # 10bec <cmp_idx>
   1122c:	cd1ff0ef          	jal	ra,10efc <core_list_mergesort>
   11230:	00052403          	lw	s0,0(a0)
   11234:	00050913          	mv	s2,a0
   11238:	02040063          	beqz	s0,11258 <core_bench_list+0x214>
   1123c:	00492783          	lw	a5,4(s2)
   11240:	00048593          	mv	a1,s1
   11244:	00079503          	lh	a0,0(a5)
   11248:	504010ef          	jal	ra,1274c <crc16>
   1124c:	00042403          	lw	s0,0(s0)
   11250:	00050493          	mv	s1,a0
   11254:	fe0414e3          	bnez	s0,1123c <core_bench_list+0x1f8>
   11258:	03c12083          	lw	ra,60(sp)
   1125c:	03812403          	lw	s0,56(sp)
   11260:	00048513          	mv	a0,s1
   11264:	03012903          	lw	s2,48(sp)
   11268:	03412483          	lw	s1,52(sp)
   1126c:	02c12983          	lw	s3,44(sp)
   11270:	02812a03          	lw	s4,40(sp)
   11274:	02412a83          	lw	s5,36(sp)
   11278:	02012b03          	lw	s6,32(sp)
   1127c:	01c12b83          	lw	s7,28(sp)
   11280:	01812c03          	lw	s8,24(sp)
   11284:	01412c83          	lw	s9,20(sp)
   11288:	04010113          	addi	sp,sp,64
   1128c:	00008067          	ret
   11290:	00042903          	lw	s2,0(s0)
   11294:	f40916e3          	bnez	s2,111e0 <core_bench_list+0x19c>
   11298:	f6dff06f          	j	11204 <core_bench_list+0x1c0>
   1129c:	00000493          	li	s1,0
   112a0:	00c10a13          	addi	s4,sp,12
   112a4:	ee9ff06f          	j	1118c <core_bench_list+0x148>

000112a8 <core_list_init>:
   112a8:	ff010113          	addi	sp,sp,-16
   112ac:	00912223          	sw	s1,4(sp)
   112b0:	00058493          	mv	s1,a1
   112b4:	01400593          	li	a1,20
   112b8:	00812423          	sw	s0,8(sp)
   112bc:	01212023          	sw	s2,0(sp)
   112c0:	00112623          	sw	ra,12(sp)
   112c4:	00060913          	mv	s2,a2
   112c8:	7ed010ef          	jal	ra,132b4 <__udivsi3>
   112cc:	ffe50513          	addi	a0,a0,-2
   112d0:	00351e13          	slli	t3,a0,0x3
   112d4:	01c48e33          	add	t3,s1,t3
   112d8:	ffff87b7          	lui	a5,0xffff8
   112dc:	0004a023          	sw	zero,0(s1)
   112e0:	01c4a223          	sw	t3,4(s1)
   112e4:	08078713          	addi	a4,a5,128 # ffff8080 <__global_pointer$+0xfffd1e10>
   112e8:	00251613          	slli	a2,a0,0x2
   112ec:	00ee1023          	sh	a4,0(t3)
   112f0:	000e1123          	sh	zero,2(t3)
   112f4:	01048693          	addi	a3,s1,16
   112f8:	00ce0633          	add	a2,t3,a2
   112fc:	00848413          	addi	s0,s1,8
   11300:	004e0713          	addi	a4,t3,4
   11304:	13c6fa63          	bleu	t3,a3,11438 <core_list_init+0x190>
   11308:	008e0813          	addi	a6,t3,8
   1130c:	12c87663          	bleu	a2,a6,11438 <core_list_init+0x190>
   11310:	00e4a623          	sw	a4,12(s1)
   11314:	0004a423          	sw	zero,8(s1)
   11318:	0084a023          	sw	s0,0(s1)
   1131c:	fff7c793          	not	a5,a5
   11320:	fff00713          	li	a4,-1
   11324:	00ee1223          	sh	a4,4(t3)
   11328:	00fe1323          	sh	a5,6(t3)
   1132c:	06050a63          	beqz	a0,113a0 <core_list_init+0xf8>
   11330:	01091e93          	slli	t4,s2,0x10
   11334:	ffff8f37          	lui	t5,0xffff8
   11338:	010ede93          	srli	t4,t4,0x10
   1133c:	00000593          	li	a1,0
   11340:	ffff4f13          	not	t5,t5
   11344:	01059713          	slli	a4,a1,0x10
   11348:	01075713          	srli	a4,a4,0x10
   1134c:	01d747b3          	xor	a5,a4,t4
   11350:	00379793          	slli	a5,a5,0x3
   11354:	00777713          	andi	a4,a4,7
   11358:	0787f793          	andi	a5,a5,120
   1135c:	00e7e7b3          	or	a5,a5,a4
   11360:	00879713          	slli	a4,a5,0x8
   11364:	00868893          	addi	a7,a3,8
   11368:	00158593          	addi	a1,a1,1
   1136c:	00480313          	addi	t1,a6,4
   11370:	00f767b3          	or	a5,a4,a5
   11374:	03c8f463          	bleu	t3,a7,1139c <core_list_init+0xf4>
   11378:	02c37263          	bleu	a2,t1,1139c <core_list_init+0xf4>
   1137c:	0086a023          	sw	s0,0(a3)
   11380:	00d4a023          	sw	a3,0(s1)
   11384:	0106a223          	sw	a6,4(a3)
   11388:	00f81023          	sh	a5,0(a6)
   1138c:	01e81123          	sh	t5,2(a6)
   11390:	00068413          	mv	s0,a3
   11394:	00030813          	mv	a6,t1
   11398:	00088693          	mv	a3,a7
   1139c:	fab514e3          	bne	a0,a1,11344 <core_list_init+0x9c>
   113a0:	00042783          	lw	a5,0(s0)
   113a4:	06078663          	beqz	a5,11410 <core_list_init+0x168>
   113a8:	00500593          	li	a1,5
   113ac:	709010ef          	jal	ra,132b4 <__udivsi3>
   113b0:	00004637          	lui	a2,0x4
   113b4:	00100693          	li	a3,1
   113b8:	fff60613          	addi	a2,a2,-1 # 3fff <main-0xc075>
   113bc:	0180006f          	j	113d4 <core_list_init+0x12c>
   113c0:	00042403          	lw	s0,0(s0)
   113c4:	00d71123          	sh	a3,2(a4)
   113c8:	00168693          	addi	a3,a3,1
   113cc:	00042783          	lw	a5,0(s0)
   113d0:	04078063          	beqz	a5,11410 <core_list_init+0x168>
   113d4:	01069713          	slli	a4,a3,0x10
   113d8:	01075713          	srli	a4,a4,0x10
   113dc:	00170793          	addi	a5,a4,1
   113e0:	00879793          	slli	a5,a5,0x8
   113e4:	01274733          	xor	a4,a4,s2
   113e8:	7007f793          	andi	a5,a5,1792
   113ec:	00e7e7b3          	or	a5,a5,a4
   113f0:	00c7f7b3          	and	a5,a5,a2
   113f4:	00442703          	lw	a4,4(s0)
   113f8:	fca6e4e3          	bltu	a3,a0,113c0 <core_list_init+0x118>
   113fc:	00042403          	lw	s0,0(s0)
   11400:	00f71123          	sh	a5,2(a4)
   11404:	00168693          	addi	a3,a3,1
   11408:	00042783          	lw	a5,0(s0)
   1140c:	fc0794e3          	bnez	a5,113d4 <core_list_init+0x12c>
   11410:	00812403          	lw	s0,8(sp)
   11414:	00c12083          	lw	ra,12(sp)
   11418:	00012903          	lw	s2,0(sp)
   1141c:	00048513          	mv	a0,s1
   11420:	00412483          	lw	s1,4(sp)
   11424:	000115b7          	lui	a1,0x11
   11428:	00000613          	li	a2,0
   1142c:	bec58593          	addi	a1,a1,-1044 # 10bec <cmp_idx>
   11430:	01010113          	addi	sp,sp,16
   11434:	ac9ff06f          	j	10efc <core_list_mergesort>
   11438:	00040693          	mv	a3,s0
   1143c:	00070813          	mv	a6,a4
   11440:	00000413          	li	s0,0
   11444:	ee9ff06f          	j	1132c <core_list_init+0x84>

00011448 <iterate>:
   11448:	ff010113          	addi	sp,sp,-16
   1144c:	01212023          	sw	s2,0(sp)
   11450:	01c52903          	lw	s2,28(a0)
   11454:	00112623          	sw	ra,12(sp)
   11458:	00812423          	sw	s0,8(sp)
   1145c:	00912223          	sw	s1,4(sp)
   11460:	02052c23          	sw	zero,56(a0)
   11464:	02052e23          	sw	zero,60(a0)
   11468:	04090663          	beqz	s2,114b4 <iterate+0x6c>
   1146c:	00050413          	mv	s0,a0
   11470:	00000493          	li	s1,0
   11474:	00100593          	li	a1,1
   11478:	00040513          	mv	a0,s0
   1147c:	bc9ff0ef          	jal	ra,11044 <core_bench_list>
   11480:	03845583          	lhu	a1,56(s0)
   11484:	214010ef          	jal	ra,12698 <crcu16>
   11488:	02a41c23          	sh	a0,56(s0)
   1148c:	fff00593          	li	a1,-1
   11490:	00040513          	mv	a0,s0
   11494:	bb1ff0ef          	jal	ra,11044 <core_bench_list>
   11498:	03845583          	lhu	a1,56(s0)
   1149c:	1fc010ef          	jal	ra,12698 <crcu16>
   114a0:	02a41c23          	sh	a0,56(s0)
   114a4:	00049463          	bnez	s1,114ac <iterate+0x64>
   114a8:	02a41d23          	sh	a0,58(s0)
   114ac:	00148493          	addi	s1,s1,1
   114b0:	fc9912e3          	bne	s2,s1,11474 <iterate+0x2c>
   114b4:	00c12083          	lw	ra,12(sp)
   114b8:	00812403          	lw	s0,8(sp)
   114bc:	00412483          	lw	s1,4(sp)
   114c0:	00012903          	lw	s2,0(sp)
   114c4:	00000513          	li	a0,0
   114c8:	01010113          	addi	sp,sp,16
   114cc:	00008067          	ret

000114d0 <core_init_matrix>:
   114d0:	fb010113          	addi	sp,sp,-80
   114d4:	04812423          	sw	s0,72(sp)
   114d8:	03312e23          	sw	s3,60(sp)
   114dc:	03912223          	sw	s9,36(sp)
   114e0:	04112623          	sw	ra,76(sp)
   114e4:	04912223          	sw	s1,68(sp)
   114e8:	05212023          	sw	s2,64(sp)
   114ec:	03412c23          	sw	s4,56(sp)
   114f0:	03512a23          	sw	s5,52(sp)
   114f4:	03612823          	sw	s6,48(sp)
   114f8:	03712623          	sw	s7,44(sp)
   114fc:	03812423          	sw	s8,40(sp)
   11500:	03a12023          	sw	s10,32(sp)
   11504:	01b12e23          	sw	s11,28(sp)
   11508:	00050993          	mv	s3,a0
   1150c:	00068c93          	mv	s9,a3
   11510:	00100413          	li	s0,1
   11514:	00060463          	beqz	a2,1151c <core_init_matrix+0x4c>
   11518:	00060413          	mv	s0,a2
   1151c:	fff58b93          	addi	s7,a1,-1
   11520:	ffcbfb93          	andi	s7,s7,-4
   11524:	004b8793          	addi	a5,s7,4
   11528:	00f12223          	sw	a5,4(sp)
   1152c:	00000493          	li	s1,0
   11530:	00099663          	bnez	s3,1153c <core_init_matrix+0x6c>
   11534:	13c0006f          	j	11670 <core_init_matrix+0x1a0>
   11538:	00090493          	mv	s1,s2
   1153c:	00148913          	addi	s2,s1,1
   11540:	00090593          	mv	a1,s2
   11544:	00090513          	mv	a0,s2
   11548:	541010ef          	jal	ra,13288 <__mulsi3>
   1154c:	00351513          	slli	a0,a0,0x3
   11550:	ff3564e3          	bltu	a0,s3,11538 <core_init_matrix+0x68>
   11554:	00048593          	mv	a1,s1
   11558:	00048513          	mv	a0,s1
   1155c:	52d010ef          	jal	ra,13288 <__mulsi3>
   11560:	00412703          	lw	a4,4(sp)
   11564:	00151793          	slli	a5,a0,0x1
   11568:	00f12623          	sw	a5,12(sp)
   1156c:	00912423          	sw	s1,8(sp)
   11570:	00f70bb3          	add	s7,a4,a5
   11574:	08048863          	beqz	s1,11604 <core_init_matrix+0x134>
   11578:	00412783          	lw	a5,4(sp)
   1157c:	00010937          	lui	s2,0x10
   11580:	00149c13          	slli	s8,s1,0x1
   11584:	000b8a93          	mv	s5,s7
   11588:	00000a13          	li	s4,0
   1158c:	00100d93          	li	s11,1
   11590:	417789b3          	sub	s3,a5,s7
   11594:	fff90913          	addi	s2,s2,-1 # ffff <main-0x75>
   11598:	000a8d13          	mv	s10,s5
   1159c:	00000b13          	li	s6,0
   115a0:	000d8593          	mv	a1,s11
   115a4:	00040513          	mv	a0,s0
   115a8:	4e1010ef          	jal	ra,13288 <__mulsi3>
   115ac:	41f55613          	srai	a2,a0,0x1f
   115b0:	01065613          	srli	a2,a2,0x10
   115b4:	00c50433          	add	s0,a0,a2
   115b8:	010d9793          	slli	a5,s11,0x10
   115bc:	01247433          	and	s0,s0,s2
   115c0:	0107d793          	srli	a5,a5,0x10
   115c4:	40c40433          	sub	s0,s0,a2
   115c8:	00878733          	add	a4,a5,s0
   115cc:	01071713          	slli	a4,a4,0x10
   115d0:	01075713          	srli	a4,a4,0x10
   115d4:	00f707b3          	add	a5,a4,a5
   115d8:	00ed1023          	sh	a4,0(s10)
   115dc:	0ff7f793          	andi	a5,a5,255
   115e0:	01a98733          	add	a4,s3,s10
   115e4:	00f71023          	sh	a5,0(a4)
   115e8:	001b0b13          	addi	s6,s6,1
   115ec:	001d8d93          	addi	s11,s11,1
   115f0:	002d0d13          	addi	s10,s10,2
   115f4:	fa9b66e3          	bltu	s6,s1,115a0 <core_init_matrix+0xd0>
   115f8:	001a0a13          	addi	s4,s4,1
   115fc:	018a8ab3          	add	s5,s5,s8
   11600:	f89a6ce3          	bltu	s4,s1,11598 <core_init_matrix+0xc8>
   11604:	00c12783          	lw	a5,12(sp)
   11608:	00412703          	lw	a4,4(sp)
   1160c:	04c12083          	lw	ra,76(sp)
   11610:	00fb87b3          	add	a5,s7,a5
   11614:	fff78793          	addi	a5,a5,-1
   11618:	ffc7f793          	andi	a5,a5,-4
   1161c:	00478793          	addi	a5,a5,4
   11620:	00fca623          	sw	a5,12(s9)
   11624:	00812783          	lw	a5,8(sp)
   11628:	04812403          	lw	s0,72(sp)
   1162c:	017ca423          	sw	s7,8(s9)
   11630:	00eca223          	sw	a4,4(s9)
   11634:	00fca023          	sw	a5,0(s9)
   11638:	00048513          	mv	a0,s1
   1163c:	04012903          	lw	s2,64(sp)
   11640:	04412483          	lw	s1,68(sp)
   11644:	03c12983          	lw	s3,60(sp)
   11648:	03812a03          	lw	s4,56(sp)
   1164c:	03412a83          	lw	s5,52(sp)
   11650:	03012b03          	lw	s6,48(sp)
   11654:	02c12b83          	lw	s7,44(sp)
   11658:	02812c03          	lw	s8,40(sp)
   1165c:	02412c83          	lw	s9,36(sp)
   11660:	02012d03          	lw	s10,32(sp)
   11664:	01c12d83          	lw	s11,28(sp)
   11668:	05010113          	addi	sp,sp,80
   1166c:	00008067          	ret
   11670:	fff00793          	li	a5,-1
   11674:	00f12423          	sw	a5,8(sp)
   11678:	00200793          	li	a5,2
   1167c:	006b8b93          	addi	s7,s7,6
   11680:	fff00493          	li	s1,-1
   11684:	00f12623          	sw	a5,12(sp)
   11688:	ef1ff06f          	j	11578 <core_init_matrix+0xa8>

0001168c <matrix_sum>:
   1168c:	00050f13          	mv	t5,a0
   11690:	08050863          	beqz	a0,11720 <matrix_sum+0x94>
   11694:	40a00eb3          	neg	t4,a0
   11698:	00251893          	slli	a7,a0,0x2
   1169c:	011588b3          	add	a7,a1,a7
   116a0:	002e9f93          	slli	t6,t4,0x2
   116a4:	00000313          	li	t1,0
   116a8:	00000513          	li	a0,0
   116ac:	00000713          	li	a4,0
   116b0:	00000593          	li	a1,0
   116b4:	003e9e93          	slli	t4,t4,0x3
   116b8:	011f8e33          	add	t3,t6,a7
   116bc:	000e0793          	mv	a5,t3
   116c0:	01c0006f          	j	116dc <matrix_sum+0x50>
   116c4:	01081513          	slli	a0,a6,0x10
   116c8:	00478793          	addi	a5,a5,4
   116cc:	41055513          	srai	a0,a0,0x10
   116d0:	00000593          	li	a1,0
   116d4:	00068713          	mv	a4,a3
   116d8:	02f88c63          	beq	a7,a5,11710 <matrix_sum+0x84>
   116dc:	0007a683          	lw	a3,0(a5)
   116e0:	01051513          	slli	a0,a0,0x10
   116e4:	01055513          	srli	a0,a0,0x10
   116e8:	00d72733          	slt	a4,a4,a3
   116ec:	00d585b3          	add	a1,a1,a3
   116f0:	00a50813          	addi	a6,a0,10
   116f4:	00e50533          	add	a0,a0,a4
   116f8:	fcb646e3          	blt	a2,a1,116c4 <matrix_sum+0x38>
   116fc:	01051513          	slli	a0,a0,0x10
   11700:	00478793          	addi	a5,a5,4
   11704:	41055513          	srai	a0,a0,0x10
   11708:	00068713          	mv	a4,a3
   1170c:	fcf898e3          	bne	a7,a5,116dc <matrix_sum+0x50>
   11710:	00130313          	addi	t1,t1,1
   11714:	41de08b3          	sub	a7,t3,t4
   11718:	fa6f10e3          	bne	t5,t1,116b8 <matrix_sum+0x2c>
   1171c:	00008067          	ret
   11720:	00000513          	li	a0,0
   11724:	00008067          	ret

00011728 <matrix_mul_const>:
   11728:	0c050863          	beqz	a0,117f8 <matrix_mul_const+0xd0>
   1172c:	fd010113          	addi	sp,sp,-48
   11730:	03212023          	sw	s2,32(sp)
   11734:	01812423          	sw	s8,8(sp)
   11738:	00151913          	slli	s2,a0,0x1
   1173c:	40a00c33          	neg	s8,a0
   11740:	01312e23          	sw	s3,28(sp)
   11744:	01412c23          	sw	s4,24(sp)
   11748:	01512a23          	sw	s5,20(sp)
   1174c:	01712623          	sw	s7,12(sp)
   11750:	01912223          	sw	s9,4(sp)
   11754:	01a12023          	sw	s10,0(sp)
   11758:	02112623          	sw	ra,44(sp)
   1175c:	001c1d13          	slli	s10,s8,0x1
   11760:	02812423          	sw	s0,40(sp)
   11764:	02912223          	sw	s1,36(sp)
   11768:	01612823          	sw	s6,16(sp)
   1176c:	00068993          	mv	s3,a3
   11770:	00050b93          	mv	s7,a0
   11774:	00251c93          	slli	s9,a0,0x2
   11778:	00058a13          	mv	s4,a1
   1177c:	01260933          	add	s2,a2,s2
   11780:	00000a93          	li	s5,0
   11784:	002c1c13          	slli	s8,s8,0x2
   11788:	012d0b33          	add	s6,s10,s2
   1178c:	000a0493          	mv	s1,s4
   11790:	000b0413          	mv	s0,s6
   11794:	00041503          	lh	a0,0(s0)
   11798:	00098593          	mv	a1,s3
   1179c:	00240413          	addi	s0,s0,2
   117a0:	2e9010ef          	jal	ra,13288 <__mulsi3>
   117a4:	00a4a023          	sw	a0,0(s1)
   117a8:	00448493          	addi	s1,s1,4
   117ac:	ff2414e3          	bne	s0,s2,11794 <matrix_mul_const+0x6c>
   117b0:	001a8a93          	addi	s5,s5,1
   117b4:	019a0a33          	add	s4,s4,s9
   117b8:	418b0933          	sub	s2,s6,s8
   117bc:	fd5b96e3          	bne	s7,s5,11788 <matrix_mul_const+0x60>
   117c0:	02c12083          	lw	ra,44(sp)
   117c4:	02812403          	lw	s0,40(sp)
   117c8:	02412483          	lw	s1,36(sp)
   117cc:	02012903          	lw	s2,32(sp)
   117d0:	01c12983          	lw	s3,28(sp)
   117d4:	01812a03          	lw	s4,24(sp)
   117d8:	01412a83          	lw	s5,20(sp)
   117dc:	01012b03          	lw	s6,16(sp)
   117e0:	00c12b83          	lw	s7,12(sp)
   117e4:	00812c03          	lw	s8,8(sp)
   117e8:	00412c83          	lw	s9,4(sp)
   117ec:	00012d03          	lw	s10,0(sp)
   117f0:	03010113          	addi	sp,sp,48
   117f4:	00008067          	ret
   117f8:	00008067          	ret

000117fc <matrix_add_const>:
   117fc:	04050663          	beqz	a0,11848 <matrix_add_const+0x4c>
   11800:	40a008b3          	neg	a7,a0
   11804:	00151693          	slli	a3,a0,0x1
   11808:	01061613          	slli	a2,a2,0x10
   1180c:	00d586b3          	add	a3,a1,a3
   11810:	00189313          	slli	t1,a7,0x1
   11814:	01065613          	srli	a2,a2,0x10
   11818:	00000593          	li	a1,0
   1181c:	00289893          	slli	a7,a7,0x2
   11820:	00d30833          	add	a6,t1,a3
   11824:	00080793          	mv	a5,a6
   11828:	0007d703          	lhu	a4,0(a5)
   1182c:	00278793          	addi	a5,a5,2
   11830:	00e60733          	add	a4,a2,a4
   11834:	fee79f23          	sh	a4,-2(a5)
   11838:	fef698e3          	bne	a3,a5,11828 <matrix_add_const+0x2c>
   1183c:	00158593          	addi	a1,a1,1
   11840:	411806b3          	sub	a3,a6,a7
   11844:	fcb51ee3          	bne	a0,a1,11820 <matrix_add_const+0x24>
   11848:	00008067          	ret

0001184c <matrix_mul_vect>:
   1184c:	0a050a63          	beqz	a0,11900 <matrix_mul_vect+0xb4>
   11850:	fd010113          	addi	sp,sp,-48
   11854:	01812423          	sw	s8,8(sp)
   11858:	00151c13          	slli	s8,a0,0x1
   1185c:	00251513          	slli	a0,a0,0x2
   11860:	01312e23          	sw	s3,28(sp)
   11864:	01412c23          	sw	s4,24(sp)
   11868:	01512a23          	sw	s5,20(sp)
   1186c:	01612823          	sw	s6,16(sp)
   11870:	01712623          	sw	s7,12(sp)
   11874:	02112623          	sw	ra,44(sp)
   11878:	02812423          	sw	s0,40(sp)
   1187c:	02912223          	sw	s1,36(sp)
   11880:	03212023          	sw	s2,32(sp)
   11884:	00068b93          	mv	s7,a3
   11888:	00058a13          	mv	s4,a1
   1188c:	00060a93          	mv	s5,a2
   11890:	00a58b33          	add	s6,a1,a0
   11894:	018689b3          	add	s3,a3,s8
   11898:	000b8413          	mv	s0,s7
   1189c:	000a8493          	mv	s1,s5
   118a0:	00000913          	li	s2,0
   118a4:	00041583          	lh	a1,0(s0)
   118a8:	00049503          	lh	a0,0(s1)
   118ac:	00240413          	addi	s0,s0,2
   118b0:	00248493          	addi	s1,s1,2
   118b4:	1d5010ef          	jal	ra,13288 <__mulsi3>
   118b8:	00a90933          	add	s2,s2,a0
   118bc:	fe8994e3          	bne	s3,s0,118a4 <matrix_mul_vect+0x58>
   118c0:	012a2023          	sw	s2,0(s4)
   118c4:	004a0a13          	addi	s4,s4,4
   118c8:	018a8ab3          	add	s5,s5,s8
   118cc:	fd4b16e3          	bne	s6,s4,11898 <matrix_mul_vect+0x4c>
   118d0:	02c12083          	lw	ra,44(sp)
   118d4:	02812403          	lw	s0,40(sp)
   118d8:	02412483          	lw	s1,36(sp)
   118dc:	02012903          	lw	s2,32(sp)
   118e0:	01c12983          	lw	s3,28(sp)
   118e4:	01812a03          	lw	s4,24(sp)
   118e8:	01412a83          	lw	s5,20(sp)
   118ec:	01012b03          	lw	s6,16(sp)
   118f0:	00c12b83          	lw	s7,12(sp)
   118f4:	00812c03          	lw	s8,8(sp)
   118f8:	03010113          	addi	sp,sp,48
   118fc:	00008067          	ret
   11900:	00008067          	ret

00011904 <matrix_mul_matrix>:
   11904:	0e050c63          	beqz	a0,119fc <matrix_mul_matrix+0xf8>
   11908:	fb010113          	addi	sp,sp,-80
   1190c:	04912223          	sw	s1,68(sp)
   11910:	00251793          	slli	a5,a0,0x2
   11914:	00151493          	slli	s1,a0,0x1
   11918:	05212023          	sw	s2,64(sp)
   1191c:	03512a23          	sw	s5,52(sp)
   11920:	03612823          	sw	s6,48(sp)
   11924:	03712623          	sw	s7,44(sp)
   11928:	03812423          	sw	s8,40(sp)
   1192c:	03912223          	sw	s9,36(sp)
   11930:	04112623          	sw	ra,76(sp)
   11934:	04812423          	sw	s0,72(sp)
   11938:	03312e23          	sw	s3,60(sp)
   1193c:	03412c23          	sw	s4,56(sp)
   11940:	03a12023          	sw	s10,32(sp)
   11944:	01b12e23          	sw	s11,28(sp)
   11948:	00d12623          	sw	a3,12(sp)
   1194c:	00050c93          	mv	s9,a0
   11950:	00060a93          	mv	s5,a2
   11954:	00960933          	add	s2,a2,s1
   11958:	00f12423          	sw	a5,8(sp)
   1195c:	00058b93          	mv	s7,a1
   11960:	00968b33          	add	s6,a3,s1
   11964:	00000c13          	li	s8,0
   11968:	00c12983          	lw	s3,12(sp)
   1196c:	000b8a13          	mv	s4,s7
   11970:	00098d13          	mv	s10,s3
   11974:	000a8413          	mv	s0,s5
   11978:	00000d93          	li	s11,0
   1197c:	000d1583          	lh	a1,0(s10)
   11980:	00041503          	lh	a0,0(s0)
   11984:	00240413          	addi	s0,s0,2
   11988:	009d0d33          	add	s10,s10,s1
   1198c:	0fd010ef          	jal	ra,13288 <__mulsi3>
   11990:	00ad8db3          	add	s11,s11,a0
   11994:	fe8914e3          	bne	s2,s0,1197c <matrix_mul_matrix+0x78>
   11998:	01ba2023          	sw	s11,0(s4)
   1199c:	00298993          	addi	s3,s3,2
   119a0:	004a0a13          	addi	s4,s4,4
   119a4:	fd3b16e3          	bne	s6,s3,11970 <matrix_mul_matrix+0x6c>
   119a8:	00812783          	lw	a5,8(sp)
   119ac:	001c0c13          	addi	s8,s8,1
   119b0:	009a8ab3          	add	s5,s5,s1
   119b4:	00990933          	add	s2,s2,s1
   119b8:	00fb8bb3          	add	s7,s7,a5
   119bc:	fb8c96e3          	bne	s9,s8,11968 <matrix_mul_matrix+0x64>
   119c0:	04c12083          	lw	ra,76(sp)
   119c4:	04812403          	lw	s0,72(sp)
   119c8:	04412483          	lw	s1,68(sp)
   119cc:	04012903          	lw	s2,64(sp)
   119d0:	03c12983          	lw	s3,60(sp)
   119d4:	03812a03          	lw	s4,56(sp)
   119d8:	03412a83          	lw	s5,52(sp)
   119dc:	03012b03          	lw	s6,48(sp)
   119e0:	02c12b83          	lw	s7,44(sp)
   119e4:	02812c03          	lw	s8,40(sp)
   119e8:	02412c83          	lw	s9,36(sp)
   119ec:	02012d03          	lw	s10,32(sp)
   119f0:	01c12d83          	lw	s11,28(sp)
   119f4:	05010113          	addi	sp,sp,80
   119f8:	00008067          	ret
   119fc:	00008067          	ret

00011a00 <matrix_mul_matrix_bitextract>:
   11a00:	10050663          	beqz	a0,11b0c <matrix_mul_matrix_bitextract+0x10c>
   11a04:	fb010113          	addi	sp,sp,-80
   11a08:	04812423          	sw	s0,72(sp)
   11a0c:	00251793          	slli	a5,a0,0x2
   11a10:	00151413          	slli	s0,a0,0x1
   11a14:	04912223          	sw	s1,68(sp)
   11a18:	03412c23          	sw	s4,56(sp)
   11a1c:	03512a23          	sw	s5,52(sp)
   11a20:	03612823          	sw	s6,48(sp)
   11a24:	03712623          	sw	s7,44(sp)
   11a28:	03812423          	sw	s8,40(sp)
   11a2c:	04112623          	sw	ra,76(sp)
   11a30:	05212023          	sw	s2,64(sp)
   11a34:	03312e23          	sw	s3,60(sp)
   11a38:	03912223          	sw	s9,36(sp)
   11a3c:	03a12023          	sw	s10,32(sp)
   11a40:	01b12e23          	sw	s11,28(sp)
   11a44:	00d12623          	sw	a3,12(sp)
   11a48:	00050c13          	mv	s8,a0
   11a4c:	00060a13          	mv	s4,a2
   11a50:	008604b3          	add	s1,a2,s0
   11a54:	00f12423          	sw	a5,8(sp)
   11a58:	00058b13          	mv	s6,a1
   11a5c:	00868ab3          	add	s5,a3,s0
   11a60:	00000b93          	li	s7,0
   11a64:	00c12903          	lw	s2,12(sp)
   11a68:	000b0993          	mv	s3,s6
   11a6c:	00090c93          	mv	s9,s2
   11a70:	000a0d93          	mv	s11,s4
   11a74:	00000d13          	li	s10,0
   11a78:	000c9583          	lh	a1,0(s9)
   11a7c:	000d9503          	lh	a0,0(s11)
   11a80:	002d8d93          	addi	s11,s11,2
   11a84:	008c8cb3          	add	s9,s9,s0
   11a88:	001010ef          	jal	ra,13288 <__mulsi3>
   11a8c:	40255693          	srai	a3,a0,0x2
   11a90:	40555593          	srai	a1,a0,0x5
   11a94:	07f5f593          	andi	a1,a1,127
   11a98:	00f6f513          	andi	a0,a3,15
   11a9c:	7ec010ef          	jal	ra,13288 <__mulsi3>
   11aa0:	00ad0d33          	add	s10,s10,a0
   11aa4:	fdb49ae3          	bne	s1,s11,11a78 <matrix_mul_matrix_bitextract+0x78>
   11aa8:	01a9a023          	sw	s10,0(s3)
   11aac:	00290913          	addi	s2,s2,2
   11ab0:	00498993          	addi	s3,s3,4
   11ab4:	fb2a9ce3          	bne	s5,s2,11a6c <matrix_mul_matrix_bitextract+0x6c>
   11ab8:	00812783          	lw	a5,8(sp)
   11abc:	001b8b93          	addi	s7,s7,1
   11ac0:	008a0a33          	add	s4,s4,s0
   11ac4:	008484b3          	add	s1,s1,s0
   11ac8:	00fb0b33          	add	s6,s6,a5
   11acc:	f97c1ce3          	bne	s8,s7,11a64 <matrix_mul_matrix_bitextract+0x64>
   11ad0:	04c12083          	lw	ra,76(sp)
   11ad4:	04812403          	lw	s0,72(sp)
   11ad8:	04412483          	lw	s1,68(sp)
   11adc:	04012903          	lw	s2,64(sp)
   11ae0:	03c12983          	lw	s3,60(sp)
   11ae4:	03812a03          	lw	s4,56(sp)
   11ae8:	03412a83          	lw	s5,52(sp)
   11aec:	03012b03          	lw	s6,48(sp)
   11af0:	02c12b83          	lw	s7,44(sp)
   11af4:	02812c03          	lw	s8,40(sp)
   11af8:	02412c83          	lw	s9,36(sp)
   11afc:	02012d03          	lw	s10,32(sp)
   11b00:	01c12d83          	lw	s11,28(sp)
   11b04:	05010113          	addi	sp,sp,80
   11b08:	00008067          	ret
   11b0c:	00008067          	ret

00011b10 <matrix_test>:
   11b10:	f9010113          	addi	sp,sp,-112
   11b14:	05a12023          	sw	s10,64(sp)
   11b18:	fffff7b7          	lui	a5,0xfffff
   11b1c:	06112623          	sw	ra,108(sp)
   11b20:	06812423          	sw	s0,104(sp)
   11b24:	06912223          	sw	s1,100(sp)
   11b28:	07212023          	sw	s2,96(sp)
   11b2c:	05312e23          	sw	s3,92(sp)
   11b30:	05412c23          	sw	s4,88(sp)
   11b34:	05512a23          	sw	s5,84(sp)
   11b38:	05612823          	sw	s6,80(sp)
   11b3c:	05712623          	sw	s7,76(sp)
   11b40:	05812423          	sw	s8,72(sp)
   11b44:	05912223          	sw	s9,68(sp)
   11b48:	03b12e23          	sw	s11,60(sp)
   11b4c:	02b12023          	sw	a1,32(sp)
   11b50:	02c12223          	sw	a2,36(sp)
   11b54:	02d12423          	sw	a3,40(sp)
   11b58:	00f76d33          	or	s10,a4,a5
   11b5c:	3c050863          	beqz	a0,11f2c <matrix_test+0x41c>
   11b60:	00151793          	slli	a5,a0,0x1
   11b64:	00050813          	mv	a6,a0
   11b68:	40a00533          	neg	a0,a0
   11b6c:	00f604b3          	add	s1,a2,a5
   11b70:	00f12e23          	sw	a5,28(sp)
   11b74:	01071413          	slli	s0,a4,0x10
   11b78:	00151793          	slli	a5,a0,0x1
   11b7c:	00060b13          	mv	s6,a2
   11b80:	00070913          	mv	s2,a4
   11b84:	01045413          	srli	s0,s0,0x10
   11b88:	00f12823          	sw	a5,16(sp)
   11b8c:	00048613          	mv	a2,s1
   11b90:	00000993          	li	s3,0
   11b94:	00251513          	slli	a0,a0,0x2
   11b98:	01012783          	lw	a5,16(sp)
   11b9c:	00c785b3          	add	a1,a5,a2
   11ba0:	00058713          	mv	a4,a1
   11ba4:	00075683          	lhu	a3,0(a4)
   11ba8:	00270713          	addi	a4,a4,2
   11bac:	00d406b3          	add	a3,s0,a3
   11bb0:	fed71f23          	sh	a3,-2(a4)
   11bb4:	fee618e3          	bne	a2,a4,11ba4 <matrix_test+0x94>
   11bb8:	00198d93          	addi	s11,s3,1
   11bbc:	40a58633          	sub	a2,a1,a0
   11bc0:	01b80663          	beq	a6,s11,11bcc <matrix_test+0xbc>
   11bc4:	000d8993          	mv	s3,s11
   11bc8:	fd1ff06f          	j	11b98 <matrix_test+0x88>
   11bcc:	02012c03          	lw	s8,32(sp)
   11bd0:	41b007b3          	neg	a5,s11
   11bd4:	02f12623          	sw	a5,44(sp)
   11bd8:	002d9a13          	slli	s4,s11,0x2
   11bdc:	01812623          	sw	s8,12(sp)
   11be0:	00012c23          	sw	zero,24(sp)
   11be4:	00279b93          	slli	s7,a5,0x2
   11be8:	01012783          	lw	a5,16(sp)
   11bec:	000c0a93          	mv	s5,s8
   11bf0:	00f487b3          	add	a5,s1,a5
   11bf4:	00f12a23          	sw	a5,20(sp)
   11bf8:	00078c93          	mv	s9,a5
   11bfc:	000c9503          	lh	a0,0(s9)
   11c00:	00090593          	mv	a1,s2
   11c04:	002c8c93          	addi	s9,s9,2
   11c08:	680010ef          	jal	ra,13288 <__mulsi3>
   11c0c:	00aaa023          	sw	a0,0(s5)
   11c10:	004a8a93          	addi	s5,s5,4
   11c14:	ff9494e3          	bne	s1,s9,11bfc <matrix_test+0xec>
   11c18:	01812783          	lw	a5,24(sp)
   11c1c:	01412703          	lw	a4,20(sp)
   11c20:	014c0c33          	add	s8,s8,s4
   11c24:	00178693          	addi	a3,a5,1 # fffff001 <__global_pointer$+0xfffd8d91>
   11c28:	417704b3          	sub	s1,a4,s7
   11c2c:	01378663          	beq	a5,s3,11c38 <matrix_test+0x128>
   11c30:	00d12c23          	sw	a3,24(sp)
   11c34:	fb5ff06f          	j	11be8 <matrix_test+0xd8>
   11c38:	02012783          	lw	a5,32(sp)
   11c3c:	00000513          	li	a0,0
   11c40:	00000613          	li	a2,0
   11c44:	014784b3          	add	s1,a5,s4
   11c48:	02c12783          	lw	a5,44(sp)
   11c4c:	00048313          	mv	t1,s1
   11c50:	00000813          	li	a6,0
   11c54:	00000e93          	li	t4,0
   11c58:	00379913          	slli	s2,a5,0x3
   11c5c:	01730e33          	add	t3,t1,s7
   11c60:	000e0693          	mv	a3,t3
   11c64:	01c0006f          	j	11c80 <matrix_test+0x170>
   11c68:	01089513          	slli	a0,a7,0x10
   11c6c:	00468693          	addi	a3,a3,4
   11c70:	41055513          	srai	a0,a0,0x10
   11c74:	00000813          	li	a6,0
   11c78:	00058613          	mv	a2,a1
   11c7c:	02d30c63          	beq	t1,a3,11cb4 <matrix_test+0x1a4>
   11c80:	0006a583          	lw	a1,0(a3)
   11c84:	01051513          	slli	a0,a0,0x10
   11c88:	01055513          	srli	a0,a0,0x10
   11c8c:	00b62633          	slt	a2,a2,a1
   11c90:	00b80833          	add	a6,a6,a1
   11c94:	00a50893          	addi	a7,a0,10
   11c98:	00c50533          	add	a0,a0,a2
   11c9c:	fd0d46e3          	blt	s10,a6,11c68 <matrix_test+0x158>
   11ca0:	01051513          	slli	a0,a0,0x10
   11ca4:	00468693          	addi	a3,a3,4
   11ca8:	41055513          	srai	a0,a0,0x10
   11cac:	00058613          	mv	a2,a1
   11cb0:	fcd318e3          	bne	t1,a3,11c80 <matrix_test+0x170>
   11cb4:	001e8693          	addi	a3,t4,1
   11cb8:	412e0333          	sub	t1,t3,s2
   11cbc:	013e8663          	beq	t4,s3,11cc8 <matrix_test+0x1b8>
   11cc0:	00068e93          	mv	t4,a3
   11cc4:	f99ff06f          	j	11c5c <matrix_test+0x14c>
   11cc8:	00000593          	li	a1,0
   11ccc:	281000ef          	jal	ra,1274c <crc16>
   11cd0:	02412603          	lw	a2,36(sp)
   11cd4:	02812683          	lw	a3,40(sp)
   11cd8:	02012583          	lw	a1,32(sp)
   11cdc:	00050c13          	mv	s8,a0
   11ce0:	000d8513          	mv	a0,s11
   11ce4:	b69ff0ef          	jal	ra,1184c <matrix_mul_vect>
   11ce8:	00000513          	li	a0,0
   11cec:	00000613          	li	a2,0
   11cf0:	00000813          	li	a6,0
   11cf4:	00000e13          	li	t3,0
   11cf8:	01748333          	add	t1,s1,s7
   11cfc:	00030693          	mv	a3,t1
   11d00:	01c0006f          	j	11d1c <matrix_test+0x20c>
   11d04:	01089513          	slli	a0,a7,0x10
   11d08:	00468693          	addi	a3,a3,4
   11d0c:	41055513          	srai	a0,a0,0x10
   11d10:	00000813          	li	a6,0
   11d14:	00058613          	mv	a2,a1
   11d18:	02d48c63          	beq	s1,a3,11d50 <matrix_test+0x240>
   11d1c:	0006a583          	lw	a1,0(a3)
   11d20:	01051513          	slli	a0,a0,0x10
   11d24:	01055513          	srli	a0,a0,0x10
   11d28:	00b62633          	slt	a2,a2,a1
   11d2c:	00b80833          	add	a6,a6,a1
   11d30:	00a50893          	addi	a7,a0,10
   11d34:	00c50533          	add	a0,a0,a2
   11d38:	fd0d46e3          	blt	s10,a6,11d04 <matrix_test+0x1f4>
   11d3c:	01051513          	slli	a0,a0,0x10
   11d40:	00468693          	addi	a3,a3,4
   11d44:	41055513          	srai	a0,a0,0x10
   11d48:	00058613          	mv	a2,a1
   11d4c:	fcd498e3          	bne	s1,a3,11d1c <matrix_test+0x20c>
   11d50:	001e0693          	addi	a3,t3,1
   11d54:	412304b3          	sub	s1,t1,s2
   11d58:	013e0663          	beq	t3,s3,11d64 <matrix_test+0x254>
   11d5c:	00068e13          	mv	t3,a3
   11d60:	f99ff06f          	j	11cf8 <matrix_test+0x1e8>
   11d64:	000c0593          	mv	a1,s8
   11d68:	1e5000ef          	jal	ra,1274c <crc16>
   11d6c:	02012903          	lw	s2,32(sp)
   11d70:	02812683          	lw	a3,40(sp)
   11d74:	02412603          	lw	a2,36(sp)
   11d78:	00090593          	mv	a1,s2
   11d7c:	00050493          	mv	s1,a0
   11d80:	000d8513          	mv	a0,s11
   11d84:	b81ff0ef          	jal	ra,11904 <matrix_mul_matrix>
   11d88:	00090e93          	mv	t4,s2
   11d8c:	00000513          	li	a0,0
   11d90:	00000693          	li	a3,0
   11d94:	00000593          	li	a1,0
   11d98:	00000e13          	li	t3,0
   11d9c:	000e8893          	mv	a7,t4
   11da0:	00000813          	li	a6,0
   11da4:	0200006f          	j	11dc4 <matrix_test+0x2b4>
   11da8:	01031513          	slli	a0,t1,0x10
   11dac:	00180813          	addi	a6,a6,1
   11db0:	41055513          	srai	a0,a0,0x10
   11db4:	00000593          	li	a1,0
   11db8:	00488893          	addi	a7,a7,4
   11dbc:	00060693          	mv	a3,a2
   11dc0:	03b87e63          	bleu	s11,a6,11dfc <matrix_test+0x2ec>
   11dc4:	0008a603          	lw	a2,0(a7)
   11dc8:	01051513          	slli	a0,a0,0x10
   11dcc:	01055513          	srli	a0,a0,0x10
   11dd0:	00c6a6b3          	slt	a3,a3,a2
   11dd4:	00c585b3          	add	a1,a1,a2
   11dd8:	00a50313          	addi	t1,a0,10
   11ddc:	00d50533          	add	a0,a0,a3
   11de0:	fcbd44e3          	blt	s10,a1,11da8 <matrix_test+0x298>
   11de4:	01051513          	slli	a0,a0,0x10
   11de8:	00180813          	addi	a6,a6,1
   11dec:	41055513          	srai	a0,a0,0x10
   11df0:	00488893          	addi	a7,a7,4
   11df4:	00060693          	mv	a3,a2
   11df8:	fdb866e3          	bltu	a6,s11,11dc4 <matrix_test+0x2b4>
   11dfc:	001e0e13          	addi	t3,t3,1
   11e00:	014e8eb3          	add	t4,t4,s4
   11e04:	f9be6ce3          	bltu	t3,s11,11d9c <matrix_test+0x28c>
   11e08:	00048593          	mv	a1,s1
   11e0c:	141000ef          	jal	ra,1274c <crc16>
   11e10:	02812683          	lw	a3,40(sp)
   11e14:	02012583          	lw	a1,32(sp)
   11e18:	02412603          	lw	a2,36(sp)
   11e1c:	00050493          	mv	s1,a0
   11e20:	000d8513          	mv	a0,s11
   11e24:	bddff0ef          	jal	ra,11a00 <matrix_mul_matrix_bitextract>
   11e28:	00000513          	li	a0,0
   11e2c:	00000693          	li	a3,0
   11e30:	00000593          	li	a1,0
   11e34:	00000e13          	li	t3,0
   11e38:	00c12883          	lw	a7,12(sp)
   11e3c:	00000813          	li	a6,0
   11e40:	0200006f          	j	11e60 <matrix_test+0x350>
   11e44:	01031513          	slli	a0,t1,0x10
   11e48:	00180813          	addi	a6,a6,1
   11e4c:	41055513          	srai	a0,a0,0x10
   11e50:	00000593          	li	a1,0
   11e54:	00488893          	addi	a7,a7,4
   11e58:	00060693          	mv	a3,a2
   11e5c:	03b87e63          	bleu	s11,a6,11e98 <matrix_test+0x388>
   11e60:	0008a603          	lw	a2,0(a7)
   11e64:	01051513          	slli	a0,a0,0x10
   11e68:	01055513          	srli	a0,a0,0x10
   11e6c:	00c6a6b3          	slt	a3,a3,a2
   11e70:	00c585b3          	add	a1,a1,a2
   11e74:	00a50313          	addi	t1,a0,10
   11e78:	00d50533          	add	a0,a0,a3
   11e7c:	fcbd44e3          	blt	s10,a1,11e44 <matrix_test+0x334>
   11e80:	01051513          	slli	a0,a0,0x10
   11e84:	00180813          	addi	a6,a6,1
   11e88:	41055513          	srai	a0,a0,0x10
   11e8c:	00488893          	addi	a7,a7,4
   11e90:	00060693          	mv	a3,a2
   11e94:	fdb866e3          	bltu	a6,s11,11e60 <matrix_test+0x350>
   11e98:	00c12783          	lw	a5,12(sp)
   11e9c:	001e0e13          	addi	t3,t3,1
   11ea0:	014787b3          	add	a5,a5,s4
   11ea4:	00f12623          	sw	a5,12(sp)
   11ea8:	f9be68e3          	bltu	t3,s11,11e38 <matrix_test+0x328>
   11eac:	00048593          	mv	a1,s1
   11eb0:	09d000ef          	jal	ra,1274c <crc16>
   11eb4:	00000593          	li	a1,0
   11eb8:	000b0793          	mv	a5,s6
   11ebc:	00000613          	li	a2,0
   11ec0:	0007d683          	lhu	a3,0(a5)
   11ec4:	00278793          	addi	a5,a5,2
   11ec8:	00160613          	addi	a2,a2,1
   11ecc:	408686b3          	sub	a3,a3,s0
   11ed0:	fed79f23          	sh	a3,-2(a5)
   11ed4:	ffb666e3          	bltu	a2,s11,11ec0 <matrix_test+0x3b0>
   11ed8:	01c12783          	lw	a5,28(sp)
   11edc:	00158593          	addi	a1,a1,1
   11ee0:	00fb0b33          	add	s6,s6,a5
   11ee4:	fdb5eae3          	bltu	a1,s11,11eb8 <matrix_test+0x3a8>
   11ee8:	06c12083          	lw	ra,108(sp)
   11eec:	06812403          	lw	s0,104(sp)
   11ef0:	01051513          	slli	a0,a0,0x10
   11ef4:	06412483          	lw	s1,100(sp)
   11ef8:	06012903          	lw	s2,96(sp)
   11efc:	05c12983          	lw	s3,92(sp)
   11f00:	05812a03          	lw	s4,88(sp)
   11f04:	05412a83          	lw	s5,84(sp)
   11f08:	05012b03          	lw	s6,80(sp)
   11f0c:	04c12b83          	lw	s7,76(sp)
   11f10:	04812c03          	lw	s8,72(sp)
   11f14:	04412c83          	lw	s9,68(sp)
   11f18:	04012d03          	lw	s10,64(sp)
   11f1c:	03c12d83          	lw	s11,60(sp)
   11f20:	41055513          	srai	a0,a0,0x10
   11f24:	07010113          	addi	sp,sp,112
   11f28:	00008067          	ret
   11f2c:	00000593          	li	a1,0
   11f30:	01d000ef          	jal	ra,1274c <crc16>
   11f34:	02812983          	lw	s3,40(sp)
   11f38:	02412903          	lw	s2,36(sp)
   11f3c:	02012483          	lw	s1,32(sp)
   11f40:	00098693          	mv	a3,s3
   11f44:	00090613          	mv	a2,s2
   11f48:	00050413          	mv	s0,a0
   11f4c:	00048593          	mv	a1,s1
   11f50:	00000513          	li	a0,0
   11f54:	8f9ff0ef          	jal	ra,1184c <matrix_mul_vect>
   11f58:	00040593          	mv	a1,s0
   11f5c:	00000513          	li	a0,0
   11f60:	7ec000ef          	jal	ra,1274c <crc16>
   11f64:	00098693          	mv	a3,s3
   11f68:	00090613          	mv	a2,s2
   11f6c:	00050413          	mv	s0,a0
   11f70:	00048593          	mv	a1,s1
   11f74:	00000513          	li	a0,0
   11f78:	98dff0ef          	jal	ra,11904 <matrix_mul_matrix>
   11f7c:	00040593          	mv	a1,s0
   11f80:	00000513          	li	a0,0
   11f84:	7c8000ef          	jal	ra,1274c <crc16>
   11f88:	00050413          	mv	s0,a0
   11f8c:	00048593          	mv	a1,s1
   11f90:	00098693          	mv	a3,s3
   11f94:	00090613          	mv	a2,s2
   11f98:	00000513          	li	a0,0
   11f9c:	a65ff0ef          	jal	ra,11a00 <matrix_mul_matrix_bitextract>
   11fa0:	00040593          	mv	a1,s0
   11fa4:	00000513          	li	a0,0
   11fa8:	7a4000ef          	jal	ra,1274c <crc16>
   11fac:	f3dff06f          	j	11ee8 <matrix_test+0x3d8>

00011fb0 <core_bench_matrix>:
   11fb0:	ff010113          	addi	sp,sp,-16
   11fb4:	00812423          	sw	s0,8(sp)
   11fb8:	00058713          	mv	a4,a1
   11fbc:	00060413          	mv	s0,a2
   11fc0:	00c52583          	lw	a1,12(a0)
   11fc4:	00852683          	lw	a3,8(a0)
   11fc8:	00452603          	lw	a2,4(a0)
   11fcc:	00052503          	lw	a0,0(a0)
   11fd0:	00112623          	sw	ra,12(sp)
   11fd4:	b3dff0ef          	jal	ra,11b10 <matrix_test>
   11fd8:	00040593          	mv	a1,s0
   11fdc:	00812403          	lw	s0,8(sp)
   11fe0:	00c12083          	lw	ra,12(sp)
   11fe4:	01010113          	addi	sp,sp,16
   11fe8:	7640006f          	j	1274c <crc16>

00011fec <core_init_state>:
   11fec:	00000f13          	li	t5,0
   11ff0:	00000e93          	li	t4,0
   11ff4:	00158593          	addi	a1,a1,1
   11ff8:	01ee8fb3          	add	t6,t4,t5
   11ffc:	01059593          	slli	a1,a1,0x10
   12000:	00024837          	lui	a6,0x24
   12004:	00024337          	lui	t1,0x24
   12008:	fff50693          	addi	a3,a0,-1
   1200c:	001f8293          	addi	t0,t6,1
   12010:	0105d593          	srli	a1,a1,0x10
   12014:	00000793          	li	a5,0
   12018:	02c00e13          	li	t3,44
   1201c:	00400893          	li	a7,4
   12020:	0d880813          	addi	a6,a6,216 # 240d8 <intpat>
   12024:	0c430313          	addi	t1,t1,196 # 240c4 <state_known_crc+0x43c>
   12028:	04d2fe63          	bleu	a3,t0,12084 <core_init_state+0x98>
   1202c:	080f1663          	bnez	t5,120b8 <core_init_state+0xcc>
   12030:	0075f793          	andi	a5,a1,7
   12034:	ffd78793          	addi	a5,a5,-3
   12038:	01079793          	slli	a5,a5,0x10
   1203c:	0035d713          	srli	a4,a1,0x3
   12040:	0107d793          	srli	a5,a5,0x10
   12044:	00377713          	andi	a4,a4,3
   12048:	0af8ea63          	bltu	a7,a5,120fc <core_init_state+0x110>
   1204c:	00279793          	slli	a5,a5,0x2
   12050:	006787b3          	add	a5,a5,t1
   12054:	0007a783          	lw	a5,0(a5)
   12058:	00271713          	slli	a4,a4,0x2
   1205c:	00e80733          	add	a4,a6,a4
   12060:	00078067          	jr	a5
   12064:	01072783          	lw	a5,16(a4)
   12068:	00800f13          	li	t5,8
   1206c:	00158593          	addi	a1,a1,1
   12070:	01ee8fb3          	add	t6,t4,t5
   12074:	01059593          	slli	a1,a1,0x10
   12078:	001f8293          	addi	t0,t6,1
   1207c:	0105d593          	srli	a1,a1,0x10
   12080:	fad2e6e3          	bltu	t0,a3,1202c <core_init_state+0x40>
   12084:	01d607b3          	add	a5,a2,t4
   12088:	00a60633          	add	a2,a2,a0
   1208c:	00aef863          	bleu	a0,t4,1209c <core_init_state+0xb0>
   12090:	00078023          	sb	zero,0(a5)
   12094:	00178793          	addi	a5,a5,1
   12098:	fef61ce3          	bne	a2,a5,12090 <core_init_state+0xa4>
   1209c:	00008067          	ret
   120a0:	02072783          	lw	a5,32(a4)
   120a4:	00800f13          	li	t5,8
   120a8:	fc5ff06f          	j	1206c <core_init_state+0x80>
   120ac:	03072783          	lw	a5,48(a4)
   120b0:	00800f13          	li	t5,8
   120b4:	fb9ff06f          	j	1206c <core_init_state+0x80>
   120b8:	01d60733          	add	a4,a2,t4
   120bc:	01e78f33          	add	t5,a5,t5
   120c0:	0007ce83          	lbu	t4,0(a5)
   120c4:	00170713          	addi	a4,a4,1
   120c8:	00178793          	addi	a5,a5,1
   120cc:	ffd70fa3          	sb	t4,-1(a4)
   120d0:	feff18e3          	bne	t5,a5,120c0 <core_init_state+0xd4>
   120d4:	0075f793          	andi	a5,a1,7
   120d8:	ffd78793          	addi	a5,a5,-3
   120dc:	01f60fb3          	add	t6,a2,t6
   120e0:	01079793          	slli	a5,a5,0x10
   120e4:	0035d713          	srli	a4,a1,0x3
   120e8:	01cf8023          	sb	t3,0(t6)
   120ec:	0107d793          	srli	a5,a5,0x10
   120f0:	00028e93          	mv	t4,t0
   120f4:	00377713          	andi	a4,a4,3
   120f8:	f4f8fae3          	bleu	a5,a7,1204c <core_init_state+0x60>
   120fc:	00271713          	slli	a4,a4,0x2
   12100:	00e80733          	add	a4,a6,a4
   12104:	00072783          	lw	a5,0(a4)
   12108:	00400f13          	li	t5,4
   1210c:	f61ff06f          	j	1206c <core_init_state+0x80>

00012110 <core_state_transition>:
   12110:	00052783          	lw	a5,0(a0)
   12114:	0007c683          	lbu	a3,0(a5)
   12118:	2e068863          	beqz	a3,12408 <core_state_transition+0x2f8>
   1211c:	02c00813          	li	a6,44
   12120:	00178713          	addi	a4,a5,1
   12124:	2b068e63          	beq	a3,a6,123e0 <core_state_transition+0x2d0>
   12128:	0005a883          	lw	a7,0(a1)
   1212c:	fd068613          	addi	a2,a3,-48
   12130:	0ff67613          	andi	a2,a2,255
   12134:	00900313          	li	t1,9
   12138:	00188893          	addi	a7,a7,1
   1213c:	0ac36c63          	bltu	t1,a2,121f4 <core_state_transition+0xe4>
   12140:	0115a023          	sw	a7,0(a1)
   12144:	0017c683          	lbu	a3,1(a5)
   12148:	16068463          	beqz	a3,122b0 <core_state_transition+0x1a0>
   1214c:	00278793          	addi	a5,a5,2
   12150:	15068e63          	beq	a3,a6,122ac <core_state_transition+0x19c>
   12154:	fd068613          	addi	a2,a3,-48
   12158:	02e00813          	li	a6,46
   1215c:	00900893          	li	a7,9
   12160:	02c00313          	li	t1,44
   12164:	0ff67613          	andi	a2,a2,255
   12168:	03068663          	beq	a3,a6,12194 <core_state_transition+0x84>
   1216c:	0cc8e063          	bltu	a7,a2,1222c <core_state_transition+0x11c>
   12170:	00174683          	lbu	a3,1(a4)
   12174:	00178613          	addi	a2,a5,1
   12178:	00078713          	mv	a4,a5
   1217c:	12068863          	beqz	a3,122ac <core_state_transition+0x19c>
   12180:	2a668a63          	beq	a3,t1,12434 <core_state_transition+0x324>
   12184:	00060793          	mv	a5,a2
   12188:	fd068613          	addi	a2,a3,-48
   1218c:	0ff67613          	andi	a2,a2,255
   12190:	fd069ee3          	bne	a3,a6,1216c <core_state_transition+0x5c>
   12194:	0105a683          	lw	a3,16(a1)
   12198:	00168693          	addi	a3,a3,1
   1219c:	00d5a823          	sw	a3,16(a1)
   121a0:	00174683          	lbu	a3,1(a4)
   121a4:	28068263          	beqz	a3,12428 <core_state_transition+0x318>
   121a8:	02c00713          	li	a4,44
   121ac:	00178613          	addi	a2,a5,1
   121b0:	22e68263          	beq	a3,a4,123d4 <core_state_transition+0x2c4>
   121b4:	04500813          	li	a6,69
   121b8:	00900893          	li	a7,9
   121bc:	02c00313          	li	t1,44
   121c0:	fd068713          	addi	a4,a3,-48
   121c4:	0df6f693          	andi	a3,a3,223
   121c8:	0ff77713          	andi	a4,a4,255
   121cc:	0f068663          	beq	a3,a6,122b8 <core_state_transition+0x1a8>
   121d0:	1ae8fa63          	bleu	a4,a7,12384 <core_state_transition+0x274>
   121d4:	0145a683          	lw	a3,20(a1)
   121d8:	00060713          	mv	a4,a2
   121dc:	00100793          	li	a5,1
   121e0:	00168693          	addi	a3,a3,1
   121e4:	00d5aa23          	sw	a3,20(a1)
   121e8:	00e52023          	sw	a4,0(a0)
   121ec:	00078513          	mv	a0,a5
   121f0:	00008067          	ret
   121f4:	02b00613          	li	a2,43
   121f8:	04c68a63          	beq	a3,a2,1224c <core_state_transition+0x13c>
   121fc:	02d00613          	li	a2,45
   12200:	04c68663          	beq	a3,a2,1224c <core_state_transition+0x13c>
   12204:	02e00613          	li	a2,46
   12208:	18c68c63          	beq	a3,a2,123a0 <core_state_transition+0x290>
   1220c:	0045a683          	lw	a3,4(a1)
   12210:	0115a023          	sw	a7,0(a1)
   12214:	00100793          	li	a5,1
   12218:	00168693          	addi	a3,a3,1
   1221c:	00d5a223          	sw	a3,4(a1)
   12220:	00e52023          	sw	a4,0(a0)
   12224:	00078513          	mv	a0,a5
   12228:	00008067          	ret
   1222c:	0105a683          	lw	a3,16(a1)
   12230:	00078713          	mv	a4,a5
   12234:	00100793          	li	a5,1
   12238:	00168693          	addi	a3,a3,1
   1223c:	00d5a823          	sw	a3,16(a1)
   12240:	00e52023          	sw	a4,0(a0)
   12244:	00078513          	mv	a0,a5
   12248:	00008067          	ret
   1224c:	0115a023          	sw	a7,0(a1)
   12250:	0017c883          	lbu	a7,1(a5)
   12254:	1c088063          	beqz	a7,12414 <core_state_transition+0x304>
   12258:	00278713          	addi	a4,a5,2
   1225c:	1b088c63          	beq	a7,a6,12414 <core_state_transition+0x304>
   12260:	0085a603          	lw	a2,8(a1)
   12264:	fd088693          	addi	a3,a7,-48
   12268:	0ff6f693          	andi	a3,a3,255
   1226c:	00900813          	li	a6,9
   12270:	00160613          	addi	a2,a2,1
   12274:	02d87063          	bleu	a3,a6,12294 <core_state_transition+0x184>
   12278:	02e00693          	li	a3,46
   1227c:	14d88063          	beq	a7,a3,123bc <core_state_transition+0x2ac>
   12280:	00c5a423          	sw	a2,8(a1)
   12284:	00100793          	li	a5,1
   12288:	00e52023          	sw	a4,0(a0)
   1228c:	00078513          	mv	a0,a5
   12290:	00008067          	ret
   12294:	00c5a423          	sw	a2,8(a1)
   12298:	0027c683          	lbu	a3,2(a5)
   1229c:	00068a63          	beqz	a3,122b0 <core_state_transition+0x1a0>
   122a0:	02c00613          	li	a2,44
   122a4:	00170793          	addi	a5,a4,1
   122a8:	eac696e3          	bne	a3,a2,12154 <core_state_transition+0x44>
   122ac:	00078713          	mv	a4,a5
   122b0:	00400793          	li	a5,4
   122b4:	f8dff06f          	j	12240 <core_state_transition+0x130>
   122b8:	0145a703          	lw	a4,20(a1)
   122bc:	00170713          	addi	a4,a4,1
   122c0:	00e5aa23          	sw	a4,20(a1)
   122c4:	0017c783          	lbu	a5,1(a5)
   122c8:	12078a63          	beqz	a5,123fc <core_state_transition+0x2ec>
   122cc:	02c00813          	li	a6,44
   122d0:	00160713          	addi	a4,a2,1
   122d4:	13078663          	beq	a5,a6,12400 <core_state_transition+0x2f0>
   122d8:	00c5a683          	lw	a3,12(a1)
   122dc:	fd578793          	addi	a5,a5,-43
   122e0:	0fd7f793          	andi	a5,a5,253
   122e4:	00168693          	addi	a3,a3,1
   122e8:	00d5a623          	sw	a3,12(a1)
   122ec:	00078a63          	beqz	a5,12300 <core_state_transition+0x1f0>
   122f0:	00100793          	li	a5,1
   122f4:	00e52023          	sw	a4,0(a0)
   122f8:	00078513          	mv	a0,a5
   122fc:	00008067          	ret
   12300:	00164783          	lbu	a5,1(a2)
   12304:	0e078863          	beqz	a5,123f4 <core_state_transition+0x2e4>
   12308:	00260713          	addi	a4,a2,2
   1230c:	0f078463          	beq	a5,a6,123f4 <core_state_transition+0x2e4>
   12310:	0185a683          	lw	a3,24(a1)
   12314:	fd078793          	addi	a5,a5,-48
   12318:	0ff7f793          	andi	a5,a5,255
   1231c:	00168693          	addi	a3,a3,1
   12320:	00900893          	li	a7,9
   12324:	00d5ac23          	sw	a3,24(a1)
   12328:	fcf8e4e3          	bltu	a7,a5,122f0 <core_state_transition+0x1e0>
   1232c:	00264683          	lbu	a3,2(a2)
   12330:	0a068e63          	beqz	a3,123ec <core_state_transition+0x2dc>
   12334:	00360793          	addi	a5,a2,3
   12338:	0b068863          	beq	a3,a6,123e8 <core_state_transition+0x2d8>
   1233c:	00900613          	li	a2,9
   12340:	02c00893          	li	a7,44
   12344:	fd068693          	addi	a3,a3,-48
   12348:	0ff6f693          	andi	a3,a3,255
   1234c:	00d67e63          	bleu	a3,a2,12368 <core_state_transition+0x258>
   12350:	0045a683          	lw	a3,4(a1)
   12354:	00078713          	mv	a4,a5
   12358:	00100793          	li	a5,1
   1235c:	00168693          	addi	a3,a3,1
   12360:	00d5a223          	sw	a3,4(a1)
   12364:	eddff06f          	j	12240 <core_state_transition+0x130>
   12368:	00174683          	lbu	a3,1(a4)
   1236c:	00178813          	addi	a6,a5,1
   12370:	00078713          	mv	a4,a5
   12374:	06068a63          	beqz	a3,123e8 <core_state_transition+0x2d8>
   12378:	0b168263          	beq	a3,a7,1241c <core_state_transition+0x30c>
   1237c:	00080793          	mv	a5,a6
   12380:	fc5ff06f          	j	12344 <core_state_transition+0x234>
   12384:	0017c683          	lbu	a3,1(a5)
   12388:	00160713          	addi	a4,a2,1
   1238c:	00060793          	mv	a5,a2
   12390:	04068263          	beqz	a3,123d4 <core_state_transition+0x2c4>
   12394:	04668263          	beq	a3,t1,123d8 <core_state_transition+0x2c8>
   12398:	00070613          	mv	a2,a4
   1239c:	e25ff06f          	j	121c0 <core_state_transition+0xb0>
   123a0:	0115a023          	sw	a7,0(a1)
   123a4:	0017c683          	lbu	a3,1(a5)
   123a8:	02068863          	beqz	a3,123d8 <core_state_transition+0x2c8>
   123ac:	00278613          	addi	a2,a5,2
   123b0:	03068263          	beq	a3,a6,123d4 <core_state_transition+0x2c4>
   123b4:	00070793          	mv	a5,a4
   123b8:	dfdff06f          	j	121b4 <core_state_transition+0xa4>
   123bc:	00c5a423          	sw	a2,8(a1)
   123c0:	0027c683          	lbu	a3,2(a5)
   123c4:	00068a63          	beqz	a3,123d8 <core_state_transition+0x2c8>
   123c8:	02c00793          	li	a5,44
   123cc:	00170613          	addi	a2,a4,1
   123d0:	fef692e3          	bne	a3,a5,123b4 <core_state_transition+0x2a4>
   123d4:	00060713          	mv	a4,a2
   123d8:	00500793          	li	a5,5
   123dc:	e65ff06f          	j	12240 <core_state_transition+0x130>
   123e0:	00000793          	li	a5,0
   123e4:	e5dff06f          	j	12240 <core_state_transition+0x130>
   123e8:	00078713          	mv	a4,a5
   123ec:	00700793          	li	a5,7
   123f0:	e51ff06f          	j	12240 <core_state_transition+0x130>
   123f4:	00600793          	li	a5,6
   123f8:	e49ff06f          	j	12240 <core_state_transition+0x130>
   123fc:	00060713          	mv	a4,a2
   12400:	00300793          	li	a5,3
   12404:	e3dff06f          	j	12240 <core_state_transition+0x130>
   12408:	00078713          	mv	a4,a5
   1240c:	00000793          	li	a5,0
   12410:	e31ff06f          	j	12240 <core_state_transition+0x130>
   12414:	00200793          	li	a5,2
   12418:	e29ff06f          	j	12240 <core_state_transition+0x130>
   1241c:	00080713          	mv	a4,a6
   12420:	00700793          	li	a5,7
   12424:	e1dff06f          	j	12240 <core_state_transition+0x130>
   12428:	00078713          	mv	a4,a5
   1242c:	00500793          	li	a5,5
   12430:	e11ff06f          	j	12240 <core_state_transition+0x130>
   12434:	00060713          	mv	a4,a2
   12438:	00400793          	li	a5,4
   1243c:	e05ff06f          	j	12240 <core_state_transition+0x130>

00012440 <core_bench_state>:
   12440:	f8010113          	addi	sp,sp,-128
   12444:	06912a23          	sw	s1,116(sp)
   12448:	07212823          	sw	s2,112(sp)
   1244c:	01010493          	addi	s1,sp,16
   12450:	03010913          	addi	s2,sp,48
   12454:	06812c23          	sw	s0,120(sp)
   12458:	07312623          	sw	s3,108(sp)
   1245c:	07412423          	sw	s4,104(sp)
   12460:	07512223          	sw	s5,100(sp)
   12464:	07612023          	sw	s6,96(sp)
   12468:	05812c23          	sw	s8,88(sp)
   1246c:	00068a93          	mv	s5,a3
   12470:	00070993          	mv	s3,a4
   12474:	00078a13          	mv	s4,a5
   12478:	06112e23          	sw	ra,124(sp)
   1247c:	05712e23          	sw	s7,92(sp)
   12480:	00058413          	mv	s0,a1
   12484:	00050c13          	mv	s8,a0
   12488:	00060b13          	mv	s6,a2
   1248c:	00b12623          	sw	a1,12(sp)
   12490:	05010693          	addi	a3,sp,80
   12494:	00048713          	mv	a4,s1
   12498:	00090793          	mv	a5,s2
   1249c:	0007a023          	sw	zero,0(a5)
   124a0:	00072023          	sw	zero,0(a4)
   124a4:	00478793          	addi	a5,a5,4
   124a8:	00470713          	addi	a4,a4,4
   124ac:	fed798e3          	bne	a5,a3,1249c <core_bench_state+0x5c>
   124b0:	00044703          	lbu	a4,0(s0)
   124b4:	12070e63          	beqz	a4,125f0 <core_bench_state+0x1b0>
   124b8:	00c10b93          	addi	s7,sp,12
   124bc:	03010593          	addi	a1,sp,48
   124c0:	000b8513          	mv	a0,s7
   124c4:	c4dff0ef          	jal	ra,12110 <core_state_transition>
   124c8:	05010793          	addi	a5,sp,80
   124cc:	00251513          	slli	a0,a0,0x2
   124d0:	00a78533          	add	a0,a5,a0
   124d4:	00c12703          	lw	a4,12(sp)
   124d8:	fc052783          	lw	a5,-64(a0)
   124dc:	00074703          	lbu	a4,0(a4)
   124e0:	00178793          	addi	a5,a5,1
   124e4:	fcf52023          	sw	a5,-64(a0)
   124e8:	fc071ae3          	bnez	a4,124bc <core_bench_state+0x7c>
   124ec:	00812623          	sw	s0,12(sp)
   124f0:	01840c33          	add	s8,s0,s8
   124f4:	00044703          	lbu	a4,0(s0)
   124f8:	11847463          	bleu	s8,s0,12600 <core_bench_state+0x1c0>
   124fc:	00040793          	mv	a5,s0
   12500:	02c00613          	li	a2,44
   12504:	0080006f          	j	1250c <core_bench_state+0xcc>
   12508:	0007c703          	lbu	a4,0(a5)
   1250c:	016746b3          	xor	a3,a4,s6
   12510:	00c70463          	beq	a4,a2,12518 <core_bench_state+0xd8>
   12514:	00d78023          	sb	a3,0(a5)
   12518:	00c12783          	lw	a5,12(sp)
   1251c:	013787b3          	add	a5,a5,s3
   12520:	00f12623          	sw	a5,12(sp)
   12524:	ff87e2e3          	bltu	a5,s8,12508 <core_bench_state+0xc8>
   12528:	00044783          	lbu	a5,0(s0)
   1252c:	00812623          	sw	s0,12(sp)
   12530:	00c10b93          	addi	s7,sp,12
   12534:	02078e63          	beqz	a5,12570 <core_bench_state+0x130>
   12538:	03010593          	addi	a1,sp,48
   1253c:	000b8513          	mv	a0,s7
   12540:	bd1ff0ef          	jal	ra,12110 <core_state_transition>
   12544:	05010793          	addi	a5,sp,80
   12548:	00251513          	slli	a0,a0,0x2
   1254c:	00a78533          	add	a0,a5,a0
   12550:	00c12703          	lw	a4,12(sp)
   12554:	fc052783          	lw	a5,-64(a0)
   12558:	00074703          	lbu	a4,0(a4)
   1255c:	00178793          	addi	a5,a5,1
   12560:	fcf52023          	sw	a5,-64(a0)
   12564:	fc071ae3          	bnez	a4,12538 <core_bench_state+0xf8>
   12568:	00812623          	sw	s0,12(sp)
   1256c:	03847463          	bleu	s8,s0,12594 <core_bench_state+0x154>
   12570:	02c00693          	li	a3,44
   12574:	00044783          	lbu	a5,0(s0)
   12578:	0157c733          	xor	a4,a5,s5
   1257c:	00d78463          	beq	a5,a3,12584 <core_bench_state+0x144>
   12580:	00e40023          	sb	a4,0(s0)
   12584:	00c12403          	lw	s0,12(sp)
   12588:	01340433          	add	s0,s0,s3
   1258c:	00812623          	sw	s0,12(sp)
   12590:	ff8462e3          	bltu	s0,s8,12574 <core_bench_state+0x134>
   12594:	02048413          	addi	s0,s1,32
   12598:	0004a503          	lw	a0,0(s1)
   1259c:	000a0593          	mv	a1,s4
   125a0:	00448493          	addi	s1,s1,4
   125a4:	174000ef          	jal	ra,12718 <crcu32>
   125a8:	00050593          	mv	a1,a0
   125ac:	00092503          	lw	a0,0(s2)
   125b0:	00490913          	addi	s2,s2,4
   125b4:	164000ef          	jal	ra,12718 <crcu32>
   125b8:	00050a13          	mv	s4,a0
   125bc:	fc941ee3          	bne	s0,s1,12598 <core_bench_state+0x158>
   125c0:	07c12083          	lw	ra,124(sp)
   125c4:	07812403          	lw	s0,120(sp)
   125c8:	07412483          	lw	s1,116(sp)
   125cc:	07012903          	lw	s2,112(sp)
   125d0:	06c12983          	lw	s3,108(sp)
   125d4:	06812a03          	lw	s4,104(sp)
   125d8:	06412a83          	lw	s5,100(sp)
   125dc:	06012b03          	lw	s6,96(sp)
   125e0:	05c12b83          	lw	s7,92(sp)
   125e4:	05812c03          	lw	s8,88(sp)
   125e8:	08010113          	addi	sp,sp,128
   125ec:	00008067          	ret
   125f0:	00812623          	sw	s0,12(sp)
   125f4:	01840c33          	add	s8,s0,s8
   125f8:	f18462e3          	bltu	s0,s8,124fc <core_bench_state+0xbc>
   125fc:	f99ff06f          	j	12594 <core_bench_state+0x154>
   12600:	f2071ce3          	bnez	a4,12538 <core_bench_state+0xf8>
   12604:	f91ff06f          	j	12594 <core_bench_state+0x154>

00012608 <get_seed_32>:
   12608:	00500793          	li	a5,5
   1260c:	04a7e263          	bltu	a5,a0,12650 <get_seed_32+0x48>
   12610:	000247b7          	lui	a5,0x24
   12614:	1c878793          	addi	a5,a5,456 # 241c8 <errpat+0xc0>
   12618:	00251513          	slli	a0,a0,0x2
   1261c:	00f50533          	add	a0,a0,a5
   12620:	00052783          	lw	a5,0(a0)
   12624:	00078067          	jr	a5
   12628:	8441a503          	lw	a0,-1980(gp) # 25ab4 <seed5_volatile>
   1262c:	00008067          	ret
   12630:	8501a503          	lw	a0,-1968(gp) # 25ac0 <seed1_volatile>
   12634:	00008067          	ret
   12638:	84c1a503          	lw	a0,-1972(gp) # 25abc <seed2_volatile>
   1263c:	00008067          	ret
   12640:	82c1a503          	lw	a0,-2004(gp) # 25a9c <seed3_volatile>
   12644:	00008067          	ret
   12648:	8481a503          	lw	a0,-1976(gp) # 25ab8 <seed4_volatile>
   1264c:	00008067          	ret
   12650:	00000513          	li	a0,0
   12654:	00008067          	ret

00012658 <crcu8>:
   12658:	ffffa637          	lui	a2,0xffffa
   1265c:	00800793          	li	a5,8
   12660:	00160613          	addi	a2,a2,1 # ffffa001 <__global_pointer$+0xfffd3d91>
   12664:	00a5c733          	xor	a4,a1,a0
   12668:	fff78793          	addi	a5,a5,-1
   1266c:	0015d593          	srli	a1,a1,0x1
   12670:	00177713          	andi	a4,a4,1
   12674:	0ff7f793          	andi	a5,a5,255
   12678:	00c5c6b3          	xor	a3,a1,a2
   1267c:	00155513          	srli	a0,a0,0x1
   12680:	00070663          	beqz	a4,1268c <crcu8+0x34>
   12684:	01069593          	slli	a1,a3,0x10
   12688:	0105d593          	srli	a1,a1,0x10
   1268c:	fc079ce3          	bnez	a5,12664 <crcu8+0xc>
   12690:	00058513          	mv	a0,a1
   12694:	00008067          	ret

00012698 <crcu16>:
   12698:	ffffa837          	lui	a6,0xffffa
   1269c:	0ff57693          	andi	a3,a0,255
   126a0:	00800793          	li	a5,8
   126a4:	00180813          	addi	a6,a6,1 # ffffa001 <__global_pointer$+0xfffd3d91>
   126a8:	00d5c733          	xor	a4,a1,a3
   126ac:	fff78793          	addi	a5,a5,-1
   126b0:	0015d593          	srli	a1,a1,0x1
   126b4:	00177713          	andi	a4,a4,1
   126b8:	0ff7f793          	andi	a5,a5,255
   126bc:	0105c633          	xor	a2,a1,a6
   126c0:	0016d693          	srli	a3,a3,0x1
   126c4:	00070663          	beqz	a4,126d0 <crcu16+0x38>
   126c8:	01061593          	slli	a1,a2,0x10
   126cc:	0105d593          	srli	a1,a1,0x10
   126d0:	fc079ce3          	bnez	a5,126a8 <crcu16+0x10>
   126d4:	ffffa637          	lui	a2,0xffffa
   126d8:	00855513          	srli	a0,a0,0x8
   126dc:	00800793          	li	a5,8
   126e0:	00160613          	addi	a2,a2,1 # ffffa001 <__global_pointer$+0xfffd3d91>
   126e4:	00a5c733          	xor	a4,a1,a0
   126e8:	fff78793          	addi	a5,a5,-1
   126ec:	0015d593          	srli	a1,a1,0x1
   126f0:	00177713          	andi	a4,a4,1
   126f4:	0ff7f793          	andi	a5,a5,255
   126f8:	00c5c6b3          	xor	a3,a1,a2
   126fc:	00155513          	srli	a0,a0,0x1
   12700:	00070663          	beqz	a4,1270c <crcu16+0x74>
   12704:	01069593          	slli	a1,a3,0x10
   12708:	0105d593          	srli	a1,a1,0x10
   1270c:	fc079ce3          	bnez	a5,126e4 <crcu16+0x4c>
   12710:	00058513          	mv	a0,a1
   12714:	00008067          	ret

00012718 <crcu32>:
   12718:	ff010113          	addi	sp,sp,-16
   1271c:	00812423          	sw	s0,8(sp)
   12720:	00050413          	mv	s0,a0
   12724:	01051513          	slli	a0,a0,0x10
   12728:	01055513          	srli	a0,a0,0x10
   1272c:	00112623          	sw	ra,12(sp)
   12730:	f69ff0ef          	jal	ra,12698 <crcu16>
   12734:	00050593          	mv	a1,a0
   12738:	01045513          	srli	a0,s0,0x10
   1273c:	00812403          	lw	s0,8(sp)
   12740:	00c12083          	lw	ra,12(sp)
   12744:	01010113          	addi	sp,sp,16
   12748:	f51ff06f          	j	12698 <crcu16>

0001274c <crc16>:
   1274c:	01051513          	slli	a0,a0,0x10
   12750:	01055513          	srli	a0,a0,0x10
   12754:	f45ff06f          	j	12698 <crcu16>

00012758 <check_data_types>:
   12758:	00000513          	li	a0,0
   1275c:	00008067          	ret

00012760 <start_time>:
   12760:	ff010113          	addi	sp,sp,-16
   12764:	00112623          	sw	ra,12(sp)
   12768:	459000ef          	jal	ra,133c0 <clock>
   1276c:	00c12083          	lw	ra,12(sp)
   12770:	84a1a023          	sw	a0,-1984(gp) # 25ab0 <start_time_val>
   12774:	01010113          	addi	sp,sp,16
   12778:	00008067          	ret

0001277c <stop_time>:
   1277c:	ff010113          	addi	sp,sp,-16
   12780:	00112623          	sw	ra,12(sp)
   12784:	43d000ef          	jal	ra,133c0 <clock>
   12788:	00c12083          	lw	ra,12(sp)
   1278c:	82a1ae23          	sw	a0,-1988(gp) # 25aac <_edata>
   12790:	01010113          	addi	sp,sp,16
   12794:	00008067          	ret

00012798 <get_time>:
   12798:	83c1a503          	lw	a0,-1988(gp) # 25aac <_edata>
   1279c:	8401a783          	lw	a5,-1984(gp) # 25ab0 <start_time_val>
   127a0:	40f50533          	sub	a0,a0,a5
   127a4:	00008067          	ret

000127a8 <time_in_secs>:
   127a8:	ff010113          	addi	sp,sp,-16
   127ac:	00112623          	sw	ra,12(sp)
   127b0:	251000ef          	jal	ra,13200 <__floatunsidf>
   127b4:	000267b7          	lui	a5,0x26
   127b8:	a807a603          	lw	a2,-1408(a5) # 25a80 <__TMC_END__+0x14>
   127bc:	a847a683          	lw	a3,-1404(a5)
   127c0:	024000ef          	jal	ra,127e4 <__divdf3>
   127c4:	00c12083          	lw	ra,12(sp)
   127c8:	01010113          	addi	sp,sp,16
   127cc:	00008067          	ret

000127d0 <portable_init>:
   127d0:	00100793          	li	a5,1
   127d4:	00f50023          	sb	a5,0(a0)
   127d8:	00008067          	ret

000127dc <portable_fini>:
   127dc:	00050023          	sb	zero,0(a0)
   127e0:	00008067          	ret

000127e4 <__divdf3>:
   127e4:	fb010113          	addi	sp,sp,-80
   127e8:	03312e23          	sw	s3,60(sp)
   127ec:	0145d993          	srli	s3,a1,0x14
   127f0:	04912223          	sw	s1,68(sp)
   127f4:	05212023          	sw	s2,64(sp)
   127f8:	03412c23          	sw	s4,56(sp)
   127fc:	03512a23          	sw	s5,52(sp)
   12800:	03612823          	sw	s6,48(sp)
   12804:	00c59493          	slli	s1,a1,0xc
   12808:	04112623          	sw	ra,76(sp)
   1280c:	04812423          	sw	s0,72(sp)
   12810:	03712623          	sw	s7,44(sp)
   12814:	03812423          	sw	s8,40(sp)
   12818:	03912223          	sw	s9,36(sp)
   1281c:	03a12023          	sw	s10,32(sp)
   12820:	01b12e23          	sw	s11,28(sp)
   12824:	7ff9f993          	andi	s3,s3,2047
   12828:	00050913          	mv	s2,a0
   1282c:	00060b13          	mv	s6,a2
   12830:	00068a93          	mv	s5,a3
   12834:	00c4d493          	srli	s1,s1,0xc
   12838:	01f5da13          	srli	s4,a1,0x1f
   1283c:	0a098263          	beqz	s3,128e0 <__divdf3+0xfc>
   12840:	7ff00793          	li	a5,2047
   12844:	10f98063          	beq	s3,a5,12944 <__divdf3+0x160>
   12848:	01d55c93          	srli	s9,a0,0x1d
   1284c:	00349493          	slli	s1,s1,0x3
   12850:	009ce4b3          	or	s1,s9,s1
   12854:	00800cb7          	lui	s9,0x800
   12858:	0194ecb3          	or	s9,s1,s9
   1285c:	00351413          	slli	s0,a0,0x3
   12860:	c0198993          	addi	s3,s3,-1023
   12864:	00000b93          	li	s7,0
   12868:	014ad513          	srli	a0,s5,0x14
   1286c:	00ca9493          	slli	s1,s5,0xc
   12870:	7ff57513          	andi	a0,a0,2047
   12874:	000b0813          	mv	a6,s6
   12878:	00c4d493          	srli	s1,s1,0xc
   1287c:	01fada93          	srli	s5,s5,0x1f
   12880:	10050063          	beqz	a0,12980 <__divdf3+0x19c>
   12884:	7ff00793          	li	a5,2047
   12888:	16f50063          	beq	a0,a5,129e8 <__divdf3+0x204>
   1288c:	01db5793          	srli	a5,s6,0x1d
   12890:	00349493          	slli	s1,s1,0x3
   12894:	0097e7b3          	or	a5,a5,s1
   12898:	00800937          	lui	s2,0x800
   1289c:	0127e933          	or	s2,a5,s2
   128a0:	003b1813          	slli	a6,s6,0x3
   128a4:	c0150513          	addi	a0,a0,-1023
   128a8:	00000793          	li	a5,0
   128ac:	002b9713          	slli	a4,s7,0x2
   128b0:	00f76733          	or	a4,a4,a5
   128b4:	fff70713          	addi	a4,a4,-1
   128b8:	00e00693          	li	a3,14
   128bc:	015a44b3          	xor	s1,s4,s5
   128c0:	40a989b3          	sub	s3,s3,a0
   128c4:	14e6ee63          	bltu	a3,a4,12a20 <__divdf3+0x23c>
   128c8:	000246b7          	lui	a3,0x24
   128cc:	00271713          	slli	a4,a4,0x2
   128d0:	1e068693          	addi	a3,a3,480 # 241e0 <errpat+0xd8>
   128d4:	00d70733          	add	a4,a4,a3
   128d8:	00072703          	lw	a4,0(a4)
   128dc:	00070067          	jr	a4
   128e0:	00a4ecb3          	or	s9,s1,a0
   128e4:	060c8e63          	beqz	s9,12960 <__divdf3+0x17c>
   128e8:	04048063          	beqz	s1,12928 <__divdf3+0x144>
   128ec:	00048513          	mv	a0,s1
   128f0:	271000ef          	jal	ra,13360 <__clzsi2>
   128f4:	ff550793          	addi	a5,a0,-11
   128f8:	01c00713          	li	a4,28
   128fc:	02f74c63          	blt	a4,a5,12934 <__divdf3+0x150>
   12900:	01d00c93          	li	s9,29
   12904:	ff850413          	addi	s0,a0,-8
   12908:	40fc8cb3          	sub	s9,s9,a5
   1290c:	008494b3          	sll	s1,s1,s0
   12910:	01995cb3          	srl	s9,s2,s9
   12914:	009cecb3          	or	s9,s9,s1
   12918:	00891433          	sll	s0,s2,s0
   1291c:	c0d00993          	li	s3,-1011
   12920:	40a989b3          	sub	s3,s3,a0
   12924:	f41ff06f          	j	12864 <__divdf3+0x80>
   12928:	239000ef          	jal	ra,13360 <__clzsi2>
   1292c:	02050513          	addi	a0,a0,32
   12930:	fc5ff06f          	j	128f4 <__divdf3+0x110>
   12934:	fd850493          	addi	s1,a0,-40
   12938:	00991cb3          	sll	s9,s2,s1
   1293c:	00000413          	li	s0,0
   12940:	fddff06f          	j	1291c <__divdf3+0x138>
   12944:	00a4ecb3          	or	s9,s1,a0
   12948:	020c8463          	beqz	s9,12970 <__divdf3+0x18c>
   1294c:	00050413          	mv	s0,a0
   12950:	00048c93          	mv	s9,s1
   12954:	7ff00993          	li	s3,2047
   12958:	00300b93          	li	s7,3
   1295c:	f0dff06f          	j	12868 <__divdf3+0x84>
   12960:	00000413          	li	s0,0
   12964:	00000993          	li	s3,0
   12968:	00100b93          	li	s7,1
   1296c:	efdff06f          	j	12868 <__divdf3+0x84>
   12970:	00000413          	li	s0,0
   12974:	7ff00993          	li	s3,2047
   12978:	00200b93          	li	s7,2
   1297c:	eedff06f          	j	12868 <__divdf3+0x84>
   12980:	0164e933          	or	s2,s1,s6
   12984:	06090e63          	beqz	s2,12a00 <__divdf3+0x21c>
   12988:	04048063          	beqz	s1,129c8 <__divdf3+0x1e4>
   1298c:	00048513          	mv	a0,s1
   12990:	1d1000ef          	jal	ra,13360 <__clzsi2>
   12994:	ff550913          	addi	s2,a0,-11
   12998:	01c00793          	li	a5,28
   1299c:	0327ce63          	blt	a5,s2,129d8 <__divdf3+0x1f4>
   129a0:	01d00793          	li	a5,29
   129a4:	ff850813          	addi	a6,a0,-8
   129a8:	412787b3          	sub	a5,a5,s2
   129ac:	010494b3          	sll	s1,s1,a6
   129b0:	00fb57b3          	srl	a5,s6,a5
   129b4:	0097e933          	or	s2,a5,s1
   129b8:	010b1833          	sll	a6,s6,a6
   129bc:	c0d00793          	li	a5,-1011
   129c0:	40a78533          	sub	a0,a5,a0
   129c4:	ee5ff06f          	j	128a8 <__divdf3+0xc4>
   129c8:	000b0513          	mv	a0,s6
   129cc:	195000ef          	jal	ra,13360 <__clzsi2>
   129d0:	02050513          	addi	a0,a0,32
   129d4:	fc1ff06f          	j	12994 <__divdf3+0x1b0>
   129d8:	fd850793          	addi	a5,a0,-40
   129dc:	00fb1933          	sll	s2,s6,a5
   129e0:	00000813          	li	a6,0
   129e4:	fd9ff06f          	j	129bc <__divdf3+0x1d8>
   129e8:	0164e933          	or	s2,s1,s6
   129ec:	02090263          	beqz	s2,12a10 <__divdf3+0x22c>
   129f0:	00048913          	mv	s2,s1
   129f4:	7ff00513          	li	a0,2047
   129f8:	00300793          	li	a5,3
   129fc:	eb1ff06f          	j	128ac <__divdf3+0xc8>
   12a00:	00000813          	li	a6,0
   12a04:	00000513          	li	a0,0
   12a08:	00100793          	li	a5,1
   12a0c:	ea1ff06f          	j	128ac <__divdf3+0xc8>
   12a10:	00000813          	li	a6,0
   12a14:	7ff00513          	li	a0,2047
   12a18:	00200793          	li	a5,2
   12a1c:	e91ff06f          	j	128ac <__divdf3+0xc8>
   12a20:	01996663          	bltu	s2,s9,12a2c <__divdf3+0x248>
   12a24:	452c9263          	bne	s9,s2,12e68 <__divdf3+0x684>
   12a28:	45046063          	bltu	s0,a6,12e68 <__divdf3+0x684>
   12a2c:	01fc9713          	slli	a4,s9,0x1f
   12a30:	00145793          	srli	a5,s0,0x1
   12a34:	01f41d93          	slli	s11,s0,0x1f
   12a38:	001cdc93          	srli	s9,s9,0x1
   12a3c:	00f76433          	or	s0,a4,a5
   12a40:	00891793          	slli	a5,s2,0x8
   12a44:	01885b93          	srli	s7,a6,0x18
   12a48:	00fbebb3          	or	s7,s7,a5
   12a4c:	010bda93          	srli	s5,s7,0x10
   12a50:	000a8593          	mv	a1,s5
   12a54:	010b9b13          	slli	s6,s7,0x10
   12a58:	000c8513          	mv	a0,s9
   12a5c:	00881c13          	slli	s8,a6,0x8
   12a60:	010b5b13          	srli	s6,s6,0x10
   12a64:	051000ef          	jal	ra,132b4 <__udivsi3>
   12a68:	00050593          	mv	a1,a0
   12a6c:	00050d13          	mv	s10,a0
   12a70:	000b0513          	mv	a0,s6
   12a74:	015000ef          	jal	ra,13288 <__mulsi3>
   12a78:	00050913          	mv	s2,a0
   12a7c:	000a8593          	mv	a1,s5
   12a80:	000c8513          	mv	a0,s9
   12a84:	079000ef          	jal	ra,132fc <__umodsi3>
   12a88:	01051513          	slli	a0,a0,0x10
   12a8c:	01045793          	srli	a5,s0,0x10
   12a90:	00a7e533          	or	a0,a5,a0
   12a94:	000d0a13          	mv	s4,s10
   12a98:	01257e63          	bleu	s2,a0,12ab4 <__divdf3+0x2d0>
   12a9c:	01750533          	add	a0,a0,s7
   12aa0:	fffd0a13          	addi	s4,s10,-1
   12aa4:	01756863          	bltu	a0,s7,12ab4 <__divdf3+0x2d0>
   12aa8:	01257663          	bleu	s2,a0,12ab4 <__divdf3+0x2d0>
   12aac:	ffed0a13          	addi	s4,s10,-2
   12ab0:	01750533          	add	a0,a0,s7
   12ab4:	41250933          	sub	s2,a0,s2
   12ab8:	000a8593          	mv	a1,s5
   12abc:	00090513          	mv	a0,s2
   12ac0:	7f4000ef          	jal	ra,132b4 <__udivsi3>
   12ac4:	00050593          	mv	a1,a0
   12ac8:	00050d13          	mv	s10,a0
   12acc:	000b0513          	mv	a0,s6
   12ad0:	7b8000ef          	jal	ra,13288 <__mulsi3>
   12ad4:	00050c93          	mv	s9,a0
   12ad8:	000a8593          	mv	a1,s5
   12adc:	00090513          	mv	a0,s2
   12ae0:	01d000ef          	jal	ra,132fc <__umodsi3>
   12ae4:	01041413          	slli	s0,s0,0x10
   12ae8:	01051513          	slli	a0,a0,0x10
   12aec:	01045413          	srli	s0,s0,0x10
   12af0:	00a46433          	or	s0,s0,a0
   12af4:	000d0713          	mv	a4,s10
   12af8:	01947e63          	bleu	s9,s0,12b14 <__divdf3+0x330>
   12afc:	01740433          	add	s0,s0,s7
   12b00:	fffd0713          	addi	a4,s10,-1
   12b04:	01746863          	bltu	s0,s7,12b14 <__divdf3+0x330>
   12b08:	01947663          	bleu	s9,s0,12b14 <__divdf3+0x330>
   12b0c:	ffed0713          	addi	a4,s10,-2
   12b10:	01740433          	add	s0,s0,s7
   12b14:	010a1813          	slli	a6,s4,0x10
   12b18:	00010e37          	lui	t3,0x10
   12b1c:	00e86833          	or	a6,a6,a4
   12b20:	419407b3          	sub	a5,s0,s9
   12b24:	fffe0c93          	addi	s9,t3,-1 # ffff <main-0x75>
   12b28:	01987333          	and	t1,a6,s9
   12b2c:	019c7cb3          	and	s9,s8,s9
   12b30:	01085713          	srli	a4,a6,0x10
   12b34:	010c5d13          	srli	s10,s8,0x10
   12b38:	00030513          	mv	a0,t1
   12b3c:	000c8593          	mv	a1,s9
   12b40:	748000ef          	jal	ra,13288 <__mulsi3>
   12b44:	00050893          	mv	a7,a0
   12b48:	000d0593          	mv	a1,s10
   12b4c:	00030513          	mv	a0,t1
   12b50:	738000ef          	jal	ra,13288 <__mulsi3>
   12b54:	00050313          	mv	t1,a0
   12b58:	000c8593          	mv	a1,s9
   12b5c:	00070513          	mv	a0,a4
   12b60:	728000ef          	jal	ra,13288 <__mulsi3>
   12b64:	00050e93          	mv	t4,a0
   12b68:	000d0593          	mv	a1,s10
   12b6c:	00070513          	mv	a0,a4
   12b70:	718000ef          	jal	ra,13288 <__mulsi3>
   12b74:	0108d713          	srli	a4,a7,0x10
   12b78:	01d30333          	add	t1,t1,t4
   12b7c:	00670733          	add	a4,a4,t1
   12b80:	01d77463          	bleu	t4,a4,12b88 <__divdf3+0x3a4>
   12b84:	01c50533          	add	a0,a0,t3
   12b88:	01075413          	srli	s0,a4,0x10
   12b8c:	00a40433          	add	s0,s0,a0
   12b90:	00010537          	lui	a0,0x10
   12b94:	fff50513          	addi	a0,a0,-1 # ffff <main-0x75>
   12b98:	00a77a33          	and	s4,a4,a0
   12b9c:	010a1a13          	slli	s4,s4,0x10
   12ba0:	00a8f8b3          	and	a7,a7,a0
   12ba4:	011a0a33          	add	s4,s4,a7
   12ba8:	0087e863          	bltu	a5,s0,12bb8 <__divdf3+0x3d4>
   12bac:	00080913          	mv	s2,a6
   12bb0:	04879463          	bne	a5,s0,12bf8 <__divdf3+0x414>
   12bb4:	054df263          	bleu	s4,s11,12bf8 <__divdf3+0x414>
   12bb8:	018d8db3          	add	s11,s11,s8
   12bbc:	018db733          	sltu	a4,s11,s8
   12bc0:	01770733          	add	a4,a4,s7
   12bc4:	00e787b3          	add	a5,a5,a4
   12bc8:	fff80913          	addi	s2,a6,-1
   12bcc:	00fbe663          	bltu	s7,a5,12bd8 <__divdf3+0x3f4>
   12bd0:	02fb9463          	bne	s7,a5,12bf8 <__divdf3+0x414>
   12bd4:	038de263          	bltu	s11,s8,12bf8 <__divdf3+0x414>
   12bd8:	0087e663          	bltu	a5,s0,12be4 <__divdf3+0x400>
   12bdc:	00f41e63          	bne	s0,a5,12bf8 <__divdf3+0x414>
   12be0:	014dfc63          	bleu	s4,s11,12bf8 <__divdf3+0x414>
   12be4:	018d8db3          	add	s11,s11,s8
   12be8:	018db733          	sltu	a4,s11,s8
   12bec:	01770733          	add	a4,a4,s7
   12bf0:	ffe80913          	addi	s2,a6,-2
   12bf4:	00e787b3          	add	a5,a5,a4
   12bf8:	414d8a33          	sub	s4,s11,s4
   12bfc:	40878433          	sub	s0,a5,s0
   12c00:	014db533          	sltu	a0,s11,s4
   12c04:	40a40433          	sub	s0,s0,a0
   12c08:	fff00813          	li	a6,-1
   12c0c:	1a8b8063          	beq	s7,s0,12dac <__divdf3+0x5c8>
   12c10:	000a8593          	mv	a1,s5
   12c14:	00040513          	mv	a0,s0
   12c18:	69c000ef          	jal	ra,132b4 <__udivsi3>
   12c1c:	00050593          	mv	a1,a0
   12c20:	00a12623          	sw	a0,12(sp)
   12c24:	000b0513          	mv	a0,s6
   12c28:	660000ef          	jal	ra,13288 <__mulsi3>
   12c2c:	00a12423          	sw	a0,8(sp)
   12c30:	000a8593          	mv	a1,s5
   12c34:	00040513          	mv	a0,s0
   12c38:	6c4000ef          	jal	ra,132fc <__umodsi3>
   12c3c:	00c12683          	lw	a3,12(sp)
   12c40:	00812783          	lw	a5,8(sp)
   12c44:	01051513          	slli	a0,a0,0x10
   12c48:	010a5713          	srli	a4,s4,0x10
   12c4c:	00a76533          	or	a0,a4,a0
   12c50:	00068d93          	mv	s11,a3
   12c54:	00f57e63          	bleu	a5,a0,12c70 <__divdf3+0x48c>
   12c58:	01750533          	add	a0,a0,s7
   12c5c:	fff68d93          	addi	s11,a3,-1
   12c60:	01756863          	bltu	a0,s7,12c70 <__divdf3+0x48c>
   12c64:	00f57663          	bleu	a5,a0,12c70 <__divdf3+0x48c>
   12c68:	ffe68d93          	addi	s11,a3,-2
   12c6c:	01750533          	add	a0,a0,s7
   12c70:	40f50433          	sub	s0,a0,a5
   12c74:	000a8593          	mv	a1,s5
   12c78:	00040513          	mv	a0,s0
   12c7c:	638000ef          	jal	ra,132b4 <__udivsi3>
   12c80:	00050593          	mv	a1,a0
   12c84:	00a12423          	sw	a0,8(sp)
   12c88:	000b0513          	mv	a0,s6
   12c8c:	5fc000ef          	jal	ra,13288 <__mulsi3>
   12c90:	00050b13          	mv	s6,a0
   12c94:	000a8593          	mv	a1,s5
   12c98:	00040513          	mv	a0,s0
   12c9c:	660000ef          	jal	ra,132fc <__umodsi3>
   12ca0:	010a1a13          	slli	s4,s4,0x10
   12ca4:	00812783          	lw	a5,8(sp)
   12ca8:	01051513          	slli	a0,a0,0x10
   12cac:	010a5a13          	srli	s4,s4,0x10
   12cb0:	00aa6533          	or	a0,s4,a0
   12cb4:	00078713          	mv	a4,a5
   12cb8:	01657e63          	bleu	s6,a0,12cd4 <__divdf3+0x4f0>
   12cbc:	01750533          	add	a0,a0,s7
   12cc0:	fff78713          	addi	a4,a5,-1
   12cc4:	01756863          	bltu	a0,s7,12cd4 <__divdf3+0x4f0>
   12cc8:	01657663          	bleu	s6,a0,12cd4 <__divdf3+0x4f0>
   12ccc:	ffe78713          	addi	a4,a5,-2
   12cd0:	01750533          	add	a0,a0,s7
   12cd4:	010d9793          	slli	a5,s11,0x10
   12cd8:	00e7e7b3          	or	a5,a5,a4
   12cdc:	01079313          	slli	t1,a5,0x10
   12ce0:	01035313          	srli	t1,t1,0x10
   12ce4:	416508b3          	sub	a7,a0,s6
   12ce8:	0107d713          	srli	a4,a5,0x10
   12cec:	00030513          	mv	a0,t1
   12cf0:	000c8593          	mv	a1,s9
   12cf4:	594000ef          	jal	ra,13288 <__mulsi3>
   12cf8:	00050813          	mv	a6,a0
   12cfc:	000d0593          	mv	a1,s10
   12d00:	00030513          	mv	a0,t1
   12d04:	584000ef          	jal	ra,13288 <__mulsi3>
   12d08:	00050313          	mv	t1,a0
   12d0c:	000c8593          	mv	a1,s9
   12d10:	00070513          	mv	a0,a4
   12d14:	574000ef          	jal	ra,13288 <__mulsi3>
   12d18:	00050e13          	mv	t3,a0
   12d1c:	000d0593          	mv	a1,s10
   12d20:	00070513          	mv	a0,a4
   12d24:	564000ef          	jal	ra,13288 <__mulsi3>
   12d28:	01085713          	srli	a4,a6,0x10
   12d2c:	01c30333          	add	t1,t1,t3
   12d30:	00670733          	add	a4,a4,t1
   12d34:	01c77663          	bleu	t3,a4,12d40 <__divdf3+0x55c>
   12d38:	000106b7          	lui	a3,0x10
   12d3c:	00d50533          	add	a0,a0,a3
   12d40:	000105b7          	lui	a1,0x10
   12d44:	fff58593          	addi	a1,a1,-1 # ffff <main-0x75>
   12d48:	01075613          	srli	a2,a4,0x10
   12d4c:	00b776b3          	and	a3,a4,a1
   12d50:	01069693          	slli	a3,a3,0x10
   12d54:	00b87833          	and	a6,a6,a1
   12d58:	00a60633          	add	a2,a2,a0
   12d5c:	010686b3          	add	a3,a3,a6
   12d60:	00c8e863          	bltu	a7,a2,12d70 <__divdf3+0x58c>
   12d64:	24c89463          	bne	a7,a2,12fac <__divdf3+0x7c8>
   12d68:	00078813          	mv	a6,a5
   12d6c:	04068063          	beqz	a3,12dac <__divdf3+0x5c8>
   12d70:	011b8533          	add	a0,s7,a7
   12d74:	fff78813          	addi	a6,a5,-1
   12d78:	03756463          	bltu	a0,s7,12da0 <__divdf3+0x5bc>
   12d7c:	00c56663          	bltu	a0,a2,12d88 <__divdf3+0x5a4>
   12d80:	22c51463          	bne	a0,a2,12fa8 <__divdf3+0x7c4>
   12d84:	02dc7063          	bleu	a3,s8,12da4 <__divdf3+0x5c0>
   12d88:	ffe78813          	addi	a6,a5,-2
   12d8c:	001c1793          	slli	a5,s8,0x1
   12d90:	0187bc33          	sltu	s8,a5,s8
   12d94:	017c0bb3          	add	s7,s8,s7
   12d98:	01750533          	add	a0,a0,s7
   12d9c:	00078c13          	mv	s8,a5
   12da0:	00c51463          	bne	a0,a2,12da8 <__divdf3+0x5c4>
   12da4:	00dc0463          	beq	s8,a3,12dac <__divdf3+0x5c8>
   12da8:	00186813          	ori	a6,a6,1
   12dac:	3ff98693          	addi	a3,s3,1023
   12db0:	10d05a63          	blez	a3,12ec4 <__divdf3+0x6e0>
   12db4:	00787793          	andi	a5,a6,7
   12db8:	02078063          	beqz	a5,12dd8 <__divdf3+0x5f4>
   12dbc:	00f87793          	andi	a5,a6,15
   12dc0:	00400713          	li	a4,4
   12dc4:	00e78a63          	beq	a5,a4,12dd8 <__divdf3+0x5f4>
   12dc8:	00480793          	addi	a5,a6,4
   12dcc:	0107b833          	sltu	a6,a5,a6
   12dd0:	01090933          	add	s2,s2,a6
   12dd4:	00078813          	mv	a6,a5
   12dd8:	00791793          	slli	a5,s2,0x7
   12ddc:	0007da63          	bgez	a5,12df0 <__divdf3+0x60c>
   12de0:	ff0007b7          	lui	a5,0xff000
   12de4:	fff78793          	addi	a5,a5,-1 # feffffff <__global_pointer$+0xfefd9d8f>
   12de8:	00f97933          	and	s2,s2,a5
   12dec:	40098693          	addi	a3,s3,1024
   12df0:	7fe00793          	li	a5,2046
   12df4:	18d7ca63          	blt	a5,a3,12f88 <__divdf3+0x7a4>
   12df8:	00385813          	srli	a6,a6,0x3
   12dfc:	01d91713          	slli	a4,s2,0x1d
   12e00:	01076733          	or	a4,a4,a6
   12e04:	00395793          	srli	a5,s2,0x3
   12e08:	00c79793          	slli	a5,a5,0xc
   12e0c:	7ff6f693          	andi	a3,a3,2047
   12e10:	01469693          	slli	a3,a3,0x14
   12e14:	04c12083          	lw	ra,76(sp)
   12e18:	04812403          	lw	s0,72(sp)
   12e1c:	00c7d793          	srli	a5,a5,0xc
   12e20:	01f49493          	slli	s1,s1,0x1f
   12e24:	00d7e7b3          	or	a5,a5,a3
   12e28:	0097e6b3          	or	a3,a5,s1
   12e2c:	04012903          	lw	s2,64(sp)
   12e30:	04412483          	lw	s1,68(sp)
   12e34:	03c12983          	lw	s3,60(sp)
   12e38:	03812a03          	lw	s4,56(sp)
   12e3c:	03412a83          	lw	s5,52(sp)
   12e40:	03012b03          	lw	s6,48(sp)
   12e44:	02c12b83          	lw	s7,44(sp)
   12e48:	02812c03          	lw	s8,40(sp)
   12e4c:	02412c83          	lw	s9,36(sp)
   12e50:	02012d03          	lw	s10,32(sp)
   12e54:	01c12d83          	lw	s11,28(sp)
   12e58:	00070513          	mv	a0,a4
   12e5c:	00068593          	mv	a1,a3
   12e60:	05010113          	addi	sp,sp,80
   12e64:	00008067          	ret
   12e68:	fff98993          	addi	s3,s3,-1
   12e6c:	00000d93          	li	s11,0
   12e70:	bd1ff06f          	j	12a40 <__divdf3+0x25c>
   12e74:	000a0493          	mv	s1,s4
   12e78:	000c8913          	mv	s2,s9
   12e7c:	00040813          	mv	a6,s0
   12e80:	000b8793          	mv	a5,s7
   12e84:	00200713          	li	a4,2
   12e88:	10e78063          	beq	a5,a4,12f88 <__divdf3+0x7a4>
   12e8c:	00300713          	li	a4,3
   12e90:	0ee78263          	beq	a5,a4,12f74 <__divdf3+0x790>
   12e94:	00100713          	li	a4,1
   12e98:	f0e79ae3          	bne	a5,a4,12dac <__divdf3+0x5c8>
   12e9c:	00000793          	li	a5,0
   12ea0:	00000713          	li	a4,0
   12ea4:	0940006f          	j	12f38 <__divdf3+0x754>
   12ea8:	000a8493          	mv	s1,s5
   12eac:	fd9ff06f          	j	12e84 <__divdf3+0x6a0>
   12eb0:	00080937          	lui	s2,0x80
   12eb4:	00000813          	li	a6,0
   12eb8:	00000493          	li	s1,0
   12ebc:	00300793          	li	a5,3
   12ec0:	fc5ff06f          	j	12e84 <__divdf3+0x6a0>
   12ec4:	00100793          	li	a5,1
   12ec8:	40d787b3          	sub	a5,a5,a3
   12ecc:	03800713          	li	a4,56
   12ed0:	fcf746e3          	blt	a4,a5,12e9c <__divdf3+0x6b8>
   12ed4:	01f00713          	li	a4,31
   12ed8:	06f74463          	blt	a4,a5,12f40 <__divdf3+0x75c>
   12edc:	41e98993          	addi	s3,s3,1054
   12ee0:	01391733          	sll	a4,s2,s3
   12ee4:	00f856b3          	srl	a3,a6,a5
   12ee8:	013819b3          	sll	s3,a6,s3
   12eec:	00d76733          	or	a4,a4,a3
   12ef0:	013039b3          	snez	s3,s3
   12ef4:	01376733          	or	a4,a4,s3
   12ef8:	00f957b3          	srl	a5,s2,a5
   12efc:	00777693          	andi	a3,a4,7
   12f00:	02068063          	beqz	a3,12f20 <__divdf3+0x73c>
   12f04:	00f77693          	andi	a3,a4,15
   12f08:	00400613          	li	a2,4
   12f0c:	00c68a63          	beq	a3,a2,12f20 <__divdf3+0x73c>
   12f10:	00470693          	addi	a3,a4,4
   12f14:	00e6b733          	sltu	a4,a3,a4
   12f18:	00e787b3          	add	a5,a5,a4
   12f1c:	00068713          	mv	a4,a3
   12f20:	00879693          	slli	a3,a5,0x8
   12f24:	0606ca63          	bltz	a3,12f98 <__divdf3+0x7b4>
   12f28:	01d79693          	slli	a3,a5,0x1d
   12f2c:	00375713          	srli	a4,a4,0x3
   12f30:	00e6e733          	or	a4,a3,a4
   12f34:	0037d793          	srli	a5,a5,0x3
   12f38:	00000693          	li	a3,0
   12f3c:	ecdff06f          	j	12e08 <__divdf3+0x624>
   12f40:	fe100713          	li	a4,-31
   12f44:	40d70733          	sub	a4,a4,a3
   12f48:	02000613          	li	a2,32
   12f4c:	00e95733          	srl	a4,s2,a4
   12f50:	00000693          	li	a3,0
   12f54:	00c78663          	beq	a5,a2,12f60 <__divdf3+0x77c>
   12f58:	43e98993          	addi	s3,s3,1086
   12f5c:	013916b3          	sll	a3,s2,s3
   12f60:	0106e833          	or	a6,a3,a6
   12f64:	01003833          	snez	a6,a6
   12f68:	01076733          	or	a4,a4,a6
   12f6c:	00000793          	li	a5,0
   12f70:	f8dff06f          	j	12efc <__divdf3+0x718>
   12f74:	000807b7          	lui	a5,0x80
   12f78:	00000713          	li	a4,0
   12f7c:	7ff00693          	li	a3,2047
   12f80:	00000493          	li	s1,0
   12f84:	e85ff06f          	j	12e08 <__divdf3+0x624>
   12f88:	00000793          	li	a5,0
   12f8c:	00000713          	li	a4,0
   12f90:	7ff00693          	li	a3,2047
   12f94:	e75ff06f          	j	12e08 <__divdf3+0x624>
   12f98:	00000793          	li	a5,0
   12f9c:	00000713          	li	a4,0
   12fa0:	00100693          	li	a3,1
   12fa4:	e65ff06f          	j	12e08 <__divdf3+0x624>
   12fa8:	00080793          	mv	a5,a6
   12fac:	00078813          	mv	a6,a5
   12fb0:	df9ff06f          	j	12da8 <__divdf3+0x5c4>

00012fb4 <__gedf2>:
   12fb4:	0145d813          	srli	a6,a1,0x14
   12fb8:	001007b7          	lui	a5,0x100
   12fbc:	fff78793          	addi	a5,a5,-1 # fffff <__global_pointer$+0xd9d8f>
   12fc0:	0146d713          	srli	a4,a3,0x14
   12fc4:	00050313          	mv	t1,a0
   12fc8:	00050e93          	mv	t4,a0
   12fcc:	7ff87813          	andi	a6,a6,2047
   12fd0:	7ff00513          	li	a0,2047
   12fd4:	00b7f8b3          	and	a7,a5,a1
   12fd8:	00060f13          	mv	t5,a2
   12fdc:	00d7f7b3          	and	a5,a5,a3
   12fe0:	01f5d593          	srli	a1,a1,0x1f
   12fe4:	7ff77713          	andi	a4,a4,2047
   12fe8:	01f6d693          	srli	a3,a3,0x1f
   12fec:	00a81a63          	bne	a6,a0,13000 <__gedf2+0x4c>
   12ff0:	0068ee33          	or	t3,a7,t1
   12ff4:	ffe00513          	li	a0,-2
   12ff8:	080e0a63          	beqz	t3,1308c <__gedf2+0xd8>
   12ffc:	00008067          	ret
   13000:	00a71863          	bne	a4,a0,13010 <__gedf2+0x5c>
   13004:	00c7ee33          	or	t3,a5,a2
   13008:	ffe00513          	li	a0,-2
   1300c:	020e1663          	bnez	t3,13038 <__gedf2+0x84>
   13010:	08081063          	bnez	a6,13090 <__gedf2+0xdc>
   13014:	0068e533          	or	a0,a7,t1
   13018:	00153513          	seqz	a0,a0
   1301c:	00071663          	bnez	a4,13028 <__gedf2+0x74>
   13020:	00c7e633          	or	a2,a5,a2
   13024:	04060a63          	beqz	a2,13078 <__gedf2+0xc4>
   13028:	00051a63          	bnez	a0,1303c <__gedf2+0x88>
   1302c:	00d58e63          	beq	a1,a3,13048 <__gedf2+0x94>
   13030:	00100513          	li	a0,1
   13034:	00059663          	bnez	a1,13040 <__gedf2+0x8c>
   13038:	00008067          	ret
   1303c:	fe069ee3          	bnez	a3,13038 <__gedf2+0x84>
   13040:	fff00513          	li	a0,-1
   13044:	00008067          	ret
   13048:	ff0744e3          	blt	a4,a6,13030 <__gedf2+0x7c>
   1304c:	00e85a63          	ble	a4,a6,13060 <__gedf2+0xac>
   13050:	fff00513          	li	a0,-1
   13054:	fe0582e3          	beqz	a1,13038 <__gedf2+0x84>
   13058:	00100513          	li	a0,1
   1305c:	00008067          	ret
   13060:	fd17e8e3          	bltu	a5,a7,13030 <__gedf2+0x7c>
   13064:	02f89063          	bne	a7,a5,13084 <__gedf2+0xd0>
   13068:	fddf64e3          	bltu	t5,t4,13030 <__gedf2+0x7c>
   1306c:	00000513          	li	a0,0
   13070:	fdeef4e3          	bleu	t5,t4,13038 <__gedf2+0x84>
   13074:	fddff06f          	j	13050 <__gedf2+0x9c>
   13078:	fa050ce3          	beqz	a0,13030 <__gedf2+0x7c>
   1307c:	00000513          	li	a0,0
   13080:	00008067          	ret
   13084:	fcf8e6e3          	bltu	a7,a5,13050 <__gedf2+0x9c>
   13088:	ff5ff06f          	j	1307c <__gedf2+0xc8>
   1308c:	f7070ce3          	beq	a4,a6,13004 <__gedf2+0x50>
   13090:	f8071ee3          	bnez	a4,1302c <__gedf2+0x78>
   13094:	00000513          	li	a0,0
   13098:	f89ff06f          	j	13020 <__gedf2+0x6c>

0001309c <__ledf2>:
   1309c:	0145d813          	srli	a6,a1,0x14
   130a0:	001007b7          	lui	a5,0x100
   130a4:	fff78793          	addi	a5,a5,-1 # fffff <__global_pointer$+0xd9d8f>
   130a8:	0146d713          	srli	a4,a3,0x14
   130ac:	00050313          	mv	t1,a0
   130b0:	00050e93          	mv	t4,a0
   130b4:	7ff87813          	andi	a6,a6,2047
   130b8:	7ff00513          	li	a0,2047
   130bc:	00b7f8b3          	and	a7,a5,a1
   130c0:	00060f13          	mv	t5,a2
   130c4:	00d7f7b3          	and	a5,a5,a3
   130c8:	01f5d593          	srli	a1,a1,0x1f
   130cc:	7ff77713          	andi	a4,a4,2047
   130d0:	01f6d693          	srli	a3,a3,0x1f
   130d4:	00a81a63          	bne	a6,a0,130e8 <__ledf2+0x4c>
   130d8:	0068ee33          	or	t3,a7,t1
   130dc:	00200513          	li	a0,2
   130e0:	080e0a63          	beqz	t3,13174 <__ledf2+0xd8>
   130e4:	00008067          	ret
   130e8:	00a71863          	bne	a4,a0,130f8 <__ledf2+0x5c>
   130ec:	00c7ee33          	or	t3,a5,a2
   130f0:	00200513          	li	a0,2
   130f4:	020e1663          	bnez	t3,13120 <__ledf2+0x84>
   130f8:	08081063          	bnez	a6,13178 <__ledf2+0xdc>
   130fc:	0068e533          	or	a0,a7,t1
   13100:	00153513          	seqz	a0,a0
   13104:	00071663          	bnez	a4,13110 <__ledf2+0x74>
   13108:	00c7e633          	or	a2,a5,a2
   1310c:	04060a63          	beqz	a2,13160 <__ledf2+0xc4>
   13110:	00051a63          	bnez	a0,13124 <__ledf2+0x88>
   13114:	00d58e63          	beq	a1,a3,13130 <__ledf2+0x94>
   13118:	00100513          	li	a0,1
   1311c:	00059663          	bnez	a1,13128 <__ledf2+0x8c>
   13120:	00008067          	ret
   13124:	fe069ee3          	bnez	a3,13120 <__ledf2+0x84>
   13128:	fff00513          	li	a0,-1
   1312c:	00008067          	ret
   13130:	ff0744e3          	blt	a4,a6,13118 <__ledf2+0x7c>
   13134:	00e85a63          	ble	a4,a6,13148 <__ledf2+0xac>
   13138:	fff00513          	li	a0,-1
   1313c:	fe0582e3          	beqz	a1,13120 <__ledf2+0x84>
   13140:	00100513          	li	a0,1
   13144:	00008067          	ret
   13148:	fd17e8e3          	bltu	a5,a7,13118 <__ledf2+0x7c>
   1314c:	02f89063          	bne	a7,a5,1316c <__ledf2+0xd0>
   13150:	fddf64e3          	bltu	t5,t4,13118 <__ledf2+0x7c>
   13154:	00000513          	li	a0,0
   13158:	fdeef4e3          	bleu	t5,t4,13120 <__ledf2+0x84>
   1315c:	fddff06f          	j	13138 <__ledf2+0x9c>
   13160:	fa050ce3          	beqz	a0,13118 <__ledf2+0x7c>
   13164:	00000513          	li	a0,0
   13168:	00008067          	ret
   1316c:	fcf8e6e3          	bltu	a7,a5,13138 <__ledf2+0x9c>
   13170:	ff5ff06f          	j	13164 <__ledf2+0xc8>
   13174:	f7070ce3          	beq	a4,a6,130ec <__ledf2+0x50>
   13178:	f8071ee3          	bnez	a4,13114 <__ledf2+0x78>
   1317c:	00000513          	li	a0,0
   13180:	f89ff06f          	j	13108 <__ledf2+0x6c>

00013184 <__fixunsdfsi>:
   13184:	0145d713          	srli	a4,a1,0x14
   13188:	001006b7          	lui	a3,0x100
   1318c:	00050613          	mv	a2,a0
   13190:	fff68793          	addi	a5,a3,-1 # fffff <__global_pointer$+0xd9d8f>
   13194:	7ff77713          	andi	a4,a4,2047
   13198:	3fe00513          	li	a0,1022
   1319c:	00b7f7b3          	and	a5,a5,a1
   131a0:	01f5d593          	srli	a1,a1,0x1f
   131a4:	04e55a63          	ble	a4,a0,131f8 <__fixunsdfsi+0x74>
   131a8:	00000513          	li	a0,0
   131ac:	00059863          	bnez	a1,131bc <__fixunsdfsi+0x38>
   131b0:	41e00593          	li	a1,1054
   131b4:	fff00513          	li	a0,-1
   131b8:	00e5d463          	ble	a4,a1,131c0 <__fixunsdfsi+0x3c>
   131bc:	00008067          	ret
   131c0:	00d7e7b3          	or	a5,a5,a3
   131c4:	43300693          	li	a3,1075
   131c8:	40e686b3          	sub	a3,a3,a4
   131cc:	01f00593          	li	a1,31
   131d0:	00d5cc63          	blt	a1,a3,131e8 <__fixunsdfsi+0x64>
   131d4:	bed70713          	addi	a4,a4,-1043
   131d8:	00e797b3          	sll	a5,a5,a4
   131dc:	00d65533          	srl	a0,a2,a3
   131e0:	00a7e533          	or	a0,a5,a0
   131e4:	00008067          	ret
   131e8:	41300513          	li	a0,1043
   131ec:	40e50533          	sub	a0,a0,a4
   131f0:	00a7d533          	srl	a0,a5,a0
   131f4:	00008067          	ret
   131f8:	00000513          	li	a0,0
   131fc:	00008067          	ret

00013200 <__floatunsidf>:
   13200:	ff010113          	addi	sp,sp,-16
   13204:	00112623          	sw	ra,12(sp)
   13208:	00812423          	sw	s0,8(sp)
   1320c:	06050663          	beqz	a0,13278 <__floatunsidf+0x78>
   13210:	00050413          	mv	s0,a0
   13214:	14c000ef          	jal	ra,13360 <__clzsi2>
   13218:	41e00713          	li	a4,1054
   1321c:	00a00793          	li	a5,10
   13220:	40a70733          	sub	a4,a4,a0
   13224:	04a7c263          	blt	a5,a0,13268 <__floatunsidf+0x68>
   13228:	00b00793          	li	a5,11
   1322c:	40a787b3          	sub	a5,a5,a0
   13230:	01550513          	addi	a0,a0,21
   13234:	00f457b3          	srl	a5,s0,a5
   13238:	00a41433          	sll	s0,s0,a0
   1323c:	00040513          	mv	a0,s0
   13240:	00c12083          	lw	ra,12(sp)
   13244:	00812403          	lw	s0,8(sp)
   13248:	00c79793          	slli	a5,a5,0xc
   1324c:	7ff77713          	andi	a4,a4,2047
   13250:	01471713          	slli	a4,a4,0x14
   13254:	00c7d793          	srli	a5,a5,0xc
   13258:	00e7e6b3          	or	a3,a5,a4
   1325c:	00068593          	mv	a1,a3
   13260:	01010113          	addi	sp,sp,16
   13264:	00008067          	ret
   13268:	ff550513          	addi	a0,a0,-11
   1326c:	00a417b3          	sll	a5,s0,a0
   13270:	00000413          	li	s0,0
   13274:	fc9ff06f          	j	1323c <__floatunsidf+0x3c>
   13278:	00000793          	li	a5,0
   1327c:	00000413          	li	s0,0
   13280:	00000713          	li	a4,0
   13284:	fb9ff06f          	j	1323c <__floatunsidf+0x3c>

00013288 <__mulsi3>:
   13288:	00050613          	mv	a2,a0
   1328c:	00000513          	li	a0,0
   13290:	0015f693          	andi	a3,a1,1
   13294:	00068463          	beqz	a3,1329c <__mulsi3+0x14>
   13298:	00c50533          	add	a0,a0,a2
   1329c:	0015d593          	srli	a1,a1,0x1
   132a0:	00161613          	slli	a2,a2,0x1
   132a4:	fe0596e3          	bnez	a1,13290 <__mulsi3+0x8>
   132a8:	00008067          	ret

000132ac <__divsi3>:
   132ac:	06054063          	bltz	a0,1330c <__umodsi3+0x10>
   132b0:	0605c663          	bltz	a1,1331c <__umodsi3+0x20>

000132b4 <__udivsi3>:
   132b4:	00058613          	mv	a2,a1
   132b8:	00050593          	mv	a1,a0
   132bc:	fff00513          	li	a0,-1
   132c0:	02060c63          	beqz	a2,132f8 <__udivsi3+0x44>
   132c4:	00100693          	li	a3,1
   132c8:	00b67a63          	bleu	a1,a2,132dc <__udivsi3+0x28>
   132cc:	00c05863          	blez	a2,132dc <__udivsi3+0x28>
   132d0:	00161613          	slli	a2,a2,0x1
   132d4:	00169693          	slli	a3,a3,0x1
   132d8:	feb66ae3          	bltu	a2,a1,132cc <__udivsi3+0x18>
   132dc:	00000513          	li	a0,0
   132e0:	00c5e663          	bltu	a1,a2,132ec <__udivsi3+0x38>
   132e4:	40c585b3          	sub	a1,a1,a2
   132e8:	00d56533          	or	a0,a0,a3
   132ec:	0016d693          	srli	a3,a3,0x1
   132f0:	00165613          	srli	a2,a2,0x1
   132f4:	fe0696e3          	bnez	a3,132e0 <__udivsi3+0x2c>
   132f8:	00008067          	ret

000132fc <__umodsi3>:
   132fc:	00008293          	mv	t0,ra
   13300:	fb5ff0ef          	jal	ra,132b4 <__udivsi3>
   13304:	00058513          	mv	a0,a1
   13308:	00028067          	jr	t0
   1330c:	40a00533          	neg	a0,a0
   13310:	0005d863          	bgez	a1,13320 <__umodsi3+0x24>
   13314:	40b005b3          	neg	a1,a1
   13318:	f9dff06f          	j	132b4 <__udivsi3>
   1331c:	40b005b3          	neg	a1,a1
   13320:	00008293          	mv	t0,ra
   13324:	f91ff0ef          	jal	ra,132b4 <__udivsi3>
   13328:	40a00533          	neg	a0,a0
   1332c:	00028067          	jr	t0

00013330 <__modsi3>:
   13330:	00008293          	mv	t0,ra
   13334:	0005ca63          	bltz	a1,13348 <__modsi3+0x18>
   13338:	00054c63          	bltz	a0,13350 <__modsi3+0x20>
   1333c:	f79ff0ef          	jal	ra,132b4 <__udivsi3>
   13340:	00058513          	mv	a0,a1
   13344:	00028067          	jr	t0
   13348:	40b005b3          	neg	a1,a1
   1334c:	fe0558e3          	bgez	a0,1333c <__modsi3+0xc>
   13350:	40a00533          	neg	a0,a0
   13354:	f61ff0ef          	jal	ra,132b4 <__udivsi3>
   13358:	40b00533          	neg	a0,a1
   1335c:	00028067          	jr	t0

00013360 <__clzsi2>:
   13360:	000107b7          	lui	a5,0x10
   13364:	02f57a63          	bleu	a5,a0,13398 <__clzsi2+0x38>
   13368:	0ff00793          	li	a5,255
   1336c:	00a7b7b3          	sltu	a5,a5,a0
   13370:	00379793          	slli	a5,a5,0x3
   13374:	02000713          	li	a4,32
   13378:	40f70733          	sub	a4,a4,a5
   1337c:	00f557b3          	srl	a5,a0,a5
   13380:	00024537          	lui	a0,0x24
   13384:	21c50513          	addi	a0,a0,540 # 2421c <__clz_tab>
   13388:	00a787b3          	add	a5,a5,a0
   1338c:	0007c503          	lbu	a0,0(a5) # 10000 <main-0x74>
   13390:	40a70533          	sub	a0,a4,a0
   13394:	00008067          	ret
   13398:	01000737          	lui	a4,0x1000
   1339c:	01000793          	li	a5,16
   133a0:	fce56ae3          	bltu	a0,a4,13374 <__clzsi2+0x14>
   133a4:	01800793          	li	a5,24
   133a8:	fcdff06f          	j	13374 <__clzsi2+0x14>

000133ac <atexit>:
   133ac:	00050593          	mv	a1,a0
   133b0:	00000693          	li	a3,0
   133b4:	00000613          	li	a2,0
   133b8:	00000513          	li	a0,0
   133bc:	78c0206f          	j	15b48 <__register_exitproc>

000133c0 <clock>:
   133c0:	8301a503          	lw	a0,-2000(gp) # 25aa0 <_impure_ptr>
   133c4:	fe010113          	addi	sp,sp,-32
   133c8:	00010593          	mv	a1,sp
   133cc:	00112e23          	sw	ra,28(sp)
   133d0:	478000ef          	jal	ra,13848 <_times_r>
   133d4:	fff00793          	li	a5,-1
   133d8:	02f50063          	beq	a0,a5,133f8 <clock+0x38>
   133dc:	00412783          	lw	a5,4(sp)
   133e0:	00012503          	lw	a0,0(sp)
   133e4:	00f50533          	add	a0,a0,a5
   133e8:	00812783          	lw	a5,8(sp)
   133ec:	00f50533          	add	a0,a0,a5
   133f0:	00c12783          	lw	a5,12(sp)
   133f4:	00f50533          	add	a0,a0,a5
   133f8:	01c12083          	lw	ra,28(sp)
   133fc:	02010113          	addi	sp,sp,32
   13400:	00008067          	ret

00013404 <exit>:
   13404:	ff010113          	addi	sp,sp,-16
   13408:	00000593          	li	a1,0
   1340c:	00812423          	sw	s0,8(sp)
   13410:	00112623          	sw	ra,12(sp)
   13414:	00050413          	mv	s0,a0
   13418:	7ac020ef          	jal	ra,15bc4 <__call_exitprocs>
   1341c:	8201a503          	lw	a0,-2016(gp) # 25a90 <_global_impure_ptr>
   13420:	03c52783          	lw	a5,60(a0)
   13424:	00078463          	beqz	a5,1342c <exit+0x28>
   13428:	000780e7          	jalr	a5
   1342c:	00040513          	mv	a0,s0
   13430:	5e10b0ef          	jal	ra,1f210 <_exit>

00013434 <__libc_fini_array>:
   13434:	ff010113          	addi	sp,sp,-16
   13438:	000257b7          	lui	a5,0x25
   1343c:	00812423          	sw	s0,8(sp)
   13440:	00025437          	lui	s0,0x25
   13444:	0b878713          	addi	a4,a5,184 # 250b8 <__init_array_end>
   13448:	0bc40413          	addi	s0,s0,188 # 250bc <__fini_array_end>
   1344c:	40e40433          	sub	s0,s0,a4
   13450:	00912223          	sw	s1,4(sp)
   13454:	00112623          	sw	ra,12(sp)
   13458:	40245413          	srai	s0,s0,0x2
   1345c:	0b878493          	addi	s1,a5,184
   13460:	00041c63          	bnez	s0,13478 <__libc_fini_array+0x44>
   13464:	00812403          	lw	s0,8(sp)
   13468:	00c12083          	lw	ra,12(sp)
   1346c:	00412483          	lw	s1,4(sp)
   13470:	01010113          	addi	sp,sp,16
   13474:	e80fd06f          	j	10af4 <_fini>
   13478:	fff40413          	addi	s0,s0,-1
   1347c:	00241793          	slli	a5,s0,0x2
   13480:	00f487b3          	add	a5,s1,a5
   13484:	0007a783          	lw	a5,0(a5)
   13488:	000780e7          	jalr	a5
   1348c:	fd5ff06f          	j	13460 <__libc_fini_array+0x2c>

00013490 <__libc_init_array>:
   13490:	ff010113          	addi	sp,sp,-16
   13494:	000257b7          	lui	a5,0x25
   13498:	00812423          	sw	s0,8(sp)
   1349c:	00025437          	lui	s0,0x25
   134a0:	0b478713          	addi	a4,a5,180 # 250b4 <__frame_dummy_init_array_entry>
   134a4:	0b440413          	addi	s0,s0,180 # 250b4 <__frame_dummy_init_array_entry>
   134a8:	40e40433          	sub	s0,s0,a4
   134ac:	00912223          	sw	s1,4(sp)
   134b0:	01212023          	sw	s2,0(sp)
   134b4:	00112623          	sw	ra,12(sp)
   134b8:	40245413          	srai	s0,s0,0x2
   134bc:	00000493          	li	s1,0
   134c0:	0b478913          	addi	s2,a5,180
   134c4:	04849263          	bne	s1,s0,13508 <__libc_init_array+0x78>
   134c8:	e2cfd0ef          	jal	ra,10af4 <_fini>
   134cc:	000257b7          	lui	a5,0x25
   134d0:	00025437          	lui	s0,0x25
   134d4:	0b478713          	addi	a4,a5,180 # 250b4 <__frame_dummy_init_array_entry>
   134d8:	0b840413          	addi	s0,s0,184 # 250b8 <__init_array_end>
   134dc:	40e40433          	sub	s0,s0,a4
   134e0:	40245413          	srai	s0,s0,0x2
   134e4:	00000493          	li	s1,0
   134e8:	0b478913          	addi	s2,a5,180
   134ec:	02849a63          	bne	s1,s0,13520 <__libc_init_array+0x90>
   134f0:	00c12083          	lw	ra,12(sp)
   134f4:	00812403          	lw	s0,8(sp)
   134f8:	00412483          	lw	s1,4(sp)
   134fc:	00012903          	lw	s2,0(sp)
   13500:	01010113          	addi	sp,sp,16
   13504:	00008067          	ret
   13508:	00249793          	slli	a5,s1,0x2
   1350c:	00f907b3          	add	a5,s2,a5
   13510:	0007a783          	lw	a5,0(a5)
   13514:	00148493          	addi	s1,s1,1
   13518:	000780e7          	jalr	a5
   1351c:	fa9ff06f          	j	134c4 <__libc_init_array+0x34>
   13520:	00249793          	slli	a5,s1,0x2
   13524:	00f907b3          	add	a5,s2,a5
   13528:	0007a783          	lw	a5,0(a5)
   1352c:	00148493          	addi	s1,s1,1
   13530:	000780e7          	jalr	a5
   13534:	fb9ff06f          	j	134ec <__libc_init_array+0x5c>

00013538 <memset>:
   13538:	00f00313          	li	t1,15
   1353c:	00050713          	mv	a4,a0
   13540:	02c37e63          	bleu	a2,t1,1357c <memset+0x44>
   13544:	00f77793          	andi	a5,a4,15
   13548:	0a079063          	bnez	a5,135e8 <memset+0xb0>
   1354c:	08059263          	bnez	a1,135d0 <memset+0x98>
   13550:	ff067693          	andi	a3,a2,-16
   13554:	00f67613          	andi	a2,a2,15
   13558:	00e686b3          	add	a3,a3,a4
   1355c:	00b72023          	sw	a1,0(a4) # 1000000 <__global_pointer$+0xfd9d90>
   13560:	00b72223          	sw	a1,4(a4)
   13564:	00b72423          	sw	a1,8(a4)
   13568:	00b72623          	sw	a1,12(a4)
   1356c:	01070713          	addi	a4,a4,16
   13570:	fed766e3          	bltu	a4,a3,1355c <memset+0x24>
   13574:	00061463          	bnez	a2,1357c <memset+0x44>
   13578:	00008067          	ret
   1357c:	40c306b3          	sub	a3,t1,a2
   13580:	00269693          	slli	a3,a3,0x2
   13584:	00000297          	auipc	t0,0x0
   13588:	005686b3          	add	a3,a3,t0
   1358c:	00c68067          	jr	12(a3)
   13590:	00b70723          	sb	a1,14(a4)
   13594:	00b706a3          	sb	a1,13(a4)
   13598:	00b70623          	sb	a1,12(a4)
   1359c:	00b705a3          	sb	a1,11(a4)
   135a0:	00b70523          	sb	a1,10(a4)
   135a4:	00b704a3          	sb	a1,9(a4)
   135a8:	00b70423          	sb	a1,8(a4)
   135ac:	00b703a3          	sb	a1,7(a4)
   135b0:	00b70323          	sb	a1,6(a4)
   135b4:	00b702a3          	sb	a1,5(a4)
   135b8:	00b70223          	sb	a1,4(a4)
   135bc:	00b701a3          	sb	a1,3(a4)
   135c0:	00b70123          	sb	a1,2(a4)
   135c4:	00b700a3          	sb	a1,1(a4)
   135c8:	00b70023          	sb	a1,0(a4)
   135cc:	00008067          	ret
   135d0:	0ff5f593          	andi	a1,a1,255
   135d4:	00859693          	slli	a3,a1,0x8
   135d8:	00d5e5b3          	or	a1,a1,a3
   135dc:	01059693          	slli	a3,a1,0x10
   135e0:	00d5e5b3          	or	a1,a1,a3
   135e4:	f6dff06f          	j	13550 <memset+0x18>
   135e8:	00279693          	slli	a3,a5,0x2
   135ec:	00000297          	auipc	t0,0x0
   135f0:	005686b3          	add	a3,a3,t0
   135f4:	00008293          	mv	t0,ra
   135f8:	fa0680e7          	jalr	-96(a3)
   135fc:	00028093          	mv	ra,t0
   13600:	ff078793          	addi	a5,a5,-16
   13604:	40f70733          	sub	a4,a4,a5
   13608:	00f60633          	add	a2,a2,a5
   1360c:	f6c378e3          	bleu	a2,t1,1357c <memset+0x44>
   13610:	f3dff06f          	j	1354c <memset+0x14>

00013614 <_printf_r>:
   13614:	fc010113          	addi	sp,sp,-64
   13618:	02c12423          	sw	a2,40(sp)
   1361c:	02d12623          	sw	a3,44(sp)
   13620:	02e12823          	sw	a4,48(sp)
   13624:	02f12a23          	sw	a5,52(sp)
   13628:	03012c23          	sw	a6,56(sp)
   1362c:	03112e23          	sw	a7,60(sp)
   13630:	00058613          	mv	a2,a1
   13634:	00852583          	lw	a1,8(a0)
   13638:	02810693          	addi	a3,sp,40
   1363c:	00112e23          	sw	ra,28(sp)
   13640:	00d12623          	sw	a3,12(sp)
   13644:	20c000ef          	jal	ra,13850 <_vfprintf_r>
   13648:	01c12083          	lw	ra,28(sp)
   1364c:	04010113          	addi	sp,sp,64
   13650:	00008067          	ret

00013654 <printf>:
   13654:	fc010113          	addi	sp,sp,-64
   13658:	02f12a23          	sw	a5,52(sp)
   1365c:	8301a783          	lw	a5,-2000(gp) # 25aa0 <_impure_ptr>
   13660:	02c12423          	sw	a2,40(sp)
   13664:	02d12623          	sw	a3,44(sp)
   13668:	02b12223          	sw	a1,36(sp)
   1366c:	02e12823          	sw	a4,48(sp)
   13670:	03012c23          	sw	a6,56(sp)
   13674:	03112e23          	sw	a7,60(sp)
   13678:	0087a583          	lw	a1,8(a5)
   1367c:	02410693          	addi	a3,sp,36
   13680:	00050613          	mv	a2,a0
   13684:	00078513          	mv	a0,a5
   13688:	00112e23          	sw	ra,28(sp)
   1368c:	00d12623          	sw	a3,12(sp)
   13690:	1c0000ef          	jal	ra,13850 <_vfprintf_r>
   13694:	01c12083          	lw	ra,28(sp)
   13698:	04010113          	addi	sp,sp,64
   1369c:	00008067          	ret

000136a0 <_putchar_r>:
   136a0:	00852603          	lw	a2,8(a0)
   136a4:	0180006f          	j	136bc <_putc_r>

000136a8 <putchar>:
   136a8:	8301a783          	lw	a5,-2000(gp) # 25aa0 <_impure_ptr>
   136ac:	00050593          	mv	a1,a0
   136b0:	0087a603          	lw	a2,8(a5)
   136b4:	00078513          	mv	a0,a5
   136b8:	0040006f          	j	136bc <_putc_r>

000136bc <_putc_r>:
   136bc:	fe010113          	addi	sp,sp,-32
   136c0:	00812c23          	sw	s0,24(sp)
   136c4:	00112e23          	sw	ra,28(sp)
   136c8:	00050413          	mv	s0,a0
   136cc:	02050063          	beqz	a0,136ec <_putc_r+0x30>
   136d0:	03852783          	lw	a5,56(a0)
   136d4:	00079c63          	bnez	a5,136ec <_putc_r+0x30>
   136d8:	00c12623          	sw	a2,12(sp)
   136dc:	00b12423          	sw	a1,8(sp)
   136e0:	195020ef          	jal	ra,16074 <__sinit>
   136e4:	00c12603          	lw	a2,12(sp)
   136e8:	00812583          	lw	a1,8(sp)
   136ec:	00862783          	lw	a5,8(a2)
   136f0:	fff78793          	addi	a5,a5,-1
   136f4:	00f62423          	sw	a5,8(a2)
   136f8:	0207d663          	bgez	a5,13724 <_putc_r+0x68>
   136fc:	01862703          	lw	a4,24(a2)
   13700:	00e7c863          	blt	a5,a4,13710 <_putc_r+0x54>
   13704:	0ff5f793          	andi	a5,a1,255
   13708:	00a00713          	li	a4,10
   1370c:	00e79c63          	bne	a5,a4,13724 <_putc_r+0x68>
   13710:	00040513          	mv	a0,s0
   13714:	01812403          	lw	s0,24(sp)
   13718:	01c12083          	lw	ra,28(sp)
   1371c:	02010113          	addi	sp,sp,32
   13720:	1b40206f          	j	158d4 <__swbuf_r>
   13724:	00062783          	lw	a5,0(a2)
   13728:	0ff5f513          	andi	a0,a1,255
   1372c:	00178713          	addi	a4,a5,1
   13730:	00e62023          	sw	a4,0(a2)
   13734:	00b78023          	sb	a1,0(a5)
   13738:	01c12083          	lw	ra,28(sp)
   1373c:	01812403          	lw	s0,24(sp)
   13740:	02010113          	addi	sp,sp,32
   13744:	00008067          	ret

00013748 <putc>:
   13748:	00058613          	mv	a2,a1
   1374c:	00050593          	mv	a1,a0
   13750:	8301a503          	lw	a0,-2000(gp) # 25aa0 <_impure_ptr>
   13754:	f69ff06f          	j	136bc <_putc_r>

00013758 <_puts_r>:
   13758:	fc010113          	addi	sp,sp,-64
   1375c:	02812c23          	sw	s0,56(sp)
   13760:	00050413          	mv	s0,a0
   13764:	00058513          	mv	a0,a1
   13768:	00b12623          	sw	a1,12(sp)
   1376c:	02112e23          	sw	ra,60(sp)
   13770:	0bc000ef          	jal	ra,1382c <strlen>
   13774:	000247b7          	lui	a5,0x24
   13778:	31c78793          	addi	a5,a5,796 # 2431c <__clz_tab+0x100>
   1377c:	02f12423          	sw	a5,40(sp)
   13780:	00100793          	li	a5,1
   13784:	02f12623          	sw	a5,44(sp)
   13788:	02010793          	addi	a5,sp,32
   1378c:	00c12583          	lw	a1,12(sp)
   13790:	00f12a23          	sw	a5,20(sp)
   13794:	00200793          	li	a5,2
   13798:	00f12c23          	sw	a5,24(sp)
   1379c:	03842783          	lw	a5,56(s0)
   137a0:	02a12223          	sw	a0,36(sp)
   137a4:	00150513          	addi	a0,a0,1
   137a8:	02b12023          	sw	a1,32(sp)
   137ac:	00a12e23          	sw	a0,28(sp)
   137b0:	00842583          	lw	a1,8(s0)
   137b4:	00079a63          	bnez	a5,137c8 <_puts_r+0x70>
   137b8:	00040513          	mv	a0,s0
   137bc:	00b12623          	sw	a1,12(sp)
   137c0:	0b5020ef          	jal	ra,16074 <__sinit>
   137c4:	00c12583          	lw	a1,12(sp)
   137c8:	00c59783          	lh	a5,12(a1)
   137cc:	01279713          	slli	a4,a5,0x12
   137d0:	02074263          	bltz	a4,137f4 <_puts_r+0x9c>
   137d4:	000026b7          	lui	a3,0x2
   137d8:	0645a703          	lw	a4,100(a1)
   137dc:	00d7e7b3          	or	a5,a5,a3
   137e0:	00f59623          	sh	a5,12(a1)
   137e4:	ffffe7b7          	lui	a5,0xffffe
   137e8:	fff78793          	addi	a5,a5,-1 # ffffdfff <__global_pointer$+0xfffd7d8f>
   137ec:	00f777b3          	and	a5,a4,a5
   137f0:	06f5a223          	sw	a5,100(a1)
   137f4:	01410613          	addi	a2,sp,20
   137f8:	00040513          	mv	a0,s0
   137fc:	57d020ef          	jal	ra,16578 <__sfvwrite_r>
   13800:	fff00793          	li	a5,-1
   13804:	00051463          	bnez	a0,1380c <_puts_r+0xb4>
   13808:	00a00793          	li	a5,10
   1380c:	03c12083          	lw	ra,60(sp)
   13810:	03812403          	lw	s0,56(sp)
   13814:	00078513          	mv	a0,a5
   13818:	04010113          	addi	sp,sp,64
   1381c:	00008067          	ret

00013820 <puts>:
   13820:	00050593          	mv	a1,a0
   13824:	8301a503          	lw	a0,-2000(gp) # 25aa0 <_impure_ptr>
   13828:	f31ff06f          	j	13758 <_puts_r>

0001382c <strlen>:
   1382c:	00050793          	mv	a5,a0
   13830:	00178793          	addi	a5,a5,1
   13834:	fff7c703          	lbu	a4,-1(a5)
   13838:	fe071ce3          	bnez	a4,13830 <strlen+0x4>
   1383c:	40a78533          	sub	a0,a5,a0
   13840:	fff50513          	addi	a0,a0,-1
   13844:	00008067          	ret

00013848 <_times_r>:
   13848:	00058513          	mv	a0,a1
   1384c:	40d0b06f          	j	1f458 <_times>

00013850 <_vfprintf_r>:
   13850:	e2010113          	addi	sp,sp,-480
   13854:	1c112e23          	sw	ra,476(sp)
   13858:	1c912a23          	sw	s1,468(sp)
   1385c:	1d212823          	sw	s2,464(sp)
   13860:	1d312623          	sw	s3,460(sp)
   13864:	1d512223          	sw	s5,452(sp)
   13868:	00058913          	mv	s2,a1
   1386c:	00060493          	mv	s1,a2
   13870:	00068a93          	mv	s5,a3
   13874:	1c812c23          	sw	s0,472(sp)
   13878:	1d412423          	sw	s4,456(sp)
   1387c:	1d612023          	sw	s6,448(sp)
   13880:	1b712e23          	sw	s7,444(sp)
   13884:	1b812c23          	sw	s8,440(sp)
   13888:	1b912a23          	sw	s9,436(sp)
   1388c:	1ba12823          	sw	s10,432(sp)
   13890:	1bb12623          	sw	s11,428(sp)
   13894:	00050993          	mv	s3,a0
   13898:	240050ef          	jal	ra,18ad8 <_localeconv_r>
   1389c:	00052783          	lw	a5,0(a0)
   138a0:	00078513          	mv	a0,a5
   138a4:	02f12a23          	sw	a5,52(sp)
   138a8:	f85ff0ef          	jal	ra,1382c <strlen>
   138ac:	02a12023          	sw	a0,32(sp)
   138b0:	0e012023          	sw	zero,224(sp)
   138b4:	0e012223          	sw	zero,228(sp)
   138b8:	0e012423          	sw	zero,232(sp)
   138bc:	0e012623          	sw	zero,236(sp)
   138c0:	00098a63          	beqz	s3,138d4 <_vfprintf_r+0x84>
   138c4:	0389a783          	lw	a5,56(s3)
   138c8:	00079663          	bnez	a5,138d4 <_vfprintf_r+0x84>
   138cc:	00098513          	mv	a0,s3
   138d0:	7a4020ef          	jal	ra,16074 <__sinit>
   138d4:	00c91783          	lh	a5,12(s2) # 8000c <__global_pointer$+0x59d9c>
   138d8:	01279713          	slli	a4,a5,0x12
   138dc:	02074263          	bltz	a4,13900 <_vfprintf_r+0xb0>
   138e0:	000026b7          	lui	a3,0x2
   138e4:	06492703          	lw	a4,100(s2)
   138e8:	00d7e7b3          	or	a5,a5,a3
   138ec:	00f91623          	sh	a5,12(s2)
   138f0:	ffffe7b7          	lui	a5,0xffffe
   138f4:	fff78793          	addi	a5,a5,-1 # ffffdfff <__global_pointer$+0xfffd7d8f>
   138f8:	00f777b3          	and	a5,a4,a5
   138fc:	06f92223          	sw	a5,100(s2)
   13900:	00c95783          	lhu	a5,12(s2)
   13904:	0087f793          	andi	a5,a5,8
   13908:	04078063          	beqz	a5,13948 <_vfprintf_r+0xf8>
   1390c:	01092783          	lw	a5,16(s2)
   13910:	02078c63          	beqz	a5,13948 <_vfprintf_r+0xf8>
   13914:	00c95783          	lhu	a5,12(s2)
   13918:	00a00713          	li	a4,10
   1391c:	01a7f793          	andi	a5,a5,26
   13920:	08e79063          	bne	a5,a4,139a0 <_vfprintf_r+0x150>
   13924:	00e91783          	lh	a5,14(s2)
   13928:	0607cc63          	bltz	a5,139a0 <_vfprintf_r+0x150>
   1392c:	000a8693          	mv	a3,s5
   13930:	00048613          	mv	a2,s1
   13934:	00090593          	mv	a1,s2
   13938:	00098513          	mv	a0,s3
   1393c:	6dd010ef          	jal	ra,15818 <__sbprintf>
   13940:	02a12223          	sw	a0,36(sp)
   13944:	01c0006f          	j	13960 <_vfprintf_r+0x110>
   13948:	00090593          	mv	a1,s2
   1394c:	00098513          	mv	a0,s3
   13950:	0c4020ef          	jal	ra,15a14 <__swsetup_r>
   13954:	fc0500e3          	beqz	a0,13914 <_vfprintf_r+0xc4>
   13958:	fff00793          	li	a5,-1
   1395c:	02f12223          	sw	a5,36(sp)
   13960:	1dc12083          	lw	ra,476(sp)
   13964:	1d812403          	lw	s0,472(sp)
   13968:	02412503          	lw	a0,36(sp)
   1396c:	1d412483          	lw	s1,468(sp)
   13970:	1d012903          	lw	s2,464(sp)
   13974:	1cc12983          	lw	s3,460(sp)
   13978:	1c812a03          	lw	s4,456(sp)
   1397c:	1c412a83          	lw	s5,452(sp)
   13980:	1c012b03          	lw	s6,448(sp)
   13984:	1bc12b83          	lw	s7,444(sp)
   13988:	1b812c03          	lw	s8,440(sp)
   1398c:	1b412c83          	lw	s9,436(sp)
   13990:	1b012d03          	lw	s10,432(sp)
   13994:	1ac12d83          	lw	s11,428(sp)
   13998:	1e010113          	addi	sp,sp,480
   1399c:	00008067          	ret
   139a0:	000247b7          	lui	a5,0x24
   139a4:	32078793          	addi	a5,a5,800 # 24320 <__clz_tab+0x104>
   139a8:	04f12623          	sw	a5,76(sp)
   139ac:	000247b7          	lui	a5,0x24
   139b0:	0fc10893          	addi	a7,sp,252
   139b4:	49c78793          	addi	a5,a5,1180 # 2449c <zeroes.4514>
   139b8:	0d112a23          	sw	a7,212(sp)
   139bc:	0c012e23          	sw	zero,220(sp)
   139c0:	0c012c23          	sw	zero,216(sp)
   139c4:	00000a13          	li	s4,0
   139c8:	00088b93          	mv	s7,a7
   139cc:	04012023          	sw	zero,64(sp)
   139d0:	02012e23          	sw	zero,60(sp)
   139d4:	00012823          	sw	zero,16(sp)
   139d8:	02012823          	sw	zero,48(sp)
   139dc:	02012c23          	sw	zero,56(sp)
   139e0:	02012223          	sw	zero,36(sp)
   139e4:	00f12a23          	sw	a5,20(sp)
   139e8:	00048413          	mv	s0,s1
   139ec:	02500713          	li	a4,37
   139f0:	00044783          	lbu	a5,0(s0)
   139f4:	00078463          	beqz	a5,139fc <_vfprintf_r+0x1ac>
   139f8:	0ae79a63          	bne	a5,a4,13aac <_vfprintf_r+0x25c>
   139fc:	40940b33          	sub	s6,s0,s1
   13a00:	040b0a63          	beqz	s6,13a54 <_vfprintf_r+0x204>
   13a04:	0dc12783          	lw	a5,220(sp)
   13a08:	009ba023          	sw	s1,0(s7)
   13a0c:	016ba223          	sw	s6,4(s7)
   13a10:	016787b3          	add	a5,a5,s6
   13a14:	0cf12e23          	sw	a5,220(sp)
   13a18:	0d812783          	lw	a5,216(sp)
   13a1c:	00700713          	li	a4,7
   13a20:	008b8b93          	addi	s7,s7,8
   13a24:	00178793          	addi	a5,a5,1
   13a28:	0cf12c23          	sw	a5,216(sp)
   13a2c:	00f75e63          	ble	a5,a4,13a48 <_vfprintf_r+0x1f8>
   13a30:	0d410613          	addi	a2,sp,212
   13a34:	00090593          	mv	a1,s2
   13a38:	00098513          	mv	a0,s3
   13a3c:	40c090ef          	jal	ra,1ce48 <__sprint_r>
   13a40:	72051a63          	bnez	a0,14174 <_vfprintf_r+0x924>
   13a44:	0fc10b93          	addi	s7,sp,252
   13a48:	02412783          	lw	a5,36(sp)
   13a4c:	016787b3          	add	a5,a5,s6
   13a50:	02f12223          	sw	a5,36(sp)
   13a54:	00044783          	lbu	a5,0(s0)
   13a58:	00079463          	bnez	a5,13a60 <_vfprintf_r+0x210>
   13a5c:	5650106f          	j	157c0 <_vfprintf_r+0x1f70>
   13a60:	00140793          	addi	a5,s0,1
   13a64:	0a010ba3          	sb	zero,183(sp)
   13a68:	fff00d13          	li	s10,-1
   13a6c:	02012423          	sw	zero,40(sp)
   13a70:	00000413          	li	s0,0
   13a74:	05a00c13          	li	s8,90
   13a78:	00900d93          	li	s11,9
   13a7c:	02a00c93          	li	s9,42
   13a80:	0007cb03          	lbu	s6,0(a5)
   13a84:	00178713          	addi	a4,a5,1
   13a88:	00e12e23          	sw	a4,28(sp)
   13a8c:	fe0b0793          	addi	a5,s6,-32
   13a90:	00fc7463          	bleu	a5,s8,13a98 <_vfprintf_r+0x248>
   13a94:	2440106f          	j	14cd8 <_vfprintf_r+0x1488>
   13a98:	04c12703          	lw	a4,76(sp)
   13a9c:	00279793          	slli	a5,a5,0x2
   13aa0:	00e787b3          	add	a5,a5,a4
   13aa4:	0007a783          	lw	a5,0(a5)
   13aa8:	00078067          	jr	a5
   13aac:	00140413          	addi	s0,s0,1
   13ab0:	f41ff06f          	j	139f0 <_vfprintf_r+0x1a0>
   13ab4:	00098513          	mv	a0,s3
   13ab8:	020050ef          	jal	ra,18ad8 <_localeconv_r>
   13abc:	00452783          	lw	a5,4(a0)
   13ac0:	00078513          	mv	a0,a5
   13ac4:	02f12c23          	sw	a5,56(sp)
   13ac8:	d65ff0ef          	jal	ra,1382c <strlen>
   13acc:	02a12823          	sw	a0,48(sp)
   13ad0:	00098513          	mv	a0,s3
   13ad4:	004050ef          	jal	ra,18ad8 <_localeconv_r>
   13ad8:	00852783          	lw	a5,8(a0)
   13adc:	00f12823          	sw	a5,16(sp)
   13ae0:	03012783          	lw	a5,48(sp)
   13ae4:	00078c63          	beqz	a5,13afc <_vfprintf_r+0x2ac>
   13ae8:	01012783          	lw	a5,16(sp)
   13aec:	00078863          	beqz	a5,13afc <_vfprintf_r+0x2ac>
   13af0:	0007c783          	lbu	a5,0(a5)
   13af4:	00078463          	beqz	a5,13afc <_vfprintf_r+0x2ac>
   13af8:	40046413          	ori	s0,s0,1024
   13afc:	01c12783          	lw	a5,28(sp)
   13b00:	f81ff06f          	j	13a80 <_vfprintf_r+0x230>
   13b04:	0b714783          	lbu	a5,183(sp)
   13b08:	fe079ae3          	bnez	a5,13afc <_vfprintf_r+0x2ac>
   13b0c:	02000793          	li	a5,32
   13b10:	0af10ba3          	sb	a5,183(sp)
   13b14:	fe9ff06f          	j	13afc <_vfprintf_r+0x2ac>
   13b18:	00146413          	ori	s0,s0,1
   13b1c:	fe1ff06f          	j	13afc <_vfprintf_r+0x2ac>
   13b20:	000aa783          	lw	a5,0(s5)
   13b24:	004a8a93          	addi	s5,s5,4
   13b28:	02f12423          	sw	a5,40(sp)
   13b2c:	fc07d8e3          	bgez	a5,13afc <_vfprintf_r+0x2ac>
   13b30:	40f007b3          	neg	a5,a5
   13b34:	02f12423          	sw	a5,40(sp)
   13b38:	00446413          	ori	s0,s0,4
   13b3c:	fc1ff06f          	j	13afc <_vfprintf_r+0x2ac>
   13b40:	02b00793          	li	a5,43
   13b44:	fcdff06f          	j	13b10 <_vfprintf_r+0x2c0>
   13b48:	01c12703          	lw	a4,28(sp)
   13b4c:	01c12783          	lw	a5,28(sp)
   13b50:	00074b03          	lbu	s6,0(a4)
   13b54:	00178793          	addi	a5,a5,1
   13b58:	059b1463          	bne	s6,s9,13ba0 <_vfprintf_r+0x350>
   13b5c:	000aad03          	lw	s10,0(s5)
   13b60:	004a8713          	addi	a4,s5,4
   13b64:	000d5463          	bgez	s10,13b6c <_vfprintf_r+0x31c>
   13b68:	fff00d13          	li	s10,-1
   13b6c:	00070a93          	mv	s5,a4
   13b70:	00f12e23          	sw	a5,28(sp)
   13b74:	f89ff06f          	j	13afc <_vfprintf_r+0x2ac>
   13b78:	002d1713          	slli	a4,s10,0x2
   13b7c:	00178793          	addi	a5,a5,1
   13b80:	01a70333          	add	t1,a4,s10
   13b84:	fff7cb03          	lbu	s6,-1(a5)
   13b88:	00131313          	slli	t1,t1,0x1
   13b8c:	00d30d33          	add	s10,t1,a3
   13b90:	fd0b0693          	addi	a3,s6,-48
   13b94:	feddf2e3          	bleu	a3,s11,13b78 <_vfprintf_r+0x328>
   13b98:	00f12e23          	sw	a5,28(sp)
   13b9c:	ef1ff06f          	j	13a8c <_vfprintf_r+0x23c>
   13ba0:	00000d13          	li	s10,0
   13ba4:	fedff06f          	j	13b90 <_vfprintf_r+0x340>
   13ba8:	08046413          	ori	s0,s0,128
   13bac:	f51ff06f          	j	13afc <_vfprintf_r+0x2ac>
   13bb0:	01c12783          	lw	a5,28(sp)
   13bb4:	02012423          	sw	zero,40(sp)
   13bb8:	02812703          	lw	a4,40(sp)
   13bbc:	02812683          	lw	a3,40(sp)
   13bc0:	fd0b0b13          	addi	s6,s6,-48
   13bc4:	00271713          	slli	a4,a4,0x2
   13bc8:	00d70733          	add	a4,a4,a3
   13bcc:	00171713          	slli	a4,a4,0x1
   13bd0:	00178793          	addi	a5,a5,1
   13bd4:	00eb0733          	add	a4,s6,a4
   13bd8:	fff7cb03          	lbu	s6,-1(a5)
   13bdc:	02e12423          	sw	a4,40(sp)
   13be0:	fd0b0713          	addi	a4,s6,-48
   13be4:	fcedfae3          	bleu	a4,s11,13bb8 <_vfprintf_r+0x368>
   13be8:	fb1ff06f          	j	13b98 <_vfprintf_r+0x348>
   13bec:	00846413          	ori	s0,s0,8
   13bf0:	f0dff06f          	j	13afc <_vfprintf_r+0x2ac>
   13bf4:	01c12783          	lw	a5,28(sp)
   13bf8:	0007c703          	lbu	a4,0(a5)
   13bfc:	06800793          	li	a5,104
   13c00:	00f71c63          	bne	a4,a5,13c18 <_vfprintf_r+0x3c8>
   13c04:	01c12783          	lw	a5,28(sp)
   13c08:	20046413          	ori	s0,s0,512
   13c0c:	00178793          	addi	a5,a5,1
   13c10:	00f12e23          	sw	a5,28(sp)
   13c14:	ee9ff06f          	j	13afc <_vfprintf_r+0x2ac>
   13c18:	04046413          	ori	s0,s0,64
   13c1c:	ee1ff06f          	j	13afc <_vfprintf_r+0x2ac>
   13c20:	01c12783          	lw	a5,28(sp)
   13c24:	0007c703          	lbu	a4,0(a5)
   13c28:	06c00793          	li	a5,108
   13c2c:	00f71c63          	bne	a4,a5,13c44 <_vfprintf_r+0x3f4>
   13c30:	01c12783          	lw	a5,28(sp)
   13c34:	00178793          	addi	a5,a5,1
   13c38:	00f12e23          	sw	a5,28(sp)
   13c3c:	02046413          	ori	s0,s0,32
   13c40:	ebdff06f          	j	13afc <_vfprintf_r+0x2ac>
   13c44:	01046413          	ori	s0,s0,16
   13c48:	eb5ff06f          	j	13afc <_vfprintf_r+0x2ac>
   13c4c:	004a8793          	addi	a5,s5,4
   13c50:	00f12c23          	sw	a5,24(sp)
   13c54:	000aa783          	lw	a5,0(s5)
   13c58:	0a010ba3          	sb	zero,183(sp)
   13c5c:	12f10e23          	sb	a5,316(sp)
   13c60:	00012623          	sw	zero,12(sp)
   13c64:	00100d13          	li	s10,1
   13c68:	00000713          	li	a4,0
   13c6c:	00000c93          	li	s9,0
   13c70:	00000c13          	li	s8,0
   13c74:	00000d93          	li	s11,0
   13c78:	13c10493          	addi	s1,sp,316
   13c7c:	02e12623          	sw	a4,44(sp)
   13c80:	01a75463          	ble	s10,a4,13c88 <_vfprintf_r+0x438>
   13c84:	03a12623          	sw	s10,44(sp)
   13c88:	0b714683          	lbu	a3,183(sp)
   13c8c:	00068863          	beqz	a3,13c9c <_vfprintf_r+0x44c>
   13c90:	02c12783          	lw	a5,44(sp)
   13c94:	00178793          	addi	a5,a5,1
   13c98:	02f12623          	sw	a5,44(sp)
   13c9c:	00247a93          	andi	s5,s0,2
   13ca0:	000a8863          	beqz	s5,13cb0 <_vfprintf_r+0x460>
   13ca4:	02c12783          	lw	a5,44(sp)
   13ca8:	00278793          	addi	a5,a5,2
   13cac:	02f12623          	sw	a5,44(sp)
   13cb0:	08447793          	andi	a5,s0,132
   13cb4:	04f12223          	sw	a5,68(sp)
   13cb8:	08079063          	bnez	a5,13d38 <_vfprintf_r+0x4e8>
   13cbc:	02812783          	lw	a5,40(sp)
   13cc0:	02c12683          	lw	a3,44(sp)
   13cc4:	40d786b3          	sub	a3,a5,a3
   13cc8:	06d05863          	blez	a3,13d38 <_vfprintf_r+0x4e8>
   13ccc:	000247b7          	lui	a5,0x24
   13cd0:	01000e13          	li	t3,16
   13cd4:	48c78813          	addi	a6,a5,1164 # 2448c <blanks.4513>
   13cd8:	00700e93          	li	t4,7
   13cdc:	0d812603          	lw	a2,216(sp)
   13ce0:	010ba023          	sw	a6,0(s7)
   13ce4:	0dc12583          	lw	a1,220(sp)
   13ce8:	00160613          	addi	a2,a2,1
   13cec:	008b8513          	addi	a0,s7,8
   13cf0:	00de5463          	ble	a3,t3,13cf8 <_vfprintf_r+0x4a8>
   13cf4:	7f90006f          	j	14cec <_vfprintf_r+0x149c>
   13cf8:	00dba223          	sw	a3,4(s7)
   13cfc:	00b686b3          	add	a3,a3,a1
   13d00:	0cd12e23          	sw	a3,220(sp)
   13d04:	0cc12c23          	sw	a2,216(sp)
   13d08:	00700693          	li	a3,7
   13d0c:	00050b93          	mv	s7,a0
   13d10:	02c6d463          	ble	a2,a3,13d38 <_vfprintf_r+0x4e8>
   13d14:	0d410613          	addi	a2,sp,212
   13d18:	00090593          	mv	a1,s2
   13d1c:	00098513          	mv	a0,s3
   13d20:	04e12423          	sw	a4,72(sp)
   13d24:	124090ef          	jal	ra,1ce48 <__sprint_r>
   13d28:	00050463          	beqz	a0,13d30 <_vfprintf_r+0x4e0>
   13d2c:	2310106f          	j	1575c <_vfprintf_r+0x1f0c>
   13d30:	04812703          	lw	a4,72(sp)
   13d34:	0fc10b93          	addi	s7,sp,252
   13d38:	0b714683          	lbu	a3,183(sp)
   13d3c:	04068e63          	beqz	a3,13d98 <_vfprintf_r+0x548>
   13d40:	0b710693          	addi	a3,sp,183
   13d44:	00dba023          	sw	a3,0(s7)
   13d48:	00100693          	li	a3,1
   13d4c:	00dba223          	sw	a3,4(s7)
   13d50:	0dc12683          	lw	a3,220(sp)
   13d54:	00700613          	li	a2,7
   13d58:	008b8b93          	addi	s7,s7,8
   13d5c:	00168693          	addi	a3,a3,1 # 2001 <main-0xe073>
   13d60:	0cd12e23          	sw	a3,220(sp)
   13d64:	0d812683          	lw	a3,216(sp)
   13d68:	00168693          	addi	a3,a3,1
   13d6c:	0cd12c23          	sw	a3,216(sp)
   13d70:	02d65463          	ble	a3,a2,13d98 <_vfprintf_r+0x548>
   13d74:	0d410613          	addi	a2,sp,212
   13d78:	00090593          	mv	a1,s2
   13d7c:	00098513          	mv	a0,s3
   13d80:	04e12423          	sw	a4,72(sp)
   13d84:	0c4090ef          	jal	ra,1ce48 <__sprint_r>
   13d88:	00050463          	beqz	a0,13d90 <_vfprintf_r+0x540>
   13d8c:	1d10106f          	j	1575c <_vfprintf_r+0x1f0c>
   13d90:	04812703          	lw	a4,72(sp)
   13d94:	0fc10b93          	addi	s7,sp,252
   13d98:	040a8e63          	beqz	s5,13df4 <_vfprintf_r+0x5a4>
   13d9c:	0b810693          	addi	a3,sp,184
   13da0:	00dba023          	sw	a3,0(s7)
   13da4:	00200693          	li	a3,2
   13da8:	00dba223          	sw	a3,4(s7)
   13dac:	0dc12683          	lw	a3,220(sp)
   13db0:	00700613          	li	a2,7
   13db4:	008b8b93          	addi	s7,s7,8
   13db8:	00268693          	addi	a3,a3,2
   13dbc:	0cd12e23          	sw	a3,220(sp)
   13dc0:	0d812683          	lw	a3,216(sp)
   13dc4:	00168693          	addi	a3,a3,1
   13dc8:	0cd12c23          	sw	a3,216(sp)
   13dcc:	02d65463          	ble	a3,a2,13df4 <_vfprintf_r+0x5a4>
   13dd0:	0d410613          	addi	a2,sp,212
   13dd4:	00090593          	mv	a1,s2
   13dd8:	00098513          	mv	a0,s3
   13ddc:	04e12423          	sw	a4,72(sp)
   13de0:	068090ef          	jal	ra,1ce48 <__sprint_r>
   13de4:	00050463          	beqz	a0,13dec <_vfprintf_r+0x59c>
   13de8:	1750106f          	j	1575c <_vfprintf_r+0x1f0c>
   13dec:	04812703          	lw	a4,72(sp)
   13df0:	0fc10b93          	addi	s7,sp,252
   13df4:	04412783          	lw	a5,68(sp)
   13df8:	08000693          	li	a3,128
   13dfc:	06d79c63          	bne	a5,a3,13e74 <_vfprintf_r+0x624>
   13e00:	02812783          	lw	a5,40(sp)
   13e04:	02c12683          	lw	a3,44(sp)
   13e08:	40d78ab3          	sub	s5,a5,a3
   13e0c:	07505463          	blez	s5,13e74 <_vfprintf_r+0x624>
   13e10:	01000813          	li	a6,16
   13e14:	00700e13          	li	t3,7
   13e18:	01412783          	lw	a5,20(sp)
   13e1c:	0d812683          	lw	a3,216(sp)
   13e20:	0dc12603          	lw	a2,220(sp)
   13e24:	00fba023          	sw	a5,0(s7)
   13e28:	00168693          	addi	a3,a3,1
   13e2c:	008b8593          	addi	a1,s7,8
   13e30:	71584ae3          	blt	a6,s5,14d44 <_vfprintf_r+0x14f4>
   13e34:	015ba223          	sw	s5,4(s7)
   13e38:	00ca8ab3          	add	s5,s5,a2
   13e3c:	0d512e23          	sw	s5,220(sp)
   13e40:	0cd12c23          	sw	a3,216(sp)
   13e44:	00700613          	li	a2,7
   13e48:	00058b93          	mv	s7,a1
   13e4c:	02d65463          	ble	a3,a2,13e74 <_vfprintf_r+0x624>
   13e50:	0d410613          	addi	a2,sp,212
   13e54:	00090593          	mv	a1,s2
   13e58:	00098513          	mv	a0,s3
   13e5c:	04e12223          	sw	a4,68(sp)
   13e60:	7e9080ef          	jal	ra,1ce48 <__sprint_r>
   13e64:	00050463          	beqz	a0,13e6c <_vfprintf_r+0x61c>
   13e68:	0f50106f          	j	1575c <_vfprintf_r+0x1f0c>
   13e6c:	04412703          	lw	a4,68(sp)
   13e70:	0fc10b93          	addi	s7,sp,252
   13e74:	41a70ab3          	sub	s5,a4,s10
   13e78:	07505063          	blez	s5,13ed8 <_vfprintf_r+0x688>
   13e7c:	01000813          	li	a6,16
   13e80:	00700e13          	li	t3,7
   13e84:	01412783          	lw	a5,20(sp)
   13e88:	0d812683          	lw	a3,216(sp)
   13e8c:	0dc12703          	lw	a4,220(sp)
   13e90:	00fba023          	sw	a5,0(s7)
   13e94:	00168693          	addi	a3,a3,1
   13e98:	008b8613          	addi	a2,s7,8
   13e9c:	6f5848e3          	blt	a6,s5,14d8c <_vfprintf_r+0x153c>
   13ea0:	00ea8733          	add	a4,s5,a4
   13ea4:	015ba223          	sw	s5,4(s7)
   13ea8:	0ce12e23          	sw	a4,220(sp)
   13eac:	0cd12c23          	sw	a3,216(sp)
   13eb0:	00700713          	li	a4,7
   13eb4:	00060b93          	mv	s7,a2
   13eb8:	02d75063          	ble	a3,a4,13ed8 <_vfprintf_r+0x688>
   13ebc:	0d410613          	addi	a2,sp,212
   13ec0:	00090593          	mv	a1,s2
   13ec4:	00098513          	mv	a0,s3
   13ec8:	781080ef          	jal	ra,1ce48 <__sprint_r>
   13ecc:	00050463          	beqz	a0,13ed4 <_vfprintf_r+0x684>
   13ed0:	08d0106f          	j	1575c <_vfprintf_r+0x1f0c>
   13ed4:	0fc10b93          	addi	s7,sp,252
   13ed8:	10047693          	andi	a3,s0,256
   13edc:	0dc12703          	lw	a4,220(sp)
   13ee0:	6e0696e3          	bnez	a3,14dcc <_vfprintf_r+0x157c>
   13ee4:	0d812783          	lw	a5,216(sp)
   13ee8:	00ed0333          	add	t1,s10,a4
   13eec:	009ba023          	sw	s1,0(s7)
   13ef0:	00178793          	addi	a5,a5,1
   13ef4:	01aba223          	sw	s10,4(s7)
   13ef8:	0c612e23          	sw	t1,220(sp)
   13efc:	0cf12c23          	sw	a5,216(sp)
   13f00:	00700713          	li	a4,7
   13f04:	008b8b93          	addi	s7,s7,8
   13f08:	00f74463          	blt	a4,a5,13f10 <_vfprintf_r+0x6c0>
   13f0c:	1880106f          	j	15094 <_vfprintf_r+0x1844>
   13f10:	0d410613          	addi	a2,sp,212
   13f14:	00090593          	mv	a1,s2
   13f18:	00098513          	mv	a0,s3
   13f1c:	72d080ef          	jal	ra,1ce48 <__sprint_r>
   13f20:	00050463          	beqz	a0,13f28 <_vfprintf_r+0x6d8>
   13f24:	0390106f          	j	1575c <_vfprintf_r+0x1f0c>
   13f28:	0fc10b93          	addi	s7,sp,252
   13f2c:	1680106f          	j	15094 <_vfprintf_r+0x1844>
   13f30:	01046413          	ori	s0,s0,16
   13f34:	02047793          	andi	a5,s0,32
   13f38:	06078463          	beqz	a5,13fa0 <_vfprintf_r+0x750>
   13f3c:	007a8a93          	addi	s5,s5,7
   13f40:	ff8afa93          	andi	s5,s5,-8
   13f44:	000aac83          	lw	s9,0(s5)
   13f48:	004aad83          	lw	s11,4(s5)
   13f4c:	008a8793          	addi	a5,s5,8
   13f50:	00f12c23          	sw	a5,24(sp)
   13f54:	000dc463          	bltz	s11,13f5c <_vfprintf_r+0x70c>
   13f58:	0890106f          	j	157e0 <_vfprintf_r+0x1f90>
   13f5c:	41900cb3          	neg	s9,s9
   13f60:	019037b3          	snez	a5,s9
   13f64:	41b00db3          	neg	s11,s11
   13f68:	40fd8db3          	sub	s11,s11,a5
   13f6c:	02d00793          	li	a5,45
   13f70:	0af10ba3          	sb	a5,183(sp)
   13f74:	00100793          	li	a5,1
   13f78:	fff00713          	li	a4,-1
   13f7c:	3ced04e3          	beq	s10,a4,14b44 <_vfprintf_r+0x12f4>
   13f80:	00040713          	mv	a4,s0
   13f84:	01bce6b3          	or	a3,s9,s11
   13f88:	f7f47413          	andi	s0,s0,-129
   13f8c:	3a069ce3          	bnez	a3,14b44 <_vfprintf_r+0x12f4>
   13f90:	520d06e3          	beqz	s10,14cbc <_vfprintf_r+0x146c>
   13f94:	00100713          	li	a4,1
   13f98:	3ae79ae3          	bne	a5,a4,14b4c <_vfprintf_r+0x12fc>
   13f9c:	0590106f          	j	157f4 <_vfprintf_r+0x1fa4>
   13fa0:	004a8793          	addi	a5,s5,4
   13fa4:	00f12c23          	sw	a5,24(sp)
   13fa8:	01047793          	andi	a5,s0,16
   13fac:	00078863          	beqz	a5,13fbc <_vfprintf_r+0x76c>
   13fb0:	000aac83          	lw	s9,0(s5)
   13fb4:	41fcdd93          	srai	s11,s9,0x1f
   13fb8:	f9dff06f          	j	13f54 <_vfprintf_r+0x704>
   13fbc:	04047793          	andi	a5,s0,64
   13fc0:	000aac83          	lw	s9,0(s5)
   13fc4:	00078863          	beqz	a5,13fd4 <_vfprintf_r+0x784>
   13fc8:	010c9c93          	slli	s9,s9,0x10
   13fcc:	410cdc93          	srai	s9,s9,0x10
   13fd0:	fe5ff06f          	j	13fb4 <_vfprintf_r+0x764>
   13fd4:	20047793          	andi	a5,s0,512
   13fd8:	fc078ee3          	beqz	a5,13fb4 <_vfprintf_r+0x764>
   13fdc:	018c9c93          	slli	s9,s9,0x18
   13fe0:	418cdc93          	srai	s9,s9,0x18
   13fe4:	fd1ff06f          	j	13fb4 <_vfprintf_r+0x764>
   13fe8:	00847793          	andi	a5,s0,8
   13fec:	0a078863          	beqz	a5,1409c <_vfprintf_r+0x84c>
   13ff0:	004a8793          	addi	a5,s5,4
   13ff4:	00f12c23          	sw	a5,24(sp)
   13ff8:	000aa783          	lw	a5,0(s5)
   13ffc:	0007a603          	lw	a2,0(a5)
   14000:	0047a683          	lw	a3,4(a5)
   14004:	0087a703          	lw	a4,8(a5)
   14008:	00c7a783          	lw	a5,12(a5)
   1400c:	0ec12023          	sw	a2,224(sp)
   14010:	0ed12223          	sw	a3,228(sp)
   14014:	0ee12423          	sw	a4,232(sp)
   14018:	0e010513          	addi	a0,sp,224
   1401c:	0ef12623          	sw	a5,236(sp)
   14020:	24d040ef          	jal	ra,18a6c <_ldcheck>
   14024:	0aa12e23          	sw	a0,188(sp)
   14028:	00200793          	li	a5,2
   1402c:	0af51e63          	bne	a0,a5,140e8 <_vfprintf_r+0x898>
   14030:	0e012783          	lw	a5,224(sp)
   14034:	09010593          	addi	a1,sp,144
   14038:	0a010513          	addi	a0,sp,160
   1403c:	0af12023          	sw	a5,160(sp)
   14040:	0e412783          	lw	a5,228(sp)
   14044:	08012823          	sw	zero,144(sp)
   14048:	08012a23          	sw	zero,148(sp)
   1404c:	0af12223          	sw	a5,164(sp)
   14050:	0e812783          	lw	a5,232(sp)
   14054:	08012c23          	sw	zero,152(sp)
   14058:	08012e23          	sw	zero,156(sp)
   1405c:	0af12423          	sw	a5,168(sp)
   14060:	0ec12783          	lw	a5,236(sp)
   14064:	0af12623          	sw	a5,172(sp)
   14068:	1150c0ef          	jal	ra,2097c <__letf2>
   1406c:	00055663          	bgez	a0,14078 <_vfprintf_r+0x828>
   14070:	02d00793          	li	a5,45
   14074:	0af10ba3          	sb	a5,183(sp)
   14078:	04700793          	li	a5,71
   1407c:	0767d063          	ble	s6,a5,140dc <_vfprintf_r+0x88c>
   14080:	000244b7          	lui	s1,0x24
   14084:	4b048493          	addi	s1,s1,1200 # 244b0 <zeroes.4514+0x14>
   14088:	f7f47413          	andi	s0,s0,-129
   1408c:	00012623          	sw	zero,12(sp)
   14090:	00300d13          	li	s10,3
   14094:	00000713          	li	a4,0
   14098:	3110006f          	j	14ba8 <_vfprintf_r+0x1358>
   1409c:	007a8a93          	addi	s5,s5,7
   140a0:	ff8afa93          	andi	s5,s5,-8
   140a4:	000aa583          	lw	a1,0(s5)
   140a8:	004aa603          	lw	a2,4(s5)
   140ac:	008a8793          	addi	a5,s5,8
   140b0:	0a010513          	addi	a0,sp,160
   140b4:	00f12c23          	sw	a5,24(sp)
   140b8:	5e80f0ef          	jal	ra,236a0 <__extenddftf2>
   140bc:	0a012783          	lw	a5,160(sp)
   140c0:	0ef12023          	sw	a5,224(sp)
   140c4:	0a412783          	lw	a5,164(sp)
   140c8:	0ef12223          	sw	a5,228(sp)
   140cc:	0a812783          	lw	a5,168(sp)
   140d0:	0ef12423          	sw	a5,232(sp)
   140d4:	0ac12783          	lw	a5,172(sp)
   140d8:	f41ff06f          	j	14018 <_vfprintf_r+0x7c8>
   140dc:	000244b7          	lui	s1,0x24
   140e0:	4ac48493          	addi	s1,s1,1196 # 244ac <zeroes.4514+0x10>
   140e4:	fa5ff06f          	j	14088 <_vfprintf_r+0x838>
   140e8:	00100793          	li	a5,1
   140ec:	02f51a63          	bne	a0,a5,14120 <_vfprintf_r+0x8d0>
   140f0:	0ec12783          	lw	a5,236(sp)
   140f4:	0007d663          	bgez	a5,14100 <_vfprintf_r+0x8b0>
   140f8:	02d00793          	li	a5,45
   140fc:	0af10ba3          	sb	a5,183(sp)
   14100:	04700793          	li	a5,71
   14104:	0167d863          	ble	s6,a5,14114 <_vfprintf_r+0x8c4>
   14108:	000244b7          	lui	s1,0x24
   1410c:	4b848493          	addi	s1,s1,1208 # 244b8 <zeroes.4514+0x1c>
   14110:	f79ff06f          	j	14088 <_vfprintf_r+0x838>
   14114:	000244b7          	lui	s1,0x24
   14118:	4b448493          	addi	s1,s1,1204 # 244b4 <zeroes.4514+0x18>
   1411c:	f6dff06f          	j	14088 <_vfprintf_r+0x838>
   14120:	fdfb7c13          	andi	s8,s6,-33
   14124:	04100793          	li	a5,65
   14128:	04fc1e63          	bne	s8,a5,14184 <_vfprintf_r+0x934>
   1412c:	03000793          	li	a5,48
   14130:	0af10c23          	sb	a5,184(sp)
   14134:	06100713          	li	a4,97
   14138:	07800793          	li	a5,120
   1413c:	00eb0463          	beq	s6,a4,14144 <_vfprintf_r+0x8f4>
   14140:	05800793          	li	a5,88
   14144:	0af10ca3          	sb	a5,185(sp)
   14148:	06300793          	li	a5,99
   1414c:	00246413          	ori	s0,s0,2
   14150:	4ba7d463          	ble	s10,a5,145f8 <_vfprintf_r+0xda8>
   14154:	001d0593          	addi	a1,s10,1
   14158:	00098513          	mv	a0,s3
   1415c:	405040ef          	jal	ra,18d60 <_malloc_r>
   14160:	00050493          	mv	s1,a0
   14164:	4a051063          	bnez	a0,14604 <_vfprintf_r+0xdb4>
   14168:	00c95783          	lhu	a5,12(s2)
   1416c:	0407e793          	ori	a5,a5,64
   14170:	00f91623          	sh	a5,12(s2)
   14174:	00c95783          	lhu	a5,12(s2)
   14178:	0407f793          	andi	a5,a5,64
   1417c:	fe078263          	beqz	a5,13960 <_vfprintf_r+0x110>
   14180:	fd8ff06f          	j	13958 <_vfprintf_r+0x108>
   14184:	fff00793          	li	a5,-1
   14188:	48fd0263          	beq	s10,a5,1460c <_vfprintf_r+0xdbc>
   1418c:	04700793          	li	a5,71
   14190:	00012623          	sw	zero,12(sp)
   14194:	00fc1863          	bne	s8,a5,141a4 <_vfprintf_r+0x954>
   14198:	000d1663          	bnez	s10,141a4 <_vfprintf_r+0x954>
   1419c:	01a12623          	sw	s10,12(sp)
   141a0:	00100d13          	li	s10,1
   141a4:	0ec12a03          	lw	s4,236(sp)
   141a8:	10046793          	ori	a5,s0,256
   141ac:	02f12623          	sw	a5,44(sp)
   141b0:	04012223          	sw	zero,68(sp)
   141b4:	0e012e83          	lw	t4,224(sp)
   141b8:	0e412e03          	lw	t3,228(sp)
   141bc:	0e812d83          	lw	s11,232(sp)
   141c0:	000a5a63          	bgez	s4,141d4 <_vfprintf_r+0x984>
   141c4:	800007b7          	lui	a5,0x80000
   141c8:	0147ca33          	xor	s4,a5,s4
   141cc:	02d00793          	li	a5,45
   141d0:	04f12223          	sw	a5,68(sp)
   141d4:	04100793          	li	a5,65
   141d8:	48fc1463          	bne	s8,a5,14660 <_vfprintf_r+0xe10>
   141dc:	0a010513          	addi	a0,sp,160
   141e0:	0bd12023          	sw	t4,160(sp)
   141e4:	0bc12223          	sw	t3,164(sp)
   141e8:	0bb12423          	sw	s11,168(sp)
   141ec:	0b412623          	sw	s4,172(sp)
   141f0:	6b80f0ef          	jal	ra,238a8 <__trunctfdf2>
   141f4:	0bc10613          	addi	a2,sp,188
   141f8:	069060ef          	jal	ra,1aa60 <frexp>
   141fc:	00058613          	mv	a2,a1
   14200:	00050593          	mv	a1,a0
   14204:	0a010513          	addi	a0,sp,160
   14208:	4980f0ef          	jal	ra,236a0 <__extenddftf2>
   1420c:	0a012783          	lw	a5,160(sp)
   14210:	07010613          	addi	a2,sp,112
   14214:	08010593          	addi	a1,sp,128
   14218:	08f12023          	sw	a5,128(sp)
   1421c:	0a412783          	lw	a5,164(sp)
   14220:	09010513          	addi	a0,sp,144
   14224:	06012823          	sw	zero,112(sp)
   14228:	08f12223          	sw	a5,132(sp)
   1422c:	0a812783          	lw	a5,168(sp)
   14230:	06012a23          	sw	zero,116(sp)
   14234:	06012c23          	sw	zero,120(sp)
   14238:	08f12423          	sw	a5,136(sp)
   1423c:	0ac12783          	lw	a5,172(sp)
   14240:	08f12623          	sw	a5,140(sp)
   14244:	3ffc07b7          	lui	a5,0x3ffc0
   14248:	06f12e23          	sw	a5,124(sp)
   1424c:	0790c0ef          	jal	ra,20ac4 <__multf3>
   14250:	09012803          	lw	a6,144(sp)
   14254:	09412603          	lw	a2,148(sp)
   14258:	09812683          	lw	a3,152(sp)
   1425c:	09c12d83          	lw	s11,156(sp)
   14260:	09010593          	addi	a1,sp,144
   14264:	0a010513          	addi	a0,sp,160
   14268:	0b012023          	sw	a6,160(sp)
   1426c:	05012a23          	sw	a6,84(sp)
   14270:	0ac12223          	sw	a2,164(sp)
   14274:	04c12823          	sw	a2,80(sp)
   14278:	0ad12423          	sw	a3,168(sp)
   1427c:	04d12423          	sw	a3,72(sp)
   14280:	0bb12623          	sw	s11,172(sp)
   14284:	08012823          	sw	zero,144(sp)
   14288:	08012a23          	sw	zero,148(sp)
   1428c:	08012c23          	sw	zero,152(sp)
   14290:	08012e23          	sw	zero,156(sp)
   14294:	4d40c0ef          	jal	ra,20768 <__eqtf2>
   14298:	04812683          	lw	a3,72(sp)
   1429c:	05012603          	lw	a2,80(sp)
   142a0:	05412803          	lw	a6,84(sp)
   142a4:	00051663          	bnez	a0,142b0 <_vfprintf_r+0xa60>
   142a8:	00100793          	li	a5,1
   142ac:	0af12e23          	sw	a5,188(sp)
   142b0:	06100793          	li	a5,97
   142b4:	36fb0263          	beq	s6,a5,14618 <_vfprintf_r+0xdc8>
   142b8:	00024a37          	lui	s4,0x24
   142bc:	4d0a0a13          	addi	s4,s4,1232 # 244d0 <zeroes.4514+0x34>
   142c0:	fffd0e13          	addi	t3,s10,-1
   142c4:	00048c93          	mv	s9,s1
   142c8:	400307b7          	lui	a5,0x40030
   142cc:	09010593          	addi	a1,sp,144
   142d0:	08c12a23          	sw	a2,148(sp)
   142d4:	0a010513          	addi	a0,sp,160
   142d8:	08010613          	addi	a2,sp,128
   142dc:	05c12c23          	sw	t3,88(sp)
   142e0:	08f12623          	sw	a5,140(sp)
   142e4:	09012823          	sw	a6,144(sp)
   142e8:	08d12c23          	sw	a3,152(sp)
   142ec:	09b12e23          	sw	s11,156(sp)
   142f0:	08012023          	sw	zero,128(sp)
   142f4:	08012223          	sw	zero,132(sp)
   142f8:	08012423          	sw	zero,136(sp)
   142fc:	7c80c0ef          	jal	ra,20ac4 <__multf3>
   14300:	0a012603          	lw	a2,160(sp)
   14304:	0a412683          	lw	a3,164(sp)
   14308:	0a812703          	lw	a4,168(sp)
   1430c:	0a010513          	addi	a0,sp,160
   14310:	04c12a23          	sw	a2,84(sp)
   14314:	04d12823          	sw	a3,80(sp)
   14318:	04e12423          	sw	a4,72(sp)
   1431c:	0a80f0ef          	jal	ra,233c4 <__fixtfsi>
   14320:	00050593          	mv	a1,a0
   14324:	00050a93          	mv	s5,a0
   14328:	0a010513          	addi	a0,sp,160
   1432c:	0ac12d83          	lw	s11,172(sp)
   14330:	1e40f0ef          	jal	ra,23514 <__floatsitf>
   14334:	04812703          	lw	a4,72(sp)
   14338:	05412603          	lw	a2,84(sp)
   1433c:	05012683          	lw	a3,80(sp)
   14340:	08e12423          	sw	a4,136(sp)
   14344:	0a012703          	lw	a4,160(sp)
   14348:	08c12023          	sw	a2,128(sp)
   1434c:	08010593          	addi	a1,sp,128
   14350:	06e12823          	sw	a4,112(sp)
   14354:	0a412703          	lw	a4,164(sp)
   14358:	07010613          	addi	a2,sp,112
   1435c:	09010513          	addi	a0,sp,144
   14360:	06e12a23          	sw	a4,116(sp)
   14364:	0a812703          	lw	a4,168(sp)
   14368:	09b12623          	sw	s11,140(sp)
   1436c:	08d12223          	sw	a3,132(sp)
   14370:	06e12c23          	sw	a4,120(sp)
   14374:	0ac12703          	lw	a4,172(sp)
   14378:	001c8c93          	addi	s9,s9,1 # 800001 <__global_pointer$+0x7d9d91>
   1437c:	06e12e23          	sw	a4,124(sp)
   14380:	2ad0d0ef          	jal	ra,21e2c <__subtf3>
   14384:	015a05b3          	add	a1,s4,s5
   14388:	0005c583          	lbu	a1,0(a1)
   1438c:	05812e03          	lw	t3,88(sp)
   14390:	09c12e83          	lw	t4,156(sp)
   14394:	09012283          	lw	t0,144(sp)
   14398:	09412f83          	lw	t6,148(sp)
   1439c:	09812f03          	lw	t5,152(sp)
   143a0:	05c12423          	sw	t3,72(sp)
   143a4:	febc8fa3          	sb	a1,-1(s9)
   143a8:	fff00793          	li	a5,-1
   143ac:	000e8d93          	mv	s11,t4
   143b0:	06fe0c63          	beq	t3,a5,14428 <_vfprintf_r+0xbd8>
   143b4:	fffe0e13          	addi	t3,t3,-1
   143b8:	09010593          	addi	a1,sp,144
   143bc:	0a010513          	addi	a0,sp,160
   143c0:	07d12623          	sw	t4,108(sp)
   143c4:	07e12423          	sw	t5,104(sp)
   143c8:	07f12223          	sw	t6,100(sp)
   143cc:	06512023          	sw	t0,96(sp)
   143d0:	05c12e23          	sw	t3,92(sp)
   143d4:	0a512023          	sw	t0,160(sp)
   143d8:	04512c23          	sw	t0,88(sp)
   143dc:	0bf12223          	sw	t6,164(sp)
   143e0:	05f12a23          	sw	t6,84(sp)
   143e4:	0be12423          	sw	t5,168(sp)
   143e8:	05e12823          	sw	t5,80(sp)
   143ec:	0bd12623          	sw	t4,172(sp)
   143f0:	08012823          	sw	zero,144(sp)
   143f4:	08012a23          	sw	zero,148(sp)
   143f8:	08012c23          	sw	zero,152(sp)
   143fc:	08012e23          	sw	zero,156(sp)
   14400:	3680c0ef          	jal	ra,20768 <__eqtf2>
   14404:	05012683          	lw	a3,80(sp)
   14408:	05412603          	lw	a2,84(sp)
   1440c:	05812803          	lw	a6,88(sp)
   14410:	05c12e03          	lw	t3,92(sp)
   14414:	06012283          	lw	t0,96(sp)
   14418:	06412f83          	lw	t6,100(sp)
   1441c:	06812f03          	lw	t5,104(sp)
   14420:	06c12e83          	lw	t4,108(sp)
   14424:	ea0512e3          	bnez	a0,142c8 <_vfprintf_r+0xa78>
   14428:	3ffe0db7          	lui	s11,0x3ffe0
   1442c:	09010593          	addi	a1,sp,144
   14430:	0a010513          	addi	a0,sp,160
   14434:	0a512023          	sw	t0,160(sp)
   14438:	04512e23          	sw	t0,92(sp)
   1443c:	0bf12223          	sw	t6,164(sp)
   14440:	05f12c23          	sw	t6,88(sp)
   14444:	0be12423          	sw	t5,168(sp)
   14448:	05e12a23          	sw	t5,84(sp)
   1444c:	0bd12623          	sw	t4,172(sp)
   14450:	05d12823          	sw	t4,80(sp)
   14454:	08012823          	sw	zero,144(sp)
   14458:	08012a23          	sw	zero,148(sp)
   1445c:	08012c23          	sw	zero,152(sp)
   14460:	09b12e23          	sw	s11,156(sp)
   14464:	3d00c0ef          	jal	ra,20834 <__getf2>
   14468:	04a04663          	bgtz	a0,144b4 <_vfprintf_r+0xc64>
   1446c:	05c12283          	lw	t0,92(sp)
   14470:	05812f83          	lw	t6,88(sp)
   14474:	05412f03          	lw	t5,84(sp)
   14478:	05012e83          	lw	t4,80(sp)
   1447c:	09010593          	addi	a1,sp,144
   14480:	0a010513          	addi	a0,sp,160
   14484:	0a512023          	sw	t0,160(sp)
   14488:	0bf12223          	sw	t6,164(sp)
   1448c:	0be12423          	sw	t5,168(sp)
   14490:	0bd12623          	sw	t4,172(sp)
   14494:	08012823          	sw	zero,144(sp)
   14498:	08012a23          	sw	zero,148(sp)
   1449c:	08012c23          	sw	zero,152(sp)
   144a0:	09b12e23          	sw	s11,156(sp)
   144a4:	2c40c0ef          	jal	ra,20768 <__eqtf2>
   144a8:	1a051263          	bnez	a0,1464c <_vfprintf_r+0xdfc>
   144ac:	001afa93          	andi	s5,s5,1
   144b0:	180a8e63          	beqz	s5,1464c <_vfprintf_r+0xdfc>
   144b4:	00fa4603          	lbu	a2,15(s4)
   144b8:	0d912623          	sw	s9,204(sp)
   144bc:	03000593          	li	a1,48
   144c0:	0cc12683          	lw	a3,204(sp)
   144c4:	fff68713          	addi	a4,a3,-1
   144c8:	0ce12623          	sw	a4,204(sp)
   144cc:	fff6c703          	lbu	a4,-1(a3)
   144d0:	14c70a63          	beq	a4,a2,14624 <_vfprintf_r+0xdd4>
   144d4:	03900613          	li	a2,57
   144d8:	14c71a63          	bne	a4,a2,1462c <_vfprintf_r+0xddc>
   144dc:	00aa4703          	lbu	a4,10(s4)
   144e0:	fee68fa3          	sb	a4,-1(a3)
   144e4:	000c8a13          	mv	s4,s9
   144e8:	04700713          	li	a4,71
   144ec:	409a0a33          	sub	s4,s4,s1
   144f0:	0bc12d83          	lw	s11,188(sp)
   144f4:	2aec1663          	bne	s8,a4,147a0 <_vfprintf_r+0xf50>
   144f8:	ffd00713          	li	a4,-3
   144fc:	00edc463          	blt	s11,a4,14504 <_vfprintf_r+0xcb4>
   14500:	33bd5063          	ble	s11,s10,14820 <_vfprintf_r+0xfd0>
   14504:	ffeb0b13          	addi	s6,s6,-2
   14508:	fffd8a93          	addi	s5,s11,-1 # 3ffdffff <__global_pointer$+0x3ffb9d8f>
   1450c:	0b512e23          	sw	s5,188(sp)
   14510:	fdfb7693          	andi	a3,s6,-33
   14514:	04100593          	li	a1,65
   14518:	0ffb7713          	andi	a4,s6,255
   1451c:	00000613          	li	a2,0
   14520:	00b69863          	bne	a3,a1,14530 <_vfprintf_r+0xce0>
   14524:	00f70713          	addi	a4,a4,15
   14528:	0ff77713          	andi	a4,a4,255
   1452c:	00100613          	li	a2,1
   14530:	0ce10223          	sb	a4,196(sp)
   14534:	02b00793          	li	a5,43
   14538:	000ad863          	bgez	s5,14548 <_vfprintf_r+0xcf8>
   1453c:	00100a93          	li	s5,1
   14540:	41ba8ab3          	sub	s5,s5,s11
   14544:	02d00793          	li	a5,45
   14548:	0cf102a3          	sb	a5,197(sp)
   1454c:	00900793          	li	a5,9
   14550:	2957de63          	ble	s5,a5,147ec <_vfprintf_r+0xf9c>
   14554:	0d310c13          	addi	s8,sp,211
   14558:	000c0d93          	mv	s11,s8
   1455c:	06300d13          	li	s10,99
   14560:	00a00593          	li	a1,10
   14564:	000a8513          	mv	a0,s5
   14568:	dc9fe0ef          	jal	ra,13330 <__modsi3>
   1456c:	03050513          	addi	a0,a0,48
   14570:	feac0fa3          	sb	a0,-1(s8)
   14574:	00a00593          	li	a1,10
   14578:	000a8513          	mv	a0,s5
   1457c:	fffc0c93          	addi	s9,s8,-1
   14580:	d2dfe0ef          	jal	ra,132ac <__divsi3>
   14584:	255d4463          	blt	s10,s5,147cc <_vfprintf_r+0xf7c>
   14588:	03050513          	addi	a0,a0,48
   1458c:	ffec0c13          	addi	s8,s8,-2
   14590:	feac8fa3          	sb	a0,-1(s9)
   14594:	0c610793          	addi	a5,sp,198
   14598:	25bc6063          	bltu	s8,s11,147d8 <_vfprintf_r+0xf88>
   1459c:	0c410713          	addi	a4,sp,196
   145a0:	40e787b3          	sub	a5,a5,a4
   145a4:	02f12e23          	sw	a5,60(sp)
   145a8:	01478d33          	add	s10,a5,s4
   145ac:	00100793          	li	a5,1
   145b0:	0147c663          	blt	a5,s4,145bc <_vfprintf_r+0xd6c>
   145b4:	00147793          	andi	a5,s0,1
   145b8:	00078663          	beqz	a5,145c4 <_vfprintf_r+0xd74>
   145bc:	02012783          	lw	a5,32(sp)
   145c0:	00fd0d33          	add	s10,s10,a5
   145c4:	bff47413          	andi	s0,s0,-1025
   145c8:	10046793          	ori	a5,s0,256
   145cc:	02f12623          	sw	a5,44(sp)
   145d0:	00000c93          	li	s9,0
   145d4:	00000c13          	li	s8,0
   145d8:	00000d93          	li	s11,0
   145dc:	04412783          	lw	a5,68(sp)
   145e0:	00078663          	beqz	a5,145ec <_vfprintf_r+0xd9c>
   145e4:	02d00713          	li	a4,45
   145e8:	0ae10ba3          	sb	a4,183(sp)
   145ec:	02c12403          	lw	s0,44(sp)
   145f0:	00000713          	li	a4,0
   145f4:	e88ff06f          	j	13c7c <_vfprintf_r+0x42c>
   145f8:	00012623          	sw	zero,12(sp)
   145fc:	13c10493          	addi	s1,sp,316
   14600:	ba5ff06f          	j	141a4 <_vfprintf_r+0x954>
   14604:	00a12623          	sw	a0,12(sp)
   14608:	b9dff06f          	j	141a4 <_vfprintf_r+0x954>
   1460c:	00012623          	sw	zero,12(sp)
   14610:	00600d13          	li	s10,6
   14614:	b91ff06f          	j	141a4 <_vfprintf_r+0x954>
   14618:	00024a37          	lui	s4,0x24
   1461c:	4bca0a13          	addi	s4,s4,1212 # 244bc <zeroes.4514+0x20>
   14620:	ca1ff06f          	j	142c0 <_vfprintf_r+0xa70>
   14624:	feb68fa3          	sb	a1,-1(a3)
   14628:	e99ff06f          	j	144c0 <_vfprintf_r+0xc70>
   1462c:	00170713          	addi	a4,a4,1
   14630:	0ff77713          	andi	a4,a4,255
   14634:	eadff06f          	j	144e0 <_vfprintf_r+0xc90>
   14638:	001a0a13          	addi	s4,s4,1
   1463c:	feea0fa3          	sb	a4,-1(s4)
   14640:	414c87b3          	sub	a5,s9,s4
   14644:	fe07dae3          	bgez	a5,14638 <_vfprintf_r+0xde8>
   14648:	ea1ff06f          	j	144e8 <_vfprintf_r+0xc98>
   1464c:	04812783          	lw	a5,72(sp)
   14650:	000c8a13          	mv	s4,s9
   14654:	03000713          	li	a4,48
   14658:	00fc8cb3          	add	s9,s9,a5
   1465c:	fe5ff06f          	j	14640 <_vfprintf_r+0xdf0>
   14660:	04600793          	li	a5,70
   14664:	00fc0e63          	beq	s8,a5,14680 <_vfprintf_r+0xe30>
   14668:	04500793          	li	a5,69
   1466c:	001d0a93          	addi	s5,s10,1
   14670:	00fc0463          	beq	s8,a5,14678 <_vfprintf_r+0xe28>
   14674:	000d0a93          	mv	s5,s10
   14678:	00200613          	li	a2,2
   1467c:	00c0006f          	j	14688 <_vfprintf_r+0xe38>
   14680:	000d0a93          	mv	s5,s10
   14684:	00300613          	li	a2,3
   14688:	0c010793          	addi	a5,sp,192
   1468c:	0cc10813          	addi	a6,sp,204
   14690:	0bc10713          	addi	a4,sp,188
   14694:	000a8693          	mv	a3,s5
   14698:	0a010593          	addi	a1,sp,160
   1469c:	00098513          	mv	a0,s3
   146a0:	0bd12023          	sw	t4,160(sp)
   146a4:	05d12823          	sw	t4,80(sp)
   146a8:	0bc12223          	sw	t3,164(sp)
   146ac:	05c12423          	sw	t3,72(sp)
   146b0:	0bb12423          	sw	s11,168(sp)
   146b4:	0b412623          	sw	s4,172(sp)
   146b8:	7c4030ef          	jal	ra,17e7c <_ldtoa_r>
   146bc:	04700793          	li	a5,71
   146c0:	00050493          	mv	s1,a0
   146c4:	04812e03          	lw	t3,72(sp)
   146c8:	05012e83          	lw	t4,80(sp)
   146cc:	00fc1a63          	bne	s8,a5,146e0 <_vfprintf_r+0xe90>
   146d0:	00147793          	andi	a5,s0,1
   146d4:	00079663          	bnez	a5,146e0 <_vfprintf_r+0xe90>
   146d8:	0cc12a03          	lw	s4,204(sp)
   146dc:	e0dff06f          	j	144e8 <_vfprintf_r+0xc98>
   146e0:	04600793          	li	a5,70
   146e4:	01548cb3          	add	s9,s1,s5
   146e8:	06fc1263          	bne	s8,a5,1474c <_vfprintf_r+0xefc>
   146ec:	0004c703          	lbu	a4,0(s1)
   146f0:	03000793          	li	a5,48
   146f4:	04f71863          	bne	a4,a5,14744 <_vfprintf_r+0xef4>
   146f8:	09010593          	addi	a1,sp,144
   146fc:	0a010513          	addi	a0,sp,160
   14700:	0bd12023          	sw	t4,160(sp)
   14704:	05d12823          	sw	t4,80(sp)
   14708:	0bc12223          	sw	t3,164(sp)
   1470c:	05c12423          	sw	t3,72(sp)
   14710:	0bb12423          	sw	s11,168(sp)
   14714:	0b412623          	sw	s4,172(sp)
   14718:	08012823          	sw	zero,144(sp)
   1471c:	08012a23          	sw	zero,148(sp)
   14720:	08012c23          	sw	zero,152(sp)
   14724:	08012e23          	sw	zero,156(sp)
   14728:	0400c0ef          	jal	ra,20768 <__eqtf2>
   1472c:	04812e03          	lw	t3,72(sp)
   14730:	05012e83          	lw	t4,80(sp)
   14734:	00050863          	beqz	a0,14744 <_vfprintf_r+0xef4>
   14738:	00100793          	li	a5,1
   1473c:	41578ab3          	sub	s5,a5,s5
   14740:	0b512e23          	sw	s5,188(sp)
   14744:	0bc12783          	lw	a5,188(sp)
   14748:	00fc8cb3          	add	s9,s9,a5
   1474c:	09010593          	addi	a1,sp,144
   14750:	0a010513          	addi	a0,sp,160
   14754:	0bd12023          	sw	t4,160(sp)
   14758:	0bc12223          	sw	t3,164(sp)
   1475c:	0bb12423          	sw	s11,168(sp)
   14760:	0b412623          	sw	s4,172(sp)
   14764:	08012823          	sw	zero,144(sp)
   14768:	08012a23          	sw	zero,148(sp)
   1476c:	08012c23          	sw	zero,152(sp)
   14770:	08012e23          	sw	zero,156(sp)
   14774:	7f50b0ef          	jal	ra,20768 <__eqtf2>
   14778:	00051463          	bnez	a0,14780 <_vfprintf_r+0xf30>
   1477c:	0d912623          	sw	s9,204(sp)
   14780:	03000713          	li	a4,48
   14784:	0100006f          	j	14794 <_vfprintf_r+0xf44>
   14788:	00178693          	addi	a3,a5,1 # 40030001 <__global_pointer$+0x40009d91>
   1478c:	0cd12623          	sw	a3,204(sp)
   14790:	00e78023          	sb	a4,0(a5)
   14794:	0cc12783          	lw	a5,204(sp)
   14798:	ff97e8e3          	bltu	a5,s9,14788 <_vfprintf_r+0xf38>
   1479c:	f3dff06f          	j	146d8 <_vfprintf_r+0xe88>
   147a0:	04600713          	li	a4,70
   147a4:	d6ec12e3          	bne	s8,a4,14508 <_vfprintf_r+0xcb8>
   147a8:	00147713          	andi	a4,s0,1
   147ac:	01a76733          	or	a4,a4,s10
   147b0:	07b05063          	blez	s11,14810 <_vfprintf_r+0xfc0>
   147b4:	0c070063          	beqz	a4,14874 <_vfprintf_r+0x1024>
   147b8:	02012783          	lw	a5,32(sp)
   147bc:	00fd8733          	add	a4,s11,a5
   147c0:	00ed0d33          	add	s10,s10,a4
   147c4:	06600b13          	li	s6,102
   147c8:	0900006f          	j	14858 <_vfprintf_r+0x1008>
   147cc:	000c8c13          	mv	s8,s9
   147d0:	00050a93          	mv	s5,a0
   147d4:	d8dff06f          	j	14560 <_vfprintf_r+0xd10>
   147d8:	001c0c13          	addi	s8,s8,1
   147dc:	fffc4703          	lbu	a4,-1(s8)
   147e0:	00178793          	addi	a5,a5,1
   147e4:	fee78fa3          	sb	a4,-1(a5)
   147e8:	db1ff06f          	j	14598 <_vfprintf_r+0xd48>
   147ec:	0c610713          	addi	a4,sp,198
   147f0:	00061863          	bnez	a2,14800 <_vfprintf_r+0xfb0>
   147f4:	03000793          	li	a5,48
   147f8:	0cf10323          	sb	a5,198(sp)
   147fc:	0c710713          	addi	a4,sp,199
   14800:	030a8a93          	addi	s5,s5,48
   14804:	00170793          	addi	a5,a4,1
   14808:	01570023          	sb	s5,0(a4)
   1480c:	d91ff06f          	j	1459c <_vfprintf_r+0xd4c>
   14810:	06070663          	beqz	a4,1487c <_vfprintf_r+0x102c>
   14814:	02012783          	lw	a5,32(sp)
   14818:	00178713          	addi	a4,a5,1
   1481c:	fa5ff06f          	j	147c0 <_vfprintf_r+0xf70>
   14820:	034dc063          	blt	s11,s4,14840 <_vfprintf_r+0xff0>
   14824:	00147713          	andi	a4,s0,1
   14828:	000d8d13          	mv	s10,s11
   1482c:	00070663          	beqz	a4,14838 <_vfprintf_r+0xfe8>
   14830:	02012783          	lw	a5,32(sp)
   14834:	00fd8d33          	add	s10,s11,a5
   14838:	06700b13          	li	s6,103
   1483c:	01c0006f          	j	14858 <_vfprintf_r+0x1008>
   14840:	02012783          	lw	a5,32(sp)
   14844:	06700b13          	li	s6,103
   14848:	00fa0d33          	add	s10,s4,a5
   1484c:	01b04663          	bgtz	s11,14858 <_vfprintf_r+0x1008>
   14850:	41bd0333          	sub	t1,s10,s11
   14854:	00130d13          	addi	s10,t1,1
   14858:	40047c13          	andi	s8,s0,1024
   1485c:	00000c93          	li	s9,0
   14860:	d60c0ee3          	beqz	s8,145dc <_vfprintf_r+0xd8c>
   14864:	00000c13          	li	s8,0
   14868:	d7b05ae3          	blez	s11,145dc <_vfprintf_r+0xd8c>
   1486c:	0ff00693          	li	a3,255
   14870:	0380006f          	j	148a8 <_vfprintf_r+0x1058>
   14874:	000d8d13          	mv	s10,s11
   14878:	f4dff06f          	j	147c4 <_vfprintf_r+0xf74>
   1487c:	06600b13          	li	s6,102
   14880:	00100d13          	li	s10,1
   14884:	fd5ff06f          	j	14858 <_vfprintf_r+0x1008>
   14888:	03b75663          	ble	s11,a4,148b4 <_vfprintf_r+0x1064>
   1488c:	01012783          	lw	a5,16(sp)
   14890:	40ed8db3          	sub	s11,s11,a4
   14894:	0017c703          	lbu	a4,1(a5)
   14898:	02070863          	beqz	a4,148c8 <_vfprintf_r+0x1078>
   1489c:	00178793          	addi	a5,a5,1
   148a0:	001c0c13          	addi	s8,s8,1
   148a4:	00f12823          	sw	a5,16(sp)
   148a8:	01012783          	lw	a5,16(sp)
   148ac:	0007c703          	lbu	a4,0(a5)
   148b0:	fcd71ce3          	bne	a4,a3,14888 <_vfprintf_r+0x1038>
   148b4:	03012583          	lw	a1,48(sp)
   148b8:	019c0533          	add	a0,s8,s9
   148bc:	9cdfe0ef          	jal	ra,13288 <__mulsi3>
   148c0:	01a50d33          	add	s10,a0,s10
   148c4:	d19ff06f          	j	145dc <_vfprintf_r+0xd8c>
   148c8:	001c8c93          	addi	s9,s9,1
   148cc:	fddff06f          	j	148a8 <_vfprintf_r+0x1058>
   148d0:	004a8713          	addi	a4,s5,4
   148d4:	00e12c23          	sw	a4,24(sp)
   148d8:	02047713          	andi	a4,s0,32
   148dc:	000aa783          	lw	a5,0(s5)
   148e0:	02070063          	beqz	a4,14900 <_vfprintf_r+0x10b0>
   148e4:	02412703          	lw	a4,36(sp)
   148e8:	00e7a023          	sw	a4,0(a5)
   148ec:	41f75713          	srai	a4,a4,0x1f
   148f0:	00e7a223          	sw	a4,4(a5)
   148f4:	01812a83          	lw	s5,24(sp)
   148f8:	01c12483          	lw	s1,28(sp)
   148fc:	8ecff06f          	j	139e8 <_vfprintf_r+0x198>
   14900:	01047713          	andi	a4,s0,16
   14904:	00070863          	beqz	a4,14914 <_vfprintf_r+0x10c4>
   14908:	02412703          	lw	a4,36(sp)
   1490c:	00e7a023          	sw	a4,0(a5)
   14910:	fe5ff06f          	j	148f4 <_vfprintf_r+0x10a4>
   14914:	04047713          	andi	a4,s0,64
   14918:	00070863          	beqz	a4,14928 <_vfprintf_r+0x10d8>
   1491c:	02412703          	lw	a4,36(sp)
   14920:	00e79023          	sh	a4,0(a5)
   14924:	fd1ff06f          	j	148f4 <_vfprintf_r+0x10a4>
   14928:	20047413          	andi	s0,s0,512
   1492c:	fc040ee3          	beqz	s0,14908 <_vfprintf_r+0x10b8>
   14930:	02412703          	lw	a4,36(sp)
   14934:	00e78023          	sb	a4,0(a5)
   14938:	fbdff06f          	j	148f4 <_vfprintf_r+0x10a4>
   1493c:	01046413          	ori	s0,s0,16
   14940:	02047793          	andi	a5,s0,32
   14944:	02078663          	beqz	a5,14970 <_vfprintf_r+0x1120>
   14948:	007a8a93          	addi	s5,s5,7
   1494c:	ff8afa93          	andi	s5,s5,-8
   14950:	000aac83          	lw	s9,0(s5)
   14954:	004aad83          	lw	s11,4(s5)
   14958:	008a8793          	addi	a5,s5,8
   1495c:	00f12c23          	sw	a5,24(sp)
   14960:	bff47413          	andi	s0,s0,-1025
   14964:	00000793          	li	a5,0
   14968:	0a010ba3          	sb	zero,183(sp)
   1496c:	e0cff06f          	j	13f78 <_vfprintf_r+0x728>
   14970:	004a8793          	addi	a5,s5,4
   14974:	00f12c23          	sw	a5,24(sp)
   14978:	01047793          	andi	a5,s0,16
   1497c:	00078663          	beqz	a5,14988 <_vfprintf_r+0x1138>
   14980:	000aac83          	lw	s9,0(s5)
   14984:	0100006f          	j	14994 <_vfprintf_r+0x1144>
   14988:	04047793          	andi	a5,s0,64
   1498c:	00078863          	beqz	a5,1499c <_vfprintf_r+0x114c>
   14990:	000adc83          	lhu	s9,0(s5)
   14994:	00000d93          	li	s11,0
   14998:	fc9ff06f          	j	14960 <_vfprintf_r+0x1110>
   1499c:	20047793          	andi	a5,s0,512
   149a0:	fe0780e3          	beqz	a5,14980 <_vfprintf_r+0x1130>
   149a4:	000acc83          	lbu	s9,0(s5)
   149a8:	fedff06f          	j	14994 <_vfprintf_r+0x1144>
   149ac:	004a8793          	addi	a5,s5,4
   149b0:	00f12c23          	sw	a5,24(sp)
   149b4:	ffff87b7          	lui	a5,0xffff8
   149b8:	8307c793          	xori	a5,a5,-2000
   149bc:	0af11c23          	sh	a5,184(sp)
   149c0:	000247b7          	lui	a5,0x24
   149c4:	4bc78793          	addi	a5,a5,1212 # 244bc <zeroes.4514+0x20>
   149c8:	04f12023          	sw	a5,64(sp)
   149cc:	000aac83          	lw	s9,0(s5)
   149d0:	00000d93          	li	s11,0
   149d4:	00246413          	ori	s0,s0,2
   149d8:	00200793          	li	a5,2
   149dc:	07800b13          	li	s6,120
   149e0:	f89ff06f          	j	14968 <_vfprintf_r+0x1118>
   149e4:	004a8793          	addi	a5,s5,4
   149e8:	00f12c23          	sw	a5,24(sp)
   149ec:	0a010ba3          	sb	zero,183(sp)
   149f0:	fff00793          	li	a5,-1
   149f4:	000aa483          	lw	s1,0(s5)
   149f8:	02fd0463          	beq	s10,a5,14a20 <_vfprintf_r+0x11d0>
   149fc:	000d0613          	mv	a2,s10
   14a00:	00000593          	li	a1,0
   14a04:	00048513          	mv	a0,s1
   14a08:	231040ef          	jal	ra,19438 <memchr>
   14a0c:	00a12623          	sw	a0,12(sp)
   14a10:	e8050263          	beqz	a0,14094 <_vfprintf_r+0x844>
   14a14:	40950d33          	sub	s10,a0,s1
   14a18:	00012623          	sw	zero,12(sp)
   14a1c:	e78ff06f          	j	14094 <_vfprintf_r+0x844>
   14a20:	00048513          	mv	a0,s1
   14a24:	e09fe0ef          	jal	ra,1382c <strlen>
   14a28:	00050d13          	mv	s10,a0
   14a2c:	fedff06f          	j	14a18 <_vfprintf_r+0x11c8>
   14a30:	01046413          	ori	s0,s0,16
   14a34:	02047793          	andi	a5,s0,32
   14a38:	02078263          	beqz	a5,14a5c <_vfprintf_r+0x120c>
   14a3c:	007a8a93          	addi	s5,s5,7
   14a40:	ff8afa93          	andi	s5,s5,-8
   14a44:	000aac83          	lw	s9,0(s5)
   14a48:	004aad83          	lw	s11,4(s5)
   14a4c:	008a8793          	addi	a5,s5,8
   14a50:	00f12c23          	sw	a5,24(sp)
   14a54:	00100793          	li	a5,1
   14a58:	f11ff06f          	j	14968 <_vfprintf_r+0x1118>
   14a5c:	004a8793          	addi	a5,s5,4
   14a60:	00f12c23          	sw	a5,24(sp)
   14a64:	01047793          	andi	a5,s0,16
   14a68:	00078663          	beqz	a5,14a74 <_vfprintf_r+0x1224>
   14a6c:	000aac83          	lw	s9,0(s5)
   14a70:	0100006f          	j	14a80 <_vfprintf_r+0x1230>
   14a74:	04047793          	andi	a5,s0,64
   14a78:	00078863          	beqz	a5,14a88 <_vfprintf_r+0x1238>
   14a7c:	000adc83          	lhu	s9,0(s5)
   14a80:	00000d93          	li	s11,0
   14a84:	fd1ff06f          	j	14a54 <_vfprintf_r+0x1204>
   14a88:	20047793          	andi	a5,s0,512
   14a8c:	fe0780e3          	beqz	a5,14a6c <_vfprintf_r+0x121c>
   14a90:	000acc83          	lbu	s9,0(s5)
   14a94:	fedff06f          	j	14a80 <_vfprintf_r+0x1230>
   14a98:	000247b7          	lui	a5,0x24
   14a9c:	4d078793          	addi	a5,a5,1232 # 244d0 <zeroes.4514+0x34>
   14aa0:	04f12023          	sw	a5,64(sp)
   14aa4:	02047793          	andi	a5,s0,32
   14aa8:	04078a63          	beqz	a5,14afc <_vfprintf_r+0x12ac>
   14aac:	007a8a93          	addi	s5,s5,7
   14ab0:	ff8afa93          	andi	s5,s5,-8
   14ab4:	000aac83          	lw	s9,0(s5)
   14ab8:	004aad83          	lw	s11,4(s5)
   14abc:	008a8793          	addi	a5,s5,8
   14ac0:	00f12c23          	sw	a5,24(sp)
   14ac4:	00147793          	andi	a5,s0,1
   14ac8:	00078e63          	beqz	a5,14ae4 <_vfprintf_r+0x1294>
   14acc:	01bce7b3          	or	a5,s9,s11
   14ad0:	00078a63          	beqz	a5,14ae4 <_vfprintf_r+0x1294>
   14ad4:	03000793          	li	a5,48
   14ad8:	0af10c23          	sb	a5,184(sp)
   14adc:	0b610ca3          	sb	s6,185(sp)
   14ae0:	00246413          	ori	s0,s0,2
   14ae4:	bff47413          	andi	s0,s0,-1025
   14ae8:	00200793          	li	a5,2
   14aec:	e7dff06f          	j	14968 <_vfprintf_r+0x1118>
   14af0:	000247b7          	lui	a5,0x24
   14af4:	4bc78793          	addi	a5,a5,1212 # 244bc <zeroes.4514+0x20>
   14af8:	fa9ff06f          	j	14aa0 <_vfprintf_r+0x1250>
   14afc:	004a8793          	addi	a5,s5,4
   14b00:	00f12c23          	sw	a5,24(sp)
   14b04:	01047793          	andi	a5,s0,16
   14b08:	00078663          	beqz	a5,14b14 <_vfprintf_r+0x12c4>
   14b0c:	000aac83          	lw	s9,0(s5)
   14b10:	0100006f          	j	14b20 <_vfprintf_r+0x12d0>
   14b14:	04047793          	andi	a5,s0,64
   14b18:	00078863          	beqz	a5,14b28 <_vfprintf_r+0x12d8>
   14b1c:	000adc83          	lhu	s9,0(s5)
   14b20:	00000d93          	li	s11,0
   14b24:	fa1ff06f          	j	14ac4 <_vfprintf_r+0x1274>
   14b28:	20047793          	andi	a5,s0,512
   14b2c:	fe0780e3          	beqz	a5,14b0c <_vfprintf_r+0x12bc>
   14b30:	000acc83          	lbu	s9,0(s5)
   14b34:	fedff06f          	j	14b20 <_vfprintf_r+0x12d0>
   14b38:	00040713          	mv	a4,s0
   14b3c:	00100793          	li	a5,1
   14b40:	c44ff06f          	j	13f84 <_vfprintf_r+0x734>
   14b44:	00100713          	li	a4,1
   14b48:	4ae780e3          	beq	a5,a4,157e8 <_vfprintf_r+0x1f98>
   14b4c:	00200713          	li	a4,2
   14b50:	12e78a63          	beq	a5,a4,14c84 <_vfprintf_r+0x1434>
   14b54:	1a010793          	addi	a5,sp,416
   14b58:	01dd9693          	slli	a3,s11,0x1d
   14b5c:	007cf713          	andi	a4,s9,7
   14b60:	003cdc93          	srli	s9,s9,0x3
   14b64:	03070713          	addi	a4,a4,48
   14b68:	0196ecb3          	or	s9,a3,s9
   14b6c:	003ddd93          	srli	s11,s11,0x3
   14b70:	fee78fa3          	sb	a4,-1(a5)
   14b74:	01bce6b3          	or	a3,s9,s11
   14b78:	fff78493          	addi	s1,a5,-1
   14b7c:	02069e63          	bnez	a3,14bb8 <_vfprintf_r+0x1368>
   14b80:	00147693          	andi	a3,s0,1
   14b84:	00068a63          	beqz	a3,14b98 <_vfprintf_r+0x1348>
   14b88:	03000693          	li	a3,48
   14b8c:	00d70663          	beq	a4,a3,14b98 <_vfprintf_r+0x1348>
   14b90:	fed48fa3          	sb	a3,-1(s1)
   14b94:	ffe78493          	addi	s1,a5,-2
   14b98:	1a010793          	addi	a5,sp,416
   14b9c:	000d0713          	mv	a4,s10
   14ba0:	00012623          	sw	zero,12(sp)
   14ba4:	40978d33          	sub	s10,a5,s1
   14ba8:	00000c93          	li	s9,0
   14bac:	00000c13          	li	s8,0
   14bb0:	00000d93          	li	s11,0
   14bb4:	8c8ff06f          	j	13c7c <_vfprintf_r+0x42c>
   14bb8:	00048793          	mv	a5,s1
   14bbc:	f9dff06f          	j	14b58 <_vfprintf_r+0x1308>
   14bc0:	40047713          	andi	a4,s0,1024
   14bc4:	00000a13          	li	s4,0
   14bc8:	1a010793          	addi	a5,sp,416
   14bcc:	00e12623          	sw	a4,12(sp)
   14bd0:	0ff00c13          	li	s8,255
   14bd4:	00900a93          	li	s5,9
   14bd8:	00a00613          	li	a2,10
   14bdc:	00000693          	li	a3,0
   14be0:	000c8513          	mv	a0,s9
   14be4:	000d8593          	mv	a1,s11
   14be8:	fff78493          	addi	s1,a5,-1
   14bec:	02f12623          	sw	a5,44(sp)
   14bf0:	0140b0ef          	jal	ra,1fc04 <__umoddi3>
   14bf4:	02c12783          	lw	a5,44(sp)
   14bf8:	03050513          	addi	a0,a0,48
   14bfc:	001a0a13          	addi	s4,s4,1
   14c00:	fea78fa3          	sb	a0,-1(a5)
   14c04:	00c12783          	lw	a5,12(sp)
   14c08:	04078863          	beqz	a5,14c58 <_vfprintf_r+0x1408>
   14c0c:	01012783          	lw	a5,16(sp)
   14c10:	0007c783          	lbu	a5,0(a5)
   14c14:	04fa1263          	bne	s4,a5,14c58 <_vfprintf_r+0x1408>
   14c18:	058a0063          	beq	s4,s8,14c58 <_vfprintf_r+0x1408>
   14c1c:	000d9463          	bnez	s11,14c24 <_vfprintf_r+0x13d4>
   14c20:	039afc63          	bleu	s9,s5,14c58 <_vfprintf_r+0x1408>
   14c24:	03012783          	lw	a5,48(sp)
   14c28:	03812583          	lw	a1,56(sp)
   14c2c:	00000a13          	li	s4,0
   14c30:	40f484b3          	sub	s1,s1,a5
   14c34:	00078613          	mv	a2,a5
   14c38:	00048513          	mv	a0,s1
   14c3c:	27c060ef          	jal	ra,1aeb8 <strncpy>
   14c40:	01012783          	lw	a5,16(sp)
   14c44:	0017c783          	lbu	a5,1(a5)
   14c48:	00078863          	beqz	a5,14c58 <_vfprintf_r+0x1408>
   14c4c:	01012783          	lw	a5,16(sp)
   14c50:	00178793          	addi	a5,a5,1
   14c54:	00f12823          	sw	a5,16(sp)
   14c58:	00a00613          	li	a2,10
   14c5c:	00000693          	li	a3,0
   14c60:	000c8513          	mv	a0,s9
   14c64:	000d8593          	mv	a1,s11
   14c68:	1c90a0ef          	jal	ra,1f630 <__udivdi3>
   14c6c:	000d9463          	bnez	s11,14c74 <_vfprintf_r+0x1424>
   14c70:	f39af4e3          	bleu	s9,s5,14b98 <_vfprintf_r+0x1348>
   14c74:	00050c93          	mv	s9,a0
   14c78:	00058d93          	mv	s11,a1
   14c7c:	00048793          	mv	a5,s1
   14c80:	f59ff06f          	j	14bd8 <_vfprintf_r+0x1388>
   14c84:	1a010493          	addi	s1,sp,416
   14c88:	04012703          	lw	a4,64(sp)
   14c8c:	00fcf793          	andi	a5,s9,15
   14c90:	fff48493          	addi	s1,s1,-1
   14c94:	00f707b3          	add	a5,a4,a5
   14c98:	0007c783          	lbu	a5,0(a5)
   14c9c:	004cdc93          	srli	s9,s9,0x4
   14ca0:	00f48023          	sb	a5,0(s1)
   14ca4:	01cd9793          	slli	a5,s11,0x1c
   14ca8:	0197ecb3          	or	s9,a5,s9
   14cac:	004ddd93          	srli	s11,s11,0x4
   14cb0:	01bce7b3          	or	a5,s9,s11
   14cb4:	fc079ae3          	bnez	a5,14c88 <_vfprintf_r+0x1438>
   14cb8:	ee1ff06f          	j	14b98 <_vfprintf_r+0x1348>
   14cbc:	1a010493          	addi	s1,sp,416
   14cc0:	ec079ce3          	bnez	a5,14b98 <_vfprintf_r+0x1348>
   14cc4:	00177713          	andi	a4,a4,1
   14cc8:	ec0708e3          	beqz	a4,14b98 <_vfprintf_r+0x1348>
   14ccc:	03000793          	li	a5,48
   14cd0:	18f10fa3          	sb	a5,415(sp)
   14cd4:	3290006f          	j	157fc <_vfprintf_r+0x1fac>
   14cd8:	2e0b04e3          	beqz	s6,157c0 <_vfprintf_r+0x1f70>
   14cdc:	13610e23          	sb	s6,316(sp)
   14ce0:	0a010ba3          	sb	zero,183(sp)
   14ce4:	01512c23          	sw	s5,24(sp)
   14ce8:	f79fe06f          	j	13c60 <_vfprintf_r+0x410>
   14cec:	01058593          	addi	a1,a1,16
   14cf0:	01cba223          	sw	t3,4(s7)
   14cf4:	0cb12e23          	sw	a1,220(sp)
   14cf8:	0cc12c23          	sw	a2,216(sp)
   14cfc:	02cede63          	ble	a2,t4,14d38 <_vfprintf_r+0x14e8>
   14d00:	0d410613          	addi	a2,sp,212
   14d04:	00090593          	mv	a1,s2
   14d08:	00098513          	mv	a0,s3
   14d0c:	04e12823          	sw	a4,80(sp)
   14d10:	04d12423          	sw	a3,72(sp)
   14d14:	134080ef          	jal	ra,1ce48 <__sprint_r>
   14d18:	240512e3          	bnez	a0,1575c <_vfprintf_r+0x1f0c>
   14d1c:	05012703          	lw	a4,80(sp)
   14d20:	04812683          	lw	a3,72(sp)
   14d24:	000247b7          	lui	a5,0x24
   14d28:	0fc10513          	addi	a0,sp,252
   14d2c:	00700e93          	li	t4,7
   14d30:	48c78813          	addi	a6,a5,1164 # 2448c <blanks.4513>
   14d34:	01000e13          	li	t3,16
   14d38:	ff068693          	addi	a3,a3,-16
   14d3c:	00050b93          	mv	s7,a0
   14d40:	f9dfe06f          	j	13cdc <_vfprintf_r+0x48c>
   14d44:	01060613          	addi	a2,a2,16
   14d48:	010ba223          	sw	a6,4(s7)
   14d4c:	0cc12e23          	sw	a2,220(sp)
   14d50:	0cd12c23          	sw	a3,216(sp)
   14d54:	02de5663          	ble	a3,t3,14d80 <_vfprintf_r+0x1530>
   14d58:	0d410613          	addi	a2,sp,212
   14d5c:	00090593          	mv	a1,s2
   14d60:	00098513          	mv	a0,s3
   14d64:	04e12223          	sw	a4,68(sp)
   14d68:	0e0080ef          	jal	ra,1ce48 <__sprint_r>
   14d6c:	1e0518e3          	bnez	a0,1575c <_vfprintf_r+0x1f0c>
   14d70:	04412703          	lw	a4,68(sp)
   14d74:	0fc10593          	addi	a1,sp,252
   14d78:	00700e13          	li	t3,7
   14d7c:	01000813          	li	a6,16
   14d80:	ff0a8a93          	addi	s5,s5,-16
   14d84:	00058b93          	mv	s7,a1
   14d88:	890ff06f          	j	13e18 <_vfprintf_r+0x5c8>
   14d8c:	01070713          	addi	a4,a4,16
   14d90:	010ba223          	sw	a6,4(s7)
   14d94:	0ce12e23          	sw	a4,220(sp)
   14d98:	0cd12c23          	sw	a3,216(sp)
   14d9c:	02de5263          	ble	a3,t3,14dc0 <_vfprintf_r+0x1570>
   14da0:	0d410613          	addi	a2,sp,212
   14da4:	00090593          	mv	a1,s2
   14da8:	00098513          	mv	a0,s3
   14dac:	09c080ef          	jal	ra,1ce48 <__sprint_r>
   14db0:	1a0516e3          	bnez	a0,1575c <_vfprintf_r+0x1f0c>
   14db4:	0fc10613          	addi	a2,sp,252
   14db8:	00700e13          	li	t3,7
   14dbc:	01000813          	li	a6,16
   14dc0:	ff0a8a93          	addi	s5,s5,-16
   14dc4:	00060b93          	mv	s7,a2
   14dc8:	8bcff06f          	j	13e84 <_vfprintf_r+0x634>
   14dcc:	06500693          	li	a3,101
   14dd0:	7366d463          	ble	s6,a3,154f8 <_vfprintf_r+0x1ca8>
   14dd4:	0e012683          	lw	a3,224(sp)
   14dd8:	09010593          	addi	a1,sp,144
   14ddc:	0a010513          	addi	a0,sp,160
   14de0:	0ad12023          	sw	a3,160(sp)
   14de4:	0e412683          	lw	a3,228(sp)
   14de8:	04e12223          	sw	a4,68(sp)
   14dec:	08012823          	sw	zero,144(sp)
   14df0:	0ad12223          	sw	a3,164(sp)
   14df4:	0e812683          	lw	a3,232(sp)
   14df8:	08012a23          	sw	zero,148(sp)
   14dfc:	08012c23          	sw	zero,152(sp)
   14e00:	0ad12423          	sw	a3,168(sp)
   14e04:	0ec12683          	lw	a3,236(sp)
   14e08:	08012e23          	sw	zero,156(sp)
   14e0c:	0ad12623          	sw	a3,172(sp)
   14e10:	1590b0ef          	jal	ra,20768 <__eqtf2>
   14e14:	04412703          	lw	a4,68(sp)
   14e18:	12051a63          	bnez	a0,14f4c <_vfprintf_r+0x16fc>
   14e1c:	000247b7          	lui	a5,0x24
   14e20:	4e478793          	addi	a5,a5,1252 # 244e4 <zeroes.4514+0x48>
   14e24:	00fba023          	sw	a5,0(s7)
   14e28:	00100793          	li	a5,1
   14e2c:	00fba223          	sw	a5,4(s7)
   14e30:	0d812783          	lw	a5,216(sp)
   14e34:	00170713          	addi	a4,a4,1
   14e38:	0ce12e23          	sw	a4,220(sp)
   14e3c:	00178793          	addi	a5,a5,1
   14e40:	0cf12c23          	sw	a5,216(sp)
   14e44:	00700713          	li	a4,7
   14e48:	008b8b93          	addi	s7,s7,8
   14e4c:	00f75e63          	ble	a5,a4,14e68 <_vfprintf_r+0x1618>
   14e50:	0d410613          	addi	a2,sp,212
   14e54:	00090593          	mv	a1,s2
   14e58:	00098513          	mv	a0,s3
   14e5c:	7ed070ef          	jal	ra,1ce48 <__sprint_r>
   14e60:	0e051ee3          	bnez	a0,1575c <_vfprintf_r+0x1f0c>
   14e64:	0fc10b93          	addi	s7,sp,252
   14e68:	0bc12783          	lw	a5,188(sp)
   14e6c:	0147c663          	blt	a5,s4,14e78 <_vfprintf_r+0x1628>
   14e70:	00147793          	andi	a5,s0,1
   14e74:	22078063          	beqz	a5,15094 <_vfprintf_r+0x1844>
   14e78:	03412783          	lw	a5,52(sp)
   14e7c:	02012703          	lw	a4,32(sp)
   14e80:	008b8b93          	addi	s7,s7,8
   14e84:	fefbac23          	sw	a5,-8(s7)
   14e88:	02012783          	lw	a5,32(sp)
   14e8c:	fefbae23          	sw	a5,-4(s7)
   14e90:	0dc12783          	lw	a5,220(sp)
   14e94:	00e787b3          	add	a5,a5,a4
   14e98:	0cf12e23          	sw	a5,220(sp)
   14e9c:	0d812783          	lw	a5,216(sp)
   14ea0:	00700713          	li	a4,7
   14ea4:	00178793          	addi	a5,a5,1
   14ea8:	0cf12c23          	sw	a5,216(sp)
   14eac:	00f75e63          	ble	a5,a4,14ec8 <_vfprintf_r+0x1678>
   14eb0:	0d410613          	addi	a2,sp,212
   14eb4:	00090593          	mv	a1,s2
   14eb8:	00098513          	mv	a0,s3
   14ebc:	78d070ef          	jal	ra,1ce48 <__sprint_r>
   14ec0:	08051ee3          	bnez	a0,1575c <_vfprintf_r+0x1f0c>
   14ec4:	0fc10b93          	addi	s7,sp,252
   14ec8:	fffa0493          	addi	s1,s4,-1
   14ecc:	1c905463          	blez	s1,15094 <_vfprintf_r+0x1844>
   14ed0:	01000a93          	li	s5,16
   14ed4:	00700b13          	li	s6,7
   14ed8:	01412603          	lw	a2,20(sp)
   14edc:	0d812783          	lw	a5,216(sp)
   14ee0:	0dc12703          	lw	a4,220(sp)
   14ee4:	00cba023          	sw	a2,0(s7)
   14ee8:	00178793          	addi	a5,a5,1
   14eec:	008b8693          	addi	a3,s7,8
   14ef0:	029ac263          	blt	s5,s1,14f14 <_vfprintf_r+0x16c4>
   14ef4:	009ba223          	sw	s1,4(s7)
   14ef8:	00e484b3          	add	s1,s1,a4
   14efc:	0c912e23          	sw	s1,220(sp)
   14f00:	0cf12c23          	sw	a5,216(sp)
   14f04:	00700713          	li	a4,7
   14f08:	00068b93          	mv	s7,a3
   14f0c:	18f75463          	ble	a5,a4,15094 <_vfprintf_r+0x1844>
   14f10:	800ff06f          	j	13f10 <_vfprintf_r+0x6c0>
   14f14:	01070713          	addi	a4,a4,16
   14f18:	015ba223          	sw	s5,4(s7)
   14f1c:	0ce12e23          	sw	a4,220(sp)
   14f20:	0cf12c23          	sw	a5,216(sp)
   14f24:	00fb5e63          	ble	a5,s6,14f40 <_vfprintf_r+0x16f0>
   14f28:	0d410613          	addi	a2,sp,212
   14f2c:	00090593          	mv	a1,s2
   14f30:	00098513          	mv	a0,s3
   14f34:	715070ef          	jal	ra,1ce48 <__sprint_r>
   14f38:	020512e3          	bnez	a0,1575c <_vfprintf_r+0x1f0c>
   14f3c:	0fc10693          	addi	a3,sp,252
   14f40:	ff048493          	addi	s1,s1,-16
   14f44:	00068b93          	mv	s7,a3
   14f48:	f91ff06f          	j	14ed8 <_vfprintf_r+0x1688>
   14f4c:	0bc12683          	lw	a3,188(sp)
   14f50:	1cd04863          	bgtz	a3,15120 <_vfprintf_r+0x18d0>
   14f54:	000247b7          	lui	a5,0x24
   14f58:	4e478793          	addi	a5,a5,1252 # 244e4 <zeroes.4514+0x48>
   14f5c:	00fba023          	sw	a5,0(s7)
   14f60:	00100793          	li	a5,1
   14f64:	00fba223          	sw	a5,4(s7)
   14f68:	0d812783          	lw	a5,216(sp)
   14f6c:	00170713          	addi	a4,a4,1
   14f70:	0ce12e23          	sw	a4,220(sp)
   14f74:	00178793          	addi	a5,a5,1
   14f78:	0cf12c23          	sw	a5,216(sp)
   14f7c:	00700713          	li	a4,7
   14f80:	008b8b93          	addi	s7,s7,8
   14f84:	00f75e63          	ble	a5,a4,14fa0 <_vfprintf_r+0x1750>
   14f88:	0d410613          	addi	a2,sp,212
   14f8c:	00090593          	mv	a1,s2
   14f90:	00098513          	mv	a0,s3
   14f94:	6b5070ef          	jal	ra,1ce48 <__sprint_r>
   14f98:	7c051263          	bnez	a0,1575c <_vfprintf_r+0x1f0c>
   14f9c:	0fc10b93          	addi	s7,sp,252
   14fa0:	0bc12783          	lw	a5,188(sp)
   14fa4:	00147693          	andi	a3,s0,1
   14fa8:	0dc12703          	lw	a4,220(sp)
   14fac:	00fa67b3          	or	a5,s4,a5
   14fb0:	00d7e7b3          	or	a5,a5,a3
   14fb4:	0e078063          	beqz	a5,15094 <_vfprintf_r+0x1844>
   14fb8:	03412783          	lw	a5,52(sp)
   14fbc:	008b8893          	addi	a7,s7,8
   14fc0:	00fba023          	sw	a5,0(s7)
   14fc4:	02012783          	lw	a5,32(sp)
   14fc8:	00fba223          	sw	a5,4(s7)
   14fcc:	00e787b3          	add	a5,a5,a4
   14fd0:	0cf12e23          	sw	a5,220(sp)
   14fd4:	0d812783          	lw	a5,216(sp)
   14fd8:	00700713          	li	a4,7
   14fdc:	00178793          	addi	a5,a5,1
   14fe0:	0cf12c23          	sw	a5,216(sp)
   14fe4:	00f75e63          	ble	a5,a4,15000 <_vfprintf_r+0x17b0>
   14fe8:	0d410613          	addi	a2,sp,212
   14fec:	00090593          	mv	a1,s2
   14ff0:	00098513          	mv	a0,s3
   14ff4:	655070ef          	jal	ra,1ce48 <__sprint_r>
   14ff8:	76051263          	bnez	a0,1575c <_vfprintf_r+0x1f0c>
   14ffc:	0fc10893          	addi	a7,sp,252
   15000:	0bc12a83          	lw	s5,188(sp)
   15004:	060ad063          	bgez	s5,15064 <_vfprintf_r+0x1814>
   15008:	41500ab3          	neg	s5,s5
   1500c:	00088713          	mv	a4,a7
   15010:	01000b13          	li	s6,16
   15014:	00700c13          	li	s8,7
   15018:	01412603          	lw	a2,20(sp)
   1501c:	0d812783          	lw	a5,216(sp)
   15020:	0dc12683          	lw	a3,220(sp)
   15024:	00c72023          	sw	a2,0(a4)
   15028:	00178793          	addi	a5,a5,1
   1502c:	00888893          	addi	a7,a7,8
   15030:	0b5b4c63          	blt	s6,s5,150e8 <_vfprintf_r+0x1898>
   15034:	01572223          	sw	s5,4(a4)
   15038:	00da8ab3          	add	s5,s5,a3
   1503c:	0d512e23          	sw	s5,220(sp)
   15040:	0cf12c23          	sw	a5,216(sp)
   15044:	00700713          	li	a4,7
   15048:	00f75e63          	ble	a5,a4,15064 <_vfprintf_r+0x1814>
   1504c:	0d410613          	addi	a2,sp,212
   15050:	00090593          	mv	a1,s2
   15054:	00098513          	mv	a0,s3
   15058:	5f1070ef          	jal	ra,1ce48 <__sprint_r>
   1505c:	70051063          	bnez	a0,1575c <_vfprintf_r+0x1f0c>
   15060:	0fc10893          	addi	a7,sp,252
   15064:	0dc12783          	lw	a5,220(sp)
   15068:	0098a023          	sw	s1,0(a7)
   1506c:	0148a223          	sw	s4,4(a7)
   15070:	014787b3          	add	a5,a5,s4
   15074:	0cf12e23          	sw	a5,220(sp)
   15078:	0d812783          	lw	a5,216(sp)
   1507c:	00700713          	li	a4,7
   15080:	00888b93          	addi	s7,a7,8
   15084:	00178793          	addi	a5,a5,1
   15088:	0cf12c23          	sw	a5,216(sp)
   1508c:	00f75463          	ble	a5,a4,15094 <_vfprintf_r+0x1844>
   15090:	e81fe06f          	j	13f10 <_vfprintf_r+0x6c0>
   15094:	00447413          	andi	s0,s0,4
   15098:	66041263          	bnez	s0,156fc <_vfprintf_r+0x1eac>
   1509c:	02812b03          	lw	s6,40(sp)
   150a0:	02c12783          	lw	a5,44(sp)
   150a4:	00fb5463          	ble	a5,s6,150ac <_vfprintf_r+0x185c>
   150a8:	00078b13          	mv	s6,a5
   150ac:	02412783          	lw	a5,36(sp)
   150b0:	016787b3          	add	a5,a5,s6
   150b4:	02f12223          	sw	a5,36(sp)
   150b8:	0dc12783          	lw	a5,220(sp)
   150bc:	00078c63          	beqz	a5,150d4 <_vfprintf_r+0x1884>
   150c0:	0d410613          	addi	a2,sp,212
   150c4:	00090593          	mv	a1,s2
   150c8:	00098513          	mv	a0,s3
   150cc:	57d070ef          	jal	ra,1ce48 <__sprint_r>
   150d0:	68051663          	bnez	a0,1575c <_vfprintf_r+0x1f0c>
   150d4:	00c12783          	lw	a5,12(sp)
   150d8:	0c012c23          	sw	zero,216(sp)
   150dc:	6c079a63          	bnez	a5,157b0 <_vfprintf_r+0x1f60>
   150e0:	0fc10b93          	addi	s7,sp,252
   150e4:	811ff06f          	j	148f4 <_vfprintf_r+0x10a4>
   150e8:	01068693          	addi	a3,a3,16
   150ec:	01672223          	sw	s6,4(a4)
   150f0:	0cd12e23          	sw	a3,220(sp)
   150f4:	0cf12c23          	sw	a5,216(sp)
   150f8:	00fc5e63          	ble	a5,s8,15114 <_vfprintf_r+0x18c4>
   150fc:	0d410613          	addi	a2,sp,212
   15100:	00090593          	mv	a1,s2
   15104:	00098513          	mv	a0,s3
   15108:	541070ef          	jal	ra,1ce48 <__sprint_r>
   1510c:	64051863          	bnez	a0,1575c <_vfprintf_r+0x1f0c>
   15110:	0fc10893          	addi	a7,sp,252
   15114:	ff0a8a93          	addi	s5,s5,-16
   15118:	00088713          	mv	a4,a7
   1511c:	efdff06f          	j	15018 <_vfprintf_r+0x17c8>
   15120:	000d8a93          	mv	s5,s11
   15124:	01ba5463          	ble	s11,s4,1512c <_vfprintf_r+0x18dc>
   15128:	000a0a93          	mv	s5,s4
   1512c:	05505263          	blez	s5,15170 <_vfprintf_r+0x1920>
   15130:	00ea8733          	add	a4,s5,a4
   15134:	0ce12e23          	sw	a4,220(sp)
   15138:	0d812703          	lw	a4,216(sp)
   1513c:	009ba023          	sw	s1,0(s7)
   15140:	015ba223          	sw	s5,4(s7)
   15144:	00170713          	addi	a4,a4,1
   15148:	0ce12c23          	sw	a4,216(sp)
   1514c:	00700693          	li	a3,7
   15150:	008b8b93          	addi	s7,s7,8
   15154:	00e6de63          	ble	a4,a3,15170 <_vfprintf_r+0x1920>
   15158:	0d410613          	addi	a2,sp,212
   1515c:	00090593          	mv	a1,s2
   15160:	00098513          	mv	a0,s3
   15164:	4e5070ef          	jal	ra,1ce48 <__sprint_r>
   15168:	5e051a63          	bnez	a0,1575c <_vfprintf_r+0x1f0c>
   1516c:	0fc10b93          	addi	s7,sp,252
   15170:	000ad463          	bgez	s5,15178 <_vfprintf_r+0x1928>
   15174:	00000a93          	li	s5,0
   15178:	415d8ab3          	sub	s5,s11,s5
   1517c:	05505e63          	blez	s5,151d8 <_vfprintf_r+0x1988>
   15180:	01000b13          	li	s6,16
   15184:	00700d13          	li	s10,7
   15188:	01412783          	lw	a5,20(sp)
   1518c:	0d812703          	lw	a4,216(sp)
   15190:	0dc12683          	lw	a3,220(sp)
   15194:	00fba023          	sw	a5,0(s7)
   15198:	00170713          	addi	a4,a4,1
   1519c:	008b8613          	addi	a2,s7,8
   151a0:	195b4c63          	blt	s6,s5,15338 <_vfprintf_r+0x1ae8>
   151a4:	015ba223          	sw	s5,4(s7)
   151a8:	00da8ab3          	add	s5,s5,a3
   151ac:	0d512e23          	sw	s5,220(sp)
   151b0:	0ce12c23          	sw	a4,216(sp)
   151b4:	00700693          	li	a3,7
   151b8:	00060b93          	mv	s7,a2
   151bc:	00e6de63          	ble	a4,a3,151d8 <_vfprintf_r+0x1988>
   151c0:	0d410613          	addi	a2,sp,212
   151c4:	00090593          	mv	a1,s2
   151c8:	00098513          	mv	a0,s3
   151cc:	47d070ef          	jal	ra,1ce48 <__sprint_r>
   151d0:	58051663          	bnez	a0,1575c <_vfprintf_r+0x1f0c>
   151d4:	0fc10b93          	addi	s7,sp,252
   151d8:	40047793          	andi	a5,s0,1024
   151dc:	01b48ab3          	add	s5,s1,s11
   151e0:	02078063          	beqz	a5,15200 <_vfprintf_r+0x19b0>
   151e4:	00700b13          	li	s6,7
   151e8:	01448d33          	add	s10,s1,s4
   151ec:	180c1263          	bnez	s8,15370 <_vfprintf_r+0x1b20>
   151f0:	180c9263          	bnez	s9,15374 <_vfprintf_r+0x1b24>
   151f4:	014487b3          	add	a5,s1,s4
   151f8:	0157f463          	bleu	s5,a5,15200 <_vfprintf_r+0x19b0>
   151fc:	00078a93          	mv	s5,a5
   15200:	0bc12783          	lw	a5,188(sp)
   15204:	0147c663          	blt	a5,s4,15210 <_vfprintf_r+0x19c0>
   15208:	00147793          	andi	a5,s0,1
   1520c:	04078a63          	beqz	a5,15260 <_vfprintf_r+0x1a10>
   15210:	03412783          	lw	a5,52(sp)
   15214:	02012703          	lw	a4,32(sp)
   15218:	008b8b93          	addi	s7,s7,8
   1521c:	fefbac23          	sw	a5,-8(s7)
   15220:	02012783          	lw	a5,32(sp)
   15224:	fefbae23          	sw	a5,-4(s7)
   15228:	0dc12783          	lw	a5,220(sp)
   1522c:	00e787b3          	add	a5,a5,a4
   15230:	0cf12e23          	sw	a5,220(sp)
   15234:	0d812783          	lw	a5,216(sp)
   15238:	00700713          	li	a4,7
   1523c:	00178793          	addi	a5,a5,1
   15240:	0cf12c23          	sw	a5,216(sp)
   15244:	00f75e63          	ble	a5,a4,15260 <_vfprintf_r+0x1a10>
   15248:	0d410613          	addi	a2,sp,212
   1524c:	00090593          	mv	a1,s2
   15250:	00098513          	mv	a0,s3
   15254:	3f5070ef          	jal	ra,1ce48 <__sprint_r>
   15258:	50051263          	bnez	a0,1575c <_vfprintf_r+0x1f0c>
   1525c:	0fc10b93          	addi	s7,sp,252
   15260:	014484b3          	add	s1,s1,s4
   15264:	415487b3          	sub	a5,s1,s5
   15268:	0bc12483          	lw	s1,188(sp)
   1526c:	409a04b3          	sub	s1,s4,s1
   15270:	0097d463          	ble	s1,a5,15278 <_vfprintf_r+0x1a28>
   15274:	00078493          	mv	s1,a5
   15278:	04905463          	blez	s1,152c0 <_vfprintf_r+0x1a70>
   1527c:	0dc12783          	lw	a5,220(sp)
   15280:	015ba023          	sw	s5,0(s7)
   15284:	009ba223          	sw	s1,4(s7)
   15288:	00f487b3          	add	a5,s1,a5
   1528c:	0cf12e23          	sw	a5,220(sp)
   15290:	0d812783          	lw	a5,216(sp)
   15294:	00700713          	li	a4,7
   15298:	008b8b93          	addi	s7,s7,8
   1529c:	00178793          	addi	a5,a5,1
   152a0:	0cf12c23          	sw	a5,216(sp)
   152a4:	00f75e63          	ble	a5,a4,152c0 <_vfprintf_r+0x1a70>
   152a8:	0d410613          	addi	a2,sp,212
   152ac:	00090593          	mv	a1,s2
   152b0:	00098513          	mv	a0,s3
   152b4:	395070ef          	jal	ra,1ce48 <__sprint_r>
   152b8:	4a051263          	bnez	a0,1575c <_vfprintf_r+0x1f0c>
   152bc:	0fc10b93          	addi	s7,sp,252
   152c0:	00048793          	mv	a5,s1
   152c4:	0004d463          	bgez	s1,152cc <_vfprintf_r+0x1a7c>
   152c8:	00000793          	li	a5,0
   152cc:	0bc12483          	lw	s1,188(sp)
   152d0:	409a04b3          	sub	s1,s4,s1
   152d4:	40f484b3          	sub	s1,s1,a5
   152d8:	da905ee3          	blez	s1,15094 <_vfprintf_r+0x1844>
   152dc:	01000a93          	li	s5,16
   152e0:	00700b13          	li	s6,7
   152e4:	01412603          	lw	a2,20(sp)
   152e8:	0d812783          	lw	a5,216(sp)
   152ec:	0dc12703          	lw	a4,220(sp)
   152f0:	00cba023          	sw	a2,0(s7)
   152f4:	00178793          	addi	a5,a5,1
   152f8:	008b8693          	addi	a3,s7,8
   152fc:	be9adce3          	ble	s1,s5,14ef4 <_vfprintf_r+0x16a4>
   15300:	01070713          	addi	a4,a4,16
   15304:	015ba223          	sw	s5,4(s7)
   15308:	0ce12e23          	sw	a4,220(sp)
   1530c:	0cf12c23          	sw	a5,216(sp)
   15310:	00fb5e63          	ble	a5,s6,1532c <_vfprintf_r+0x1adc>
   15314:	0d410613          	addi	a2,sp,212
   15318:	00090593          	mv	a1,s2
   1531c:	00098513          	mv	a0,s3
   15320:	329070ef          	jal	ra,1ce48 <__sprint_r>
   15324:	42051c63          	bnez	a0,1575c <_vfprintf_r+0x1f0c>
   15328:	0fc10693          	addi	a3,sp,252
   1532c:	ff048493          	addi	s1,s1,-16
   15330:	00068b93          	mv	s7,a3
   15334:	fb1ff06f          	j	152e4 <_vfprintf_r+0x1a94>
   15338:	01068693          	addi	a3,a3,16
   1533c:	016ba223          	sw	s6,4(s7)
   15340:	0cd12e23          	sw	a3,220(sp)
   15344:	0ce12c23          	sw	a4,216(sp)
   15348:	00ed5e63          	ble	a4,s10,15364 <_vfprintf_r+0x1b14>
   1534c:	0d410613          	addi	a2,sp,212
   15350:	00090593          	mv	a1,s2
   15354:	00098513          	mv	a0,s3
   15358:	2f1070ef          	jal	ra,1ce48 <__sprint_r>
   1535c:	40051063          	bnez	a0,1575c <_vfprintf_r+0x1f0c>
   15360:	0fc10613          	addi	a2,sp,252
   15364:	ff0a8a93          	addi	s5,s5,-16
   15368:	00060b93          	mv	s7,a2
   1536c:	e1dff06f          	j	15188 <_vfprintf_r+0x1938>
   15370:	0e0c8263          	beqz	s9,15454 <_vfprintf_r+0x1c04>
   15374:	fffc8c93          	addi	s9,s9,-1
   15378:	03812783          	lw	a5,56(sp)
   1537c:	03012703          	lw	a4,48(sp)
   15380:	008b8b93          	addi	s7,s7,8
   15384:	fefbac23          	sw	a5,-8(s7)
   15388:	03012783          	lw	a5,48(sp)
   1538c:	fefbae23          	sw	a5,-4(s7)
   15390:	0dc12783          	lw	a5,220(sp)
   15394:	00e787b3          	add	a5,a5,a4
   15398:	0cf12e23          	sw	a5,220(sp)
   1539c:	0d812783          	lw	a5,216(sp)
   153a0:	00178793          	addi	a5,a5,1
   153a4:	0cf12c23          	sw	a5,216(sp)
   153a8:	00fb5e63          	ble	a5,s6,153c4 <_vfprintf_r+0x1b74>
   153ac:	0d410613          	addi	a2,sp,212
   153b0:	00090593          	mv	a1,s2
   153b4:	00098513          	mv	a0,s3
   153b8:	291070ef          	jal	ra,1ce48 <__sprint_r>
   153bc:	3a051063          	bnez	a0,1575c <_vfprintf_r+0x1f0c>
   153c0:	0fc10b93          	addi	s7,sp,252
   153c4:	01012783          	lw	a5,16(sp)
   153c8:	415d0733          	sub	a4,s10,s5
   153cc:	0007c783          	lbu	a5,0(a5)
   153d0:	00f75463          	ble	a5,a4,153d8 <_vfprintf_r+0x1b88>
   153d4:	00070793          	mv	a5,a4
   153d8:	04f05663          	blez	a5,15424 <_vfprintf_r+0x1bd4>
   153dc:	0dc12703          	lw	a4,220(sp)
   153e0:	015ba023          	sw	s5,0(s7)
   153e4:	00fba223          	sw	a5,4(s7)
   153e8:	00e78733          	add	a4,a5,a4
   153ec:	0ce12e23          	sw	a4,220(sp)
   153f0:	0d812703          	lw	a4,216(sp)
   153f4:	008b8b93          	addi	s7,s7,8
   153f8:	00170713          	addi	a4,a4,1
   153fc:	0ce12c23          	sw	a4,216(sp)
   15400:	02eb5263          	ble	a4,s6,15424 <_vfprintf_r+0x1bd4>
   15404:	0d410613          	addi	a2,sp,212
   15408:	00090593          	mv	a1,s2
   1540c:	00098513          	mv	a0,s3
   15410:	04f12223          	sw	a5,68(sp)
   15414:	235070ef          	jal	ra,1ce48 <__sprint_r>
   15418:	34051263          	bnez	a0,1575c <_vfprintf_r+0x1f0c>
   1541c:	04412783          	lw	a5,68(sp)
   15420:	0fc10b93          	addi	s7,sp,252
   15424:	00078713          	mv	a4,a5
   15428:	0007d463          	bgez	a5,15430 <_vfprintf_r+0x1be0>
   1542c:	00000713          	li	a4,0
   15430:	01012783          	lw	a5,16(sp)
   15434:	01000813          	li	a6,16
   15438:	0007c783          	lbu	a5,0(a5)
   1543c:	40e787b3          	sub	a5,a5,a4
   15440:	06f04463          	bgtz	a5,154a8 <_vfprintf_r+0x1c58>
   15444:	01012783          	lw	a5,16(sp)
   15448:	0007c783          	lbu	a5,0(a5)
   1544c:	00fa8ab3          	add	s5,s5,a5
   15450:	d9dff06f          	j	151ec <_vfprintf_r+0x199c>
   15454:	01012783          	lw	a5,16(sp)
   15458:	fffc0c13          	addi	s8,s8,-1
   1545c:	fff78793          	addi	a5,a5,-1
   15460:	00f12823          	sw	a5,16(sp)
   15464:	f15ff06f          	j	15378 <_vfprintf_r+0x1b28>
   15468:	01068693          	addi	a3,a3,16
   1546c:	010ba223          	sw	a6,4(s7)
   15470:	0cd12e23          	sw	a3,220(sp)
   15474:	0ce12c23          	sw	a4,216(sp)
   15478:	02eb5463          	ble	a4,s6,154a0 <_vfprintf_r+0x1c50>
   1547c:	0d410613          	addi	a2,sp,212
   15480:	00090593          	mv	a1,s2
   15484:	00098513          	mv	a0,s3
   15488:	04f12223          	sw	a5,68(sp)
   1548c:	1bd070ef          	jal	ra,1ce48 <__sprint_r>
   15490:	2c051663          	bnez	a0,1575c <_vfprintf_r+0x1f0c>
   15494:	04412783          	lw	a5,68(sp)
   15498:	0fc10613          	addi	a2,sp,252
   1549c:	01000813          	li	a6,16
   154a0:	ff078793          	addi	a5,a5,-16
